Archive member included because of file (symbol)

c:/gcc-arm/bin/../lib/gcc/arm-none-eabi/4.7.3/armv7-m\libgcc.a(_arm_addsubdf3.o)
                              build\components\libc\minilibc\math.o (__aeabi_dsub)
c:/gcc-arm/bin/../lib/gcc/arm-none-eabi/4.7.3/armv7-m\libgcc.a(_arm_muldivdf3.o)
                              build\components\libc\minilibc\math.o (__aeabi_dmul)
c:/gcc-arm/bin/../lib/gcc/arm-none-eabi/4.7.3/armv7-m\libgcc.a(_arm_fixdfsi.o)
                              build\components\libc\minilibc\math.o (__aeabi_d2iz)
c:/gcc-arm/bin/../lib/gcc/arm-none-eabi/4.7.3/../../../../arm-none-eabi/lib/armv7-m\libc.a(lib_a-__atexit.o)
                              c:/gcc-arm/bin/../lib/gcc/arm-none-eabi/4.7.3/../../../../arm-none-eabi/lib/armv7-m/crt0.o (__register_exitproc)
c:/gcc-arm/bin/../lib/gcc/arm-none-eabi/4.7.3/../../../../arm-none-eabi/lib/armv7-m\libc.a(lib_a-exit.o)
                              c:/gcc-arm/bin/../lib/gcc/arm-none-eabi/4.7.3/../../../../arm-none-eabi/lib/armv7-m/crt0.o (exit)
c:/gcc-arm/bin/../lib/gcc/arm-none-eabi/4.7.3/../../../../arm-none-eabi/lib/armv7-m\libc.a(lib_a-fini.o)
                              c:/gcc-arm/bin/../lib/gcc/arm-none-eabi/4.7.3/../../../../arm-none-eabi/lib/armv7-m/crt0.o (__libc_fini_array)
c:/gcc-arm/bin/../lib/gcc/arm-none-eabi/4.7.3/../../../../arm-none-eabi/lib/armv7-m\libc.a(lib_a-impure.o)
                              c:/gcc-arm/bin/../lib/gcc/arm-none-eabi/4.7.3/../../../../arm-none-eabi/lib/armv7-m\libc.a(lib_a-__atexit.o) (_global_impure_ptr)
c:/gcc-arm/bin/../lib/gcc/arm-none-eabi/4.7.3/../../../../arm-none-eabi/lib/armv7-m\libc.a(lib_a-init.o)
                              c:/gcc-arm/bin/../lib/gcc/arm-none-eabi/4.7.3/../../../../arm-none-eabi/lib/armv7-m/crt0.o (__libc_init_array)
c:/gcc-arm/bin/../lib/gcc/arm-none-eabi/4.7.3/../../../../arm-none-eabi/lib/armv7-m\libc.a(lib_a-__call_atexit.o)
                              c:/gcc-arm/bin/../lib/gcc/arm-none-eabi/4.7.3/../../../../arm-none-eabi/lib/armv7-m\libc.a(lib_a-exit.o) (__call_exitprocs)
c:/gcc-arm/bin/../lib/gcc/arm-none-eabi/4.7.3/../../../../arm-none-eabi/lib/armv7-m\libc.a(lib_a-atexit.o)
                              c:/gcc-arm/bin/../lib/gcc/arm-none-eabi/4.7.3/../../../../arm-none-eabi/lib/armv7-m\libc.a(lib_a-__call_atexit.o) (atexit)

Allocating common symbols
Common symbol       size              file

SaveRState          0x2               build\usb_hid\src\usb_int.o
rt_interrupt_to_thread
                    0x4               build\libcpu\arm\cortex-m3\cpuport.o
rt_interrupt_from_thread
                    0x4               build\libcpu\arm\cortex-m3\cpuport.o
SaveState           0x2               build\usb_hid\src\usb_init.o
ProtocolValue       0x4               build\usb_hid\src\usb_prop.o
gConsole            0x8               build\motor\src\cmd.o
rt_thread_switch_interrupt_flag
                    0x4               build\libcpu\arm\cortex-m3\cpuport.o
wIstr               0x2               build\usb_hid\src\usb_istr.o
pProperty           0x4               build\usb_hid\src\usb_init.o
uart3_int_rx        0x44              build\drivers\usart.o
EPindex             0x1               build\usb_hid\src\usb_init.o
Report_Buf          0x40              build\usb_hid\src\usb_prop.o
cmd_thread          0x78              build\motor\src\cmd.o
rt_thread_priority_table
                    0x100             build\src\scheduler.o
serial1             0x7c              build\drivers\usart.o
rt_object_put_hook  0x4               build\src\object.o
SaveTState          0x2               build\usb_hid\src\usb_int.o
gData               0xbc              build\motor\src\adc.o
gCmd_dealer         0x424             build\motor\src\cmd.o
Device_Info         0x1c              build\usb_hid\src\usb_init.o
rt_current_priority
                    0x1               build\src\scheduler.o
pUser_Standard_Requests
                    0x4               build\usb_hid\src\usb_init.o
ad_sample_thread    0x78              build\motor\src\adc.o
event_thread        0x78              build\motor\src\pwm.o
EXTI_Enable         0x1               build\usb_hid\src\usb_prop.o
uart2_int_rx        0x44              build\drivers\usart.o
cmd_stack           0x200             build\motor\src\cmd.o
StatusInfo          0x2               build\usb_hid\src\usb_core.o
pInformation        0x4               build\usb_hid\src\usb_init.o
ResumeS             0x2               build\usb_hid\src\usb_pwr.o
rt_interrupt_nest   0x1               build\src\irq.o
serial3             0x7c              build\drivers\usart.o
rt_object_take_hook
                    0x4               build\src\object.o
rt_current_thread   0x4               build\src\scheduler.o
rt_thread_ready_priority_group
                    0x4               build\src\scheduler.o
rt_thread_defunct   0x8               build\src\scheduler.o
uart1_int_rx        0x44              build\drivers\usart.o
ad_sample_stack     0x200             build\motor\src\adc.o
event_stack         0x200             build\motor\src\pwm.o
EP                  0x20              build\usb_hid\src\usb_pwr.o
Send_Buffer         0x2               build\usb_hid\src\stm32_it.o
rt_object_trytake_hook
                    0x4               build\src\object.o
filter_buffer       0x190             build\motor\src\adc.o
serial2             0x7c              build\drivers\usart.o
wInterrupt_Mask     0x2               build\usb_hid\src\usb_init.o

Discarded input sections

 .text          0x00000000        0x0 c:/gcc-arm/bin/../lib/gcc/arm-none-eabi/4.7.3/armv7-m/crti.o
 .data          0x00000000        0x0 c:/gcc-arm/bin/../lib/gcc/arm-none-eabi/4.7.3/armv7-m/crti.o
 .bss           0x00000000        0x0 c:/gcc-arm/bin/../lib/gcc/arm-none-eabi/4.7.3/armv7-m/crti.o
 .init          0x00000000        0x4 c:/gcc-arm/bin/../lib/gcc/arm-none-eabi/4.7.3/armv7-m/crti.o
 .fini          0x00000000        0x4 c:/gcc-arm/bin/../lib/gcc/arm-none-eabi/4.7.3/armv7-m/crti.o
 .ARM.attributes
                0x00000000       0x1d c:/gcc-arm/bin/../lib/gcc/arm-none-eabi/4.7.3/armv7-m/crti.o
 .text          0x00000000       0x54 c:/gcc-arm/bin/../lib/gcc/arm-none-eabi/4.7.3/armv7-m/crtbegin.o
 .data          0x00000000        0x4 c:/gcc-arm/bin/../lib/gcc/arm-none-eabi/4.7.3/armv7-m/crtbegin.o
 .bss           0x00000000       0x1c c:/gcc-arm/bin/../lib/gcc/arm-none-eabi/4.7.3/armv7-m/crtbegin.o
 .init_array    0x00000000        0x4 c:/gcc-arm/bin/../lib/gcc/arm-none-eabi/4.7.3/armv7-m/crtbegin.o
 .fini_array    0x00000000        0x4 c:/gcc-arm/bin/../lib/gcc/arm-none-eabi/4.7.3/armv7-m/crtbegin.o
 .eh_frame      0x00000000        0x0 c:/gcc-arm/bin/../lib/gcc/arm-none-eabi/4.7.3/armv7-m/crtbegin.o
 .jcr           0x00000000        0x0 c:/gcc-arm/bin/../lib/gcc/arm-none-eabi/4.7.3/armv7-m/crtbegin.o
 .ARM.attributes
                0x00000000       0x2d c:/gcc-arm/bin/../lib/gcc/arm-none-eabi/4.7.3/armv7-m/crtbegin.o
 .text          0x00000000       0x70 c:/gcc-arm/bin/../lib/gcc/arm-none-eabi/4.7.3/../../../../arm-none-eabi/lib/armv7-m/crt0.o
 .data          0x00000000        0x0 c:/gcc-arm/bin/../lib/gcc/arm-none-eabi/4.7.3/../../../../arm-none-eabi/lib/armv7-m/crt0.o
 .bss           0x00000000        0x0 c:/gcc-arm/bin/../lib/gcc/arm-none-eabi/4.7.3/../../../../arm-none-eabi/lib/armv7-m/crt0.o
 .ARM.extab     0x00000000        0x0 c:/gcc-arm/bin/../lib/gcc/arm-none-eabi/4.7.3/../../../../arm-none-eabi/lib/armv7-m/crt0.o
 .ARM.exidx     0x00000000        0x8 c:/gcc-arm/bin/../lib/gcc/arm-none-eabi/4.7.3/../../../../arm-none-eabi/lib/armv7-m/crt0.o
 .ARM.attributes
                0x00000000       0x1b c:/gcc-arm/bin/../lib/gcc/arm-none-eabi/4.7.3/../../../../arm-none-eabi/lib/armv7-m/crt0.o
 .text          0x00000000        0x0 build\applications\application.o
 .data          0x00000000        0x0 build\applications\application.o
 .bss           0x00000000        0x0 build\applications\application.o
 .text          0x00000000        0x0 build\applications\startup.o
 .data          0x00000000        0x0 build\applications\startup.o
 .bss           0x00000000        0x0 build\applications\startup.o
 .text          0x00000000        0x0 build\drivers\board.o
 .data          0x00000000        0x0 build\drivers\board.o
 .bss           0x00000000        0x0 build\drivers\board.o
 .text          0x00000000        0x0 build\drivers\stm32f10x_it.o
 .data          0x00000000        0x0 build\drivers\stm32f10x_it.o
 .bss           0x00000000        0x0 build\drivers\stm32f10x_it.o
 .text          0x00000000        0x0 build\drivers\led.o
 .data          0x00000000        0x0 build\drivers\led.o
 .bss           0x00000000        0x0 build\drivers\led.o
 .text          0x00000000        0x0 build\drivers\usart.o
 .data          0x00000000        0x0 build\drivers\usart.o
 .bss           0x00000000        0x0 build\drivers\usart.o
 .text          0x00000000        0x0 build\Libraries\CMSIS\CM3\DeviceSupport\ST\STM32F10x\system_stm32f10x.o
 .data          0x00000000        0x0 build\Libraries\CMSIS\CM3\DeviceSupport\ST\STM32F10x\system_stm32f10x.o
 .bss           0x00000000        0x0 build\Libraries\CMSIS\CM3\DeviceSupport\ST\STM32F10x\system_stm32f10x.o
 .text.SystemCoreClockUpdate
                0x00000000       0x70 build\Libraries\CMSIS\CM3\DeviceSupport\ST\STM32F10x\system_stm32f10x.o
 .data.AHBPrescTable
                0x00000000       0x10 build\Libraries\CMSIS\CM3\DeviceSupport\ST\STM32F10x\system_stm32f10x.o
 .text          0x00000000        0x0 build\Libraries\STM32F10x_StdPeriph_Driver\src\stm32f10x_crc.o
 .data          0x00000000        0x0 build\Libraries\STM32F10x_StdPeriph_Driver\src\stm32f10x_crc.o
 .bss           0x00000000        0x0 build\Libraries\STM32F10x_StdPeriph_Driver\src\stm32f10x_crc.o
 .text.CRC_ResetDR
                0x00000000       0x10 build\Libraries\STM32F10x_StdPeriph_Driver\src\stm32f10x_crc.o
 .text.CRC_CalcCRC
                0x00000000       0x10 build\Libraries\STM32F10x_StdPeriph_Driver\src\stm32f10x_crc.o
 .text.CRC_CalcBlockCRC
                0x00000000       0x50 build\Libraries\STM32F10x_StdPeriph_Driver\src\stm32f10x_crc.o
 .text.CRC_GetCRC
                0x00000000        0xc build\Libraries\STM32F10x_StdPeriph_Driver\src\stm32f10x_crc.o
 .text.CRC_SetIDRegister
                0x00000000        0xc build\Libraries\STM32F10x_StdPeriph_Driver\src\stm32f10x_crc.o
 .text.CRC_GetIDRegister
                0x00000000        0xc build\Libraries\STM32F10x_StdPeriph_Driver\src\stm32f10x_crc.o
 .comment       0x00000000       0x71 build\Libraries\STM32F10x_StdPeriph_Driver\src\stm32f10x_crc.o
 .ARM.attributes
                0x00000000       0x33 build\Libraries\STM32F10x_StdPeriph_Driver\src\stm32f10x_crc.o
 .text          0x00000000        0x0 build\Libraries\STM32F10x_StdPeriph_Driver\src\stm32f10x_rcc.o
 .data          0x00000000        0x0 build\Libraries\STM32F10x_StdPeriph_Driver\src\stm32f10x_rcc.o
 .bss           0x00000000        0x0 build\Libraries\STM32F10x_StdPeriph_Driver\src\stm32f10x_rcc.o
 .text.RCC_DeInit
                0x00000000       0x40 build\Libraries\STM32F10x_StdPeriph_Driver\src\stm32f10x_rcc.o
 .text.RCC_HSEConfig
                0x00000000       0xb4 build\Libraries\STM32F10x_StdPeriph_Driver\src\stm32f10x_rcc.o
 .text.RCC_AdjustHSICalibrationValue
                0x00000000       0x2c build\Libraries\STM32F10x_StdPeriph_Driver\src\stm32f10x_rcc.o
 .text.RCC_HSICmd
                0x00000000       0x20 build\Libraries\STM32F10x_StdPeriph_Driver\src\stm32f10x_rcc.o
 .text.RCC_PLLConfig
                0x00000000       0x98 build\Libraries\STM32F10x_StdPeriph_Driver\src\stm32f10x_rcc.o
 .text.RCC_PLLCmd
                0x00000000       0x20 build\Libraries\STM32F10x_StdPeriph_Driver\src\stm32f10x_rcc.o
 .text.RCC_SYSCLKConfig
                0x00000000       0x2c build\Libraries\STM32F10x_StdPeriph_Driver\src\stm32f10x_rcc.o
 .text.RCC_GetSYSCLKSource
                0x00000000       0x10 build\Libraries\STM32F10x_StdPeriph_Driver\src\stm32f10x_rcc.o
 .text.RCC_HCLKConfig
                0x00000000       0x48 build\Libraries\STM32F10x_StdPeriph_Driver\src\stm32f10x_rcc.o
 .text.RCC_PCLK1Config
                0x00000000       0x40 build\Libraries\STM32F10x_StdPeriph_Driver\src\stm32f10x_rcc.o
 .text.RCC_PCLK2Config
                0x00000000       0x44 build\Libraries\STM32F10x_StdPeriph_Driver\src\stm32f10x_rcc.o
 .text.RCC_ITConfig
                0x00000000       0x54 build\Libraries\STM32F10x_StdPeriph_Driver\src\stm32f10x_rcc.o
 .text.RCC_LSEConfig
                0x00000000       0x54 build\Libraries\STM32F10x_StdPeriph_Driver\src\stm32f10x_rcc.o
 .text.RCC_LSICmd
                0x00000000       0x24 build\Libraries\STM32F10x_StdPeriph_Driver\src\stm32f10x_rcc.o
 .text.RCC_RTCCLKConfig
                0x00000000       0x34 build\Libraries\STM32F10x_StdPeriph_Driver\src\stm32f10x_rcc.o
 .text.RCC_RTCCLKCmd
                0x00000000       0x24 build\Libraries\STM32F10x_StdPeriph_Driver\src\stm32f10x_rcc.o
 .text.RCC_BackupResetCmd
                0x00000000       0x24 build\Libraries\STM32F10x_StdPeriph_Driver\src\stm32f10x_rcc.o
 .text.RCC_ClockSecuritySystemCmd
                0x00000000       0x20 build\Libraries\STM32F10x_StdPeriph_Driver\src\stm32f10x_rcc.o
 .text.RCC_MCOConfig
                0x00000000       0x30 build\Libraries\STM32F10x_StdPeriph_Driver\src\stm32f10x_rcc.o
 .text.RCC_GetFlagStatus
                0x00000000       0x78 build\Libraries\STM32F10x_StdPeriph_Driver\src\stm32f10x_rcc.o
 .text.RCC_WaitForHSEStartUp
                0x00000000       0x30 build\Libraries\STM32F10x_StdPeriph_Driver\src\stm32f10x_rcc.o
 .text.RCC_ClearFlag
                0x00000000       0x14 build\Libraries\STM32F10x_StdPeriph_Driver\src\stm32f10x_rcc.o
 .text.RCC_GetITStatus
                0x00000000       0x3c build\Libraries\STM32F10x_StdPeriph_Driver\src\stm32f10x_rcc.o
 .text.RCC_ClearITPendingBit
                0x00000000       0x28 build\Libraries\STM32F10x_StdPeriph_Driver\src\stm32f10x_rcc.o
 .text          0x00000000        0x0 build\Libraries\STM32F10x_StdPeriph_Driver\src\stm32f10x_wwdg.o
 .data          0x00000000        0x0 build\Libraries\STM32F10x_StdPeriph_Driver\src\stm32f10x_wwdg.o
 .bss           0x00000000        0x0 build\Libraries\STM32F10x_StdPeriph_Driver\src\stm32f10x_wwdg.o
 .text.WWDG_DeInit
                0x00000000       0x1c build\Libraries\STM32F10x_StdPeriph_Driver\src\stm32f10x_wwdg.o
 .text.WWDG_SetPrescaler
                0x00000000       0x38 build\Libraries\STM32F10x_StdPeriph_Driver\src\stm32f10x_wwdg.o
 .text.WWDG_SetWindowValue
                0x00000000       0x40 build\Libraries\STM32F10x_StdPeriph_Driver\src\stm32f10x_wwdg.o
 .text.WWDG_EnableIT
                0x00000000       0x10 build\Libraries\STM32F10x_StdPeriph_Driver\src\stm32f10x_wwdg.o
 .text.WWDG_SetCounter
                0x00000000       0x28 build\Libraries\STM32F10x_StdPeriph_Driver\src\stm32f10x_wwdg.o
 .text.WWDG_Enable
                0x00000000       0x28 build\Libraries\STM32F10x_StdPeriph_Driver\src\stm32f10x_wwdg.o
 .text.WWDG_GetFlagStatus
                0x00000000       0x10 build\Libraries\STM32F10x_StdPeriph_Driver\src\stm32f10x_wwdg.o
 .text.WWDG_ClearFlag
                0x00000000       0x10 build\Libraries\STM32F10x_StdPeriph_Driver\src\stm32f10x_wwdg.o
 .rodata.str1.4
                0x00000000       0x3c build\Libraries\STM32F10x_StdPeriph_Driver\src\stm32f10x_wwdg.o
 .comment       0x00000000       0x71 build\Libraries\STM32F10x_StdPeriph_Driver\src\stm32f10x_wwdg.o
 .ARM.attributes
                0x00000000       0x33 build\Libraries\STM32F10x_StdPeriph_Driver\src\stm32f10x_wwdg.o
 .text          0x00000000        0x0 build\Libraries\STM32F10x_StdPeriph_Driver\src\stm32f10x_pwr.o
 .data          0x00000000        0x0 build\Libraries\STM32F10x_StdPeriph_Driver\src\stm32f10x_pwr.o
 .bss           0x00000000        0x0 build\Libraries\STM32F10x_StdPeriph_Driver\src\stm32f10x_pwr.o
 .text.PWR_DeInit
                0x00000000       0x1c build\Libraries\STM32F10x_StdPeriph_Driver\src\stm32f10x_pwr.o
 .text.PWR_BackupAccessCmd
                0x00000000       0x20 build\Libraries\STM32F10x_StdPeriph_Driver\src\stm32f10x_pwr.o
 .text.PWR_PVDCmd
                0x00000000       0x20 build\Libraries\STM32F10x_StdPeriph_Driver\src\stm32f10x_pwr.o
 .text.PWR_PVDLevelConfig
                0x00000000       0x44 build\Libraries\STM32F10x_StdPeriph_Driver\src\stm32f10x_pwr.o
 .text.PWR_WakeUpPinCmd
                0x00000000       0x20 build\Libraries\STM32F10x_StdPeriph_Driver\src\stm32f10x_pwr.o
 .text.PWR_EnterSTOPMode
                0x00000000       0x84 build\Libraries\STM32F10x_StdPeriph_Driver\src\stm32f10x_pwr.o
 .text.PWR_EnterSTANDBYMode
                0x00000000       0x2c build\Libraries\STM32F10x_StdPeriph_Driver\src\stm32f10x_pwr.o
 .text.PWR_GetFlagStatus
                0x00000000       0x30 build\Libraries\STM32F10x_StdPeriph_Driver\src\stm32f10x_pwr.o
 .text.PWR_ClearFlag
                0x00000000       0x2c build\Libraries\STM32F10x_StdPeriph_Driver\src\stm32f10x_pwr.o
 .rodata.str1.4
                0x00000000       0x3c build\Libraries\STM32F10x_StdPeriph_Driver\src\stm32f10x_pwr.o
 .comment       0x00000000       0x71 build\Libraries\STM32F10x_StdPeriph_Driver\src\stm32f10x_pwr.o
 .ARM.attributes
                0x00000000       0x33 build\Libraries\STM32F10x_StdPeriph_Driver\src\stm32f10x_pwr.o
 .text          0x00000000        0x0 build\Libraries\STM32F10x_StdPeriph_Driver\src\stm32f10x_exti.o
 .data          0x00000000        0x0 build\Libraries\STM32F10x_StdPeriph_Driver\src\stm32f10x_exti.o
 .bss           0x00000000        0x0 build\Libraries\STM32F10x_StdPeriph_Driver\src\stm32f10x_exti.o
 .text.EXTI_DeInit
                0x00000000       0x20 build\Libraries\STM32F10x_StdPeriph_Driver\src\stm32f10x_exti.o
 .text.EXTI_Init
                0x00000000       0xcc build\Libraries\STM32F10x_StdPeriph_Driver\src\stm32f10x_exti.o
 .text.EXTI_StructInit
                0x00000000       0x10 build\Libraries\STM32F10x_StdPeriph_Driver\src\stm32f10x_exti.o
 .text.EXTI_GenerateSWInterrupt
                0x00000000       0x28 build\Libraries\STM32F10x_StdPeriph_Driver\src\stm32f10x_exti.o
 .text.EXTI_GetFlagStatus
                0x00000000       0x8c build\Libraries\STM32F10x_StdPeriph_Driver\src\stm32f10x_exti.o
 .text.EXTI_ClearFlag
                0x00000000       0x24 build\Libraries\STM32F10x_StdPeriph_Driver\src\stm32f10x_exti.o
 .text.EXTI_GetITStatus
                0x00000000       0x94 build\Libraries\STM32F10x_StdPeriph_Driver\src\stm32f10x_exti.o
 .text          0x00000000        0x0 build\Libraries\STM32F10x_StdPeriph_Driver\src\stm32f10x_bkp.o
 .data          0x00000000        0x0 build\Libraries\STM32F10x_StdPeriph_Driver\src\stm32f10x_bkp.o
 .bss           0x00000000        0x0 build\Libraries\STM32F10x_StdPeriph_Driver\src\stm32f10x_bkp.o
 .text.BKP_DeInit
                0x00000000       0x14 build\Libraries\STM32F10x_StdPeriph_Driver\src\stm32f10x_bkp.o
 .text.BKP_TamperPinLevelConfig
                0x00000000       0x20 build\Libraries\STM32F10x_StdPeriph_Driver\src\stm32f10x_bkp.o
 .text.BKP_TamperPinCmd
                0x00000000       0x20 build\Libraries\STM32F10x_StdPeriph_Driver\src\stm32f10x_bkp.o
 .text.BKP_ITConfig
                0x00000000       0x20 build\Libraries\STM32F10x_StdPeriph_Driver\src\stm32f10x_bkp.o
 .text.BKP_RTCOutputConfig
                0x00000000       0x3c build\Libraries\STM32F10x_StdPeriph_Driver\src\stm32f10x_bkp.o
 .text.BKP_SetRTCCalibrationValue
                0x00000000       0x30 build\Libraries\STM32F10x_StdPeriph_Driver\src\stm32f10x_bkp.o
 .text.BKP_WriteBackupRegister
                0x00000000       0xd8 build\Libraries\STM32F10x_StdPeriph_Driver\src\stm32f10x_bkp.o
 .text.BKP_ReadBackupRegister
                0x00000000       0xd8 build\Libraries\STM32F10x_StdPeriph_Driver\src\stm32f10x_bkp.o
 .text.BKP_GetFlagStatus
                0x00000000       0x10 build\Libraries\STM32F10x_StdPeriph_Driver\src\stm32f10x_bkp.o
 .text.BKP_ClearFlag
                0x00000000       0x14 build\Libraries\STM32F10x_StdPeriph_Driver\src\stm32f10x_bkp.o
 .text.BKP_GetITStatus
                0x00000000       0x10 build\Libraries\STM32F10x_StdPeriph_Driver\src\stm32f10x_bkp.o
 .text.BKP_ClearITPendingBit
                0x00000000       0x14 build\Libraries\STM32F10x_StdPeriph_Driver\src\stm32f10x_bkp.o
 .rodata.str1.4
                0x00000000       0x3c build\Libraries\STM32F10x_StdPeriph_Driver\src\stm32f10x_bkp.o
 .comment       0x00000000       0x71 build\Libraries\STM32F10x_StdPeriph_Driver\src\stm32f10x_bkp.o
 .ARM.attributes
                0x00000000       0x33 build\Libraries\STM32F10x_StdPeriph_Driver\src\stm32f10x_bkp.o
 .text          0x00000000        0x0 build\Libraries\STM32F10x_StdPeriph_Driver\src\stm32f10x_i2c.o
 .data          0x00000000        0x0 build\Libraries\STM32F10x_StdPeriph_Driver\src\stm32f10x_i2c.o
 .bss           0x00000000        0x0 build\Libraries\STM32F10x_StdPeriph_Driver\src\stm32f10x_i2c.o
 .text.I2C_DeInit
                0x00000000       0x58 build\Libraries\STM32F10x_StdPeriph_Driver\src\stm32f10x_i2c.o
 .text.I2C_Init
                0x00000000      0x194 build\Libraries\STM32F10x_StdPeriph_Driver\src\stm32f10x_i2c.o
 .text.I2C_StructInit
                0x00000000       0x1c build\Libraries\STM32F10x_StdPeriph_Driver\src\stm32f10x_i2c.o
 .text.I2C_Cmd  0x00000000       0x58 build\Libraries\STM32F10x_StdPeriph_Driver\src\stm32f10x_i2c.o
 .text.I2C_DMACmd
                0x00000000       0x58 build\Libraries\STM32F10x_StdPeriph_Driver\src\stm32f10x_i2c.o
 .text.I2C_DMALastTransferCmd
                0x00000000       0x58 build\Libraries\STM32F10x_StdPeriph_Driver\src\stm32f10x_i2c.o
 .text.I2C_GenerateSTART
                0x00000000       0x58 build\Libraries\STM32F10x_StdPeriph_Driver\src\stm32f10x_i2c.o
 .text.I2C_GenerateSTOP
                0x00000000       0x58 build\Libraries\STM32F10x_StdPeriph_Driver\src\stm32f10x_i2c.o
 .text.I2C_AcknowledgeConfig
                0x00000000       0x58 build\Libraries\STM32F10x_StdPeriph_Driver\src\stm32f10x_i2c.o
 .text.I2C_OwnAddress2Config
                0x00000000       0x44 build\Libraries\STM32F10x_StdPeriph_Driver\src\stm32f10x_i2c.o
 .text.I2C_DualAddressCmd
                0x00000000       0x58 build\Libraries\STM32F10x_StdPeriph_Driver\src\stm32f10x_i2c.o
 .text.I2C_GeneralCallCmd
                0x00000000       0x58 build\Libraries\STM32F10x_StdPeriph_Driver\src\stm32f10x_i2c.o
 .text.I2C_ITConfig
                0x00000000       0x6c build\Libraries\STM32F10x_StdPeriph_Driver\src\stm32f10x_i2c.o
 .text.I2C_SendData
                0x00000000       0x30 build\Libraries\STM32F10x_StdPeriph_Driver\src\stm32f10x_i2c.o
 .text.I2C_ReceiveData
                0x00000000       0x30 build\Libraries\STM32F10x_StdPeriph_Driver\src\stm32f10x_i2c.o
 .text.I2C_Send7bitAddress
                0x00000000       0x50 build\Libraries\STM32F10x_StdPeriph_Driver\src\stm32f10x_i2c.o
 .text.I2C_ReadRegister
                0x00000000       0x70 build\Libraries\STM32F10x_StdPeriph_Driver\src\stm32f10x_i2c.o
 .text.I2C_SoftwareResetCmd
                0x00000000       0x58 build\Libraries\STM32F10x_StdPeriph_Driver\src\stm32f10x_i2c.o
 .text.I2C_NACKPositionConfig
                0x00000000       0x60 build\Libraries\STM32F10x_StdPeriph_Driver\src\stm32f10x_i2c.o
 .text.I2C_SMBusAlertConfig
                0x00000000       0x60 build\Libraries\STM32F10x_StdPeriph_Driver\src\stm32f10x_i2c.o
 .text.I2C_TransmitPEC
                0x00000000       0x58 build\Libraries\STM32F10x_StdPeriph_Driver\src\stm32f10x_i2c.o
 .text.I2C_PECPositionConfig
                0x00000000       0x60 build\Libraries\STM32F10x_StdPeriph_Driver\src\stm32f10x_i2c.o
 .text.I2C_CalculatePEC
                0x00000000       0x58 build\Libraries\STM32F10x_StdPeriph_Driver\src\stm32f10x_i2c.o
 .text.I2C_GetPEC
                0x00000000       0x34 build\Libraries\STM32F10x_StdPeriph_Driver\src\stm32f10x_i2c.o
 .text.I2C_ARPCmd
                0x00000000       0x58 build\Libraries\STM32F10x_StdPeriph_Driver\src\stm32f10x_i2c.o
 .text.I2C_StretchClockCmd
                0x00000000       0x58 build\Libraries\STM32F10x_StdPeriph_Driver\src\stm32f10x_i2c.o
 .text.I2C_FastModeDutyCycleConfig
                0x00000000       0x60 build\Libraries\STM32F10x_StdPeriph_Driver\src\stm32f10x_i2c.o
 .text.I2C_CheckEvent
                0x00000000      0x104 build\Libraries\STM32F10x_StdPeriph_Driver\src\stm32f10x_i2c.o
 .text.I2C_GetLastEvent
                0x00000000       0x3c build\Libraries\STM32F10x_StdPeriph_Driver\src\stm32f10x_i2c.o
 .text.I2C_GetFlagStatus
                0x00000000      0x12c build\Libraries\STM32F10x_StdPeriph_Driver\src\stm32f10x_i2c.o
 .text.I2C_ClearFlag
                0x00000000       0x48 build\Libraries\STM32F10x_StdPeriph_Driver\src\stm32f10x_i2c.o
 .text.I2C_GetITStatus
                0x00000000       0xe8 build\Libraries\STM32F10x_StdPeriph_Driver\src\stm32f10x_i2c.o
 .text.I2C_ClearITPendingBit
                0x00000000       0x48 build\Libraries\STM32F10x_StdPeriph_Driver\src\stm32f10x_i2c.o
 .rodata.str1.4
                0x00000000       0x3c build\Libraries\STM32F10x_StdPeriph_Driver\src\stm32f10x_i2c.o
 .comment       0x00000000       0x71 build\Libraries\STM32F10x_StdPeriph_Driver\src\stm32f10x_i2c.o
 .ARM.attributes
                0x00000000       0x33 build\Libraries\STM32F10x_StdPeriph_Driver\src\stm32f10x_i2c.o
 .text          0x00000000        0x0 build\Libraries\STM32F10x_StdPeriph_Driver\src\stm32f10x_adc.o
 .data          0x00000000        0x0 build\Libraries\STM32F10x_StdPeriph_Driver\src\stm32f10x_adc.o
 .bss           0x00000000        0x0 build\Libraries\STM32F10x_StdPeriph_Driver\src\stm32f10x_adc.o
 .text.ADC_StructInit
                0x00000000       0x14 build\Libraries\STM32F10x_StdPeriph_Driver\src\stm32f10x_adc.o
 .text.ADC_ITConfig
                0x00000000       0x78 build\Libraries\STM32F10x_StdPeriph_Driver\src\stm32f10x_adc.o
 .text.ADC_GetSoftwareStartConvStatus
                0x00000000       0x40 build\Libraries\STM32F10x_StdPeriph_Driver\src\stm32f10x_adc.o
 .text.ADC_DiscModeChannelCountConfig
                0x00000000       0x58 build\Libraries\STM32F10x_StdPeriph_Driver\src\stm32f10x_adc.o
 .text.ADC_DiscModeCmd
                0x00000000       0x60 build\Libraries\STM32F10x_StdPeriph_Driver\src\stm32f10x_adc.o
 .text.ADC_ExternalTrigConvCmd
                0x00000000       0x60 build\Libraries\STM32F10x_StdPeriph_Driver\src\stm32f10x_adc.o
 .text.ADC_GetConversionValue
                0x00000000       0x3c build\Libraries\STM32F10x_StdPeriph_Driver\src\stm32f10x_adc.o
 .text.ADC_GetDualModeConversionValue
                0x00000000        0xc build\Libraries\STM32F10x_StdPeriph_Driver\src\stm32f10x_adc.o
 .text.ADC_AutoInjectedConvCmd
                0x00000000       0x60 build\Libraries\STM32F10x_StdPeriph_Driver\src\stm32f10x_adc.o
 .text.ADC_InjectedDiscModeCmd
                0x00000000       0x60 build\Libraries\STM32F10x_StdPeriph_Driver\src\stm32f10x_adc.o
 .text.ADC_ExternalTrigInjectedConvConfig
                0x00000000       0x7c build\Libraries\STM32F10x_StdPeriph_Driver\src\stm32f10x_adc.o
 .text.ADC_ExternalTrigInjectedConvCmd
                0x00000000       0x60 build\Libraries\STM32F10x_StdPeriph_Driver\src\stm32f10x_adc.o
 .text.ADC_SoftwareStartInjectedConvCmd
                0x00000000       0x60 build\Libraries\STM32F10x_StdPeriph_Driver\src\stm32f10x_adc.o
 .text.ADC_GetSoftwareStartInjectedConvCmdStatus
                0x00000000       0x40 build\Libraries\STM32F10x_StdPeriph_Driver\src\stm32f10x_adc.o
 .text.ADC_InjectedChannelConfig
                0x00000000       0xd0 build\Libraries\STM32F10x_StdPeriph_Driver\src\stm32f10x_adc.o
 .text.ADC_InjectedSequencerLengthConfig
                0x00000000       0x58 build\Libraries\STM32F10x_StdPeriph_Driver\src\stm32f10x_adc.o
 .text.ADC_SetInjectedOffset
                0x00000000       0x7c build\Libraries\STM32F10x_StdPeriph_Driver\src\stm32f10x_adc.o
 .text.ADC_GetInjectedConversionValue
                0x00000000       0x6c build\Libraries\STM32F10x_StdPeriph_Driver\src\stm32f10x_adc.o
 .text.ADC_AnalogWatchdogCmd
                0x00000000       0x8c build\Libraries\STM32F10x_StdPeriph_Driver\src\stm32f10x_adc.o
 .text.ADC_AnalogWatchdogThresholdsConfig
                0x00000000       0x64 build\Libraries\STM32F10x_StdPeriph_Driver\src\stm32f10x_adc.o
 .text.ADC_AnalogWatchdogSingleChannelConfig
                0x00000000       0x54 build\Libraries\STM32F10x_StdPeriph_Driver\src\stm32f10x_adc.o
 .text.ADC_TempSensorVrefintCmd
                0x00000000       0x3c build\Libraries\STM32F10x_StdPeriph_Driver\src\stm32f10x_adc.o
 .text.ADC_GetFlagStatus
                0x00000000       0x60 build\Libraries\STM32F10x_StdPeriph_Driver\src\stm32f10x_adc.o
 .text.ADC_ClearFlag
                0x00000000       0x50 build\Libraries\STM32F10x_StdPeriph_Driver\src\stm32f10x_adc.o
 .text.ADC_GetITStatus
                0x00000000       0x6c build\Libraries\STM32F10x_StdPeriph_Driver\src\stm32f10x_adc.o
 .text.ADC_ClearITPendingBit
                0x00000000       0x54 build\Libraries\STM32F10x_StdPeriph_Driver\src\stm32f10x_adc.o
 .text          0x00000000        0x0 build\Libraries\STM32F10x_StdPeriph_Driver\src\stm32f10x_dac.o
 .data          0x00000000        0x0 build\Libraries\STM32F10x_StdPeriph_Driver\src\stm32f10x_dac.o
 .bss           0x00000000        0x0 build\Libraries\STM32F10x_StdPeriph_Driver\src\stm32f10x_dac.o
 .text.DAC_DeInit
                0x00000000       0x1c build\Libraries\STM32F10x_StdPeriph_Driver\src\stm32f10x_dac.o
 .text.DAC_Init
                0x00000000       0xd8 build\Libraries\STM32F10x_StdPeriph_Driver\src\stm32f10x_dac.o
 .text.DAC_StructInit
                0x00000000        0xc build\Libraries\STM32F10x_StdPeriph_Driver\src\stm32f10x_dac.o
 .text.DAC_Cmd  0x00000000       0x58 build\Libraries\STM32F10x_StdPeriph_Driver\src\stm32f10x_dac.o
 .text.DAC_DMACmd
                0x00000000       0x5c build\Libraries\STM32F10x_StdPeriph_Driver\src\stm32f10x_dac.o
 .text.DAC_SoftwareTriggerCmd
                0x00000000       0x60 build\Libraries\STM32F10x_StdPeriph_Driver\src\stm32f10x_dac.o
 .text.DAC_DualSoftwareTriggerCmd
                0x00000000       0x3c build\Libraries\STM32F10x_StdPeriph_Driver\src\stm32f10x_dac.o
 .text.DAC_WaveGenerationCmd
                0x00000000       0x6c build\Libraries\STM32F10x_StdPeriph_Driver\src\stm32f10x_dac.o
 .text.DAC_SetChannel1Data
                0x00000000       0x50 build\Libraries\STM32F10x_StdPeriph_Driver\src\stm32f10x_dac.o
 .text.DAC_SetChannel2Data
                0x00000000       0x50 build\Libraries\STM32F10x_StdPeriph_Driver\src\stm32f10x_dac.o
 .text.DAC_SetDualChannelData
                0x00000000       0x60 build\Libraries\STM32F10x_StdPeriph_Driver\src\stm32f10x_dac.o
 .text.DAC_GetDataOutputValue
                0x00000000       0x3c build\Libraries\STM32F10x_StdPeriph_Driver\src\stm32f10x_dac.o
 .rodata.str1.4
                0x00000000       0x3c build\Libraries\STM32F10x_StdPeriph_Driver\src\stm32f10x_dac.o
 .comment       0x00000000       0x71 build\Libraries\STM32F10x_StdPeriph_Driver\src\stm32f10x_dac.o
 .ARM.attributes
                0x00000000       0x33 build\Libraries\STM32F10x_StdPeriph_Driver\src\stm32f10x_dac.o
 .text          0x00000000        0x0 build\Libraries\STM32F10x_StdPeriph_Driver\src\stm32f10x_rtc.o
 .data          0x00000000        0x0 build\Libraries\STM32F10x_StdPeriph_Driver\src\stm32f10x_rtc.o
 .bss           0x00000000        0x0 build\Libraries\STM32F10x_StdPeriph_Driver\src\stm32f10x_rtc.o
 .text.RTC_ITConfig
                0x00000000       0x58 build\Libraries\STM32F10x_StdPeriph_Driver\src\stm32f10x_rtc.o
 .text.RTC_EnterConfigMode
                0x00000000       0x14 build\Libraries\STM32F10x_StdPeriph_Driver\src\stm32f10x_rtc.o
 .text.RTC_ExitConfigMode
                0x00000000       0x18 build\Libraries\STM32F10x_StdPeriph_Driver\src\stm32f10x_rtc.o
 .text.RTC_GetCounter
                0x00000000       0x14 build\Libraries\STM32F10x_StdPeriph_Driver\src\stm32f10x_rtc.o
 .text.RTC_SetCounter
                0x00000000       0x28 build\Libraries\STM32F10x_StdPeriph_Driver\src\stm32f10x_rtc.o
 .text.RTC_SetPrescaler
                0x00000000       0x40 build\Libraries\STM32F10x_StdPeriph_Driver\src\stm32f10x_rtc.o
 .text.RTC_SetAlarm
                0x00000000       0x28 build\Libraries\STM32F10x_StdPeriph_Driver\src\stm32f10x_rtc.o
 .text.RTC_GetDivider
                0x00000000       0x18 build\Libraries\STM32F10x_StdPeriph_Driver\src\stm32f10x_rtc.o
 .text.RTC_WaitForLastTask
                0x00000000       0x18 build\Libraries\STM32F10x_StdPeriph_Driver\src\stm32f10x_rtc.o
 .text.RTC_WaitForSynchro
                0x00000000       0x24 build\Libraries\STM32F10x_StdPeriph_Driver\src\stm32f10x_rtc.o
 .text.RTC_GetFlagStatus
                0x00000000       0x38 build\Libraries\STM32F10x_StdPeriph_Driver\src\stm32f10x_rtc.o
 .text.RTC_ClearFlag
                0x00000000       0x30 build\Libraries\STM32F10x_StdPeriph_Driver\src\stm32f10x_rtc.o
 .text.RTC_GetITStatus
                0x00000000       0x40 build\Libraries\STM32F10x_StdPeriph_Driver\src\stm32f10x_rtc.o
 .text.RTC_ClearITPendingBit
                0x00000000       0x30 build\Libraries\STM32F10x_StdPeriph_Driver\src\stm32f10x_rtc.o
 .rodata.str1.4
                0x00000000       0x3c build\Libraries\STM32F10x_StdPeriph_Driver\src\stm32f10x_rtc.o
 .comment       0x00000000       0x71 build\Libraries\STM32F10x_StdPeriph_Driver\src\stm32f10x_rtc.o
 .ARM.attributes
                0x00000000       0x33 build\Libraries\STM32F10x_StdPeriph_Driver\src\stm32f10x_rtc.o
 .text          0x00000000        0x0 build\Libraries\STM32F10x_StdPeriph_Driver\src\stm32f10x_fsmc.o
 .data          0x00000000        0x0 build\Libraries\STM32F10x_StdPeriph_Driver\src\stm32f10x_fsmc.o
 .bss           0x00000000        0x0 build\Libraries\STM32F10x_StdPeriph_Driver\src\stm32f10x_fsmc.o
 .text.FSMC_NORSRAMDeInit
                0x00000000       0x54 build\Libraries\STM32F10x_StdPeriph_Driver\src\stm32f10x_fsmc.o
 .text.FSMC_NANDDeInit
                0x00000000       0x34 build\Libraries\STM32F10x_StdPeriph_Driver\src\stm32f10x_fsmc.o
 .text.FSMC_PCCARDDeInit
                0x00000000       0x1c build\Libraries\STM32F10x_StdPeriph_Driver\src\stm32f10x_fsmc.o
 .text.FSMC_NORSRAMInit
                0x00000000      0x2d4 build\Libraries\STM32F10x_StdPeriph_Driver\src\stm32f10x_fsmc.o
 .text.FSMC_NANDInit
                0x00000000      0x1cc build\Libraries\STM32F10x_StdPeriph_Driver\src\stm32f10x_fsmc.o
 .text.FSMC_PCCARDInit
                0x00000000      0x1e4 build\Libraries\STM32F10x_StdPeriph_Driver\src\stm32f10x_fsmc.o
 .text.FSMC_NORSRAMStructInit
                0x00000000       0x50 build\Libraries\STM32F10x_StdPeriph_Driver\src\stm32f10x_fsmc.o
 .text.FSMC_NANDStructInit
                0x00000000       0x30 build\Libraries\STM32F10x_StdPeriph_Driver\src\stm32f10x_fsmc.o
 .text.FSMC_PCCARDStructInit
                0x00000000       0x30 build\Libraries\STM32F10x_StdPeriph_Driver\src\stm32f10x_fsmc.o
 .text.FSMC_NORSRAMCmd
                0x00000000       0x60 build\Libraries\STM32F10x_StdPeriph_Driver\src\stm32f10x_fsmc.o
 .text.FSMC_NANDCmd
                0x00000000       0x74 build\Libraries\STM32F10x_StdPeriph_Driver\src\stm32f10x_fsmc.o
 .text.FSMC_PCCARDCmd
                0x00000000       0x40 build\Libraries\STM32F10x_StdPeriph_Driver\src\stm32f10x_fsmc.o
 .text.FSMC_NANDECCCmd
                0x00000000       0x74 build\Libraries\STM32F10x_StdPeriph_Driver\src\stm32f10x_fsmc.o
 .text.FSMC_GetECC
                0x00000000       0x18 build\Libraries\STM32F10x_StdPeriph_Driver\src\stm32f10x_fsmc.o
 .text.FSMC_ITConfig
                0x00000000       0xbc build\Libraries\STM32F10x_StdPeriph_Driver\src\stm32f10x_fsmc.o
 .text.FSMC_GetFlagStatus
                0x00000000       0x6c build\Libraries\STM32F10x_StdPeriph_Driver\src\stm32f10x_fsmc.o
 .text.FSMC_ClearFlag
                0x00000000       0x74 build\Libraries\STM32F10x_StdPeriph_Driver\src\stm32f10x_fsmc.o
 .text.FSMC_GetITStatus
                0x00000000       0x74 build\Libraries\STM32F10x_StdPeriph_Driver\src\stm32f10x_fsmc.o
 .text.FSMC_ClearITPendingBit
                0x00000000       0x74 build\Libraries\STM32F10x_StdPeriph_Driver\src\stm32f10x_fsmc.o
 .rodata.str1.4
                0x00000000       0x3c build\Libraries\STM32F10x_StdPeriph_Driver\src\stm32f10x_fsmc.o
 .comment       0x00000000       0x71 build\Libraries\STM32F10x_StdPeriph_Driver\src\stm32f10x_fsmc.o
 .ARM.attributes
                0x00000000       0x33 build\Libraries\STM32F10x_StdPeriph_Driver\src\stm32f10x_fsmc.o
 .text          0x00000000        0x0 build\Libraries\STM32F10x_StdPeriph_Driver\src\stm32f10x_tim.o
 .data          0x00000000        0x0 build\Libraries\STM32F10x_StdPeriph_Driver\src\stm32f10x_tim.o
 .bss           0x00000000        0x0 build\Libraries\STM32F10x_StdPeriph_Driver\src\stm32f10x_tim.o
 .text.TI1_Config
                0x00000000       0x84 build\Libraries\STM32F10x_StdPeriph_Driver\src\stm32f10x_tim.o
 .text.TI2_Config
                0x00000000       0x8c build\Libraries\STM32F10x_StdPeriph_Driver\src\stm32f10x_tim.o
 .text.TIM_OC2Init
                0x00000000      0x1ac build\Libraries\STM32F10x_StdPeriph_Driver\src\stm32f10x_tim.o
 .text.TIM_OC3Init
                0x00000000      0x184 build\Libraries\STM32F10x_StdPeriph_Driver\src\stm32f10x_tim.o
 .text.TIM_OC4Init
                0x00000000      0x12c build\Libraries\STM32F10x_StdPeriph_Driver\src\stm32f10x_tim.o
 .text.TIM_BDTRConfig
                0x00000000      0x104 build\Libraries\STM32F10x_StdPeriph_Driver\src\stm32f10x_tim.o
 .text.TIM_TimeBaseStructInit
                0x00000000       0x14 build\Libraries\STM32F10x_StdPeriph_Driver\src\stm32f10x_tim.o
 .text.TIM_OCStructInit
                0x00000000       0x14 build\Libraries\STM32F10x_StdPeriph_Driver\src\stm32f10x_tim.o
 .text.TIM_ICStructInit
                0x00000000       0x10 build\Libraries\STM32F10x_StdPeriph_Driver\src\stm32f10x_tim.o
 .text.TIM_BDTRStructInit
                0x00000000       0x14 build\Libraries\STM32F10x_StdPeriph_Driver\src\stm32f10x_tim.o
 .text.TIM_GenerateEvent
                0x00000000       0xf0 build\Libraries\STM32F10x_StdPeriph_Driver\src\stm32f10x_tim.o
 .text.TIM_DMAConfig
                0x00000000      0x108 build\Libraries\STM32F10x_StdPeriph_Driver\src\stm32f10x_tim.o
 .text.TIM_DMACmd
                0x00000000       0xd4 build\Libraries\STM32F10x_StdPeriph_Driver\src\stm32f10x_tim.o
 .text.TIM_InternalClockConfig
                0x00000000       0x88 build\Libraries\STM32F10x_StdPeriph_Driver\src\stm32f10x_tim.o
 .text.TIM_ETRClockMode1Config
                0x00000000       0xb8 build\Libraries\STM32F10x_StdPeriph_Driver\src\stm32f10x_tim.o
 .text.TIM_PrescalerConfig
                0x00000000       0xf0 build\Libraries\STM32F10x_StdPeriph_Driver\src\stm32f10x_tim.o
 .text.TIM_CounterModeConfig
                0x00000000       0x84 build\Libraries\STM32F10x_StdPeriph_Driver\src\stm32f10x_tim.o
 .text.TIM_SelectInputTrigger
                0x00000000       0xb4 build\Libraries\STM32F10x_StdPeriph_Driver\src\stm32f10x_tim.o
 .text.TIM_TIxExternalClockConfig
                0x00000000       0xe4 build\Libraries\STM32F10x_StdPeriph_Driver\src\stm32f10x_tim.o
 .text.TIM_ITRxExternalClockConfig
                0x00000000       0xa8 build\Libraries\STM32F10x_StdPeriph_Driver\src\stm32f10x_tim.o
 .text.TIM_EncoderInterfaceConfig
                0x00000000       0xe4 build\Libraries\STM32F10x_StdPeriph_Driver\src\stm32f10x_tim.o
 .text.TIM_ForcedOC1Config
                0x00000000       0xe8 build\Libraries\STM32F10x_StdPeriph_Driver\src\stm32f10x_tim.o
 .text.TIM_ForcedOC2Config
                0x00000000       0xa0 build\Libraries\STM32F10x_StdPeriph_Driver\src\stm32f10x_tim.o
 .text.TIM_ForcedOC3Config
                0x00000000       0x7c build\Libraries\STM32F10x_StdPeriph_Driver\src\stm32f10x_tim.o
 .text.TIM_ForcedOC4Config
                0x00000000       0x7c build\Libraries\STM32F10x_StdPeriph_Driver\src\stm32f10x_tim.o
 .text.TIM_SelectCOM
                0x00000000       0x7c build\Libraries\STM32F10x_StdPeriph_Driver\src\stm32f10x_tim.o
 .text.TIM_SelectCCDMA
                0x00000000       0xa8 build\Libraries\STM32F10x_StdPeriph_Driver\src\stm32f10x_tim.o
 .text.TIM_CCPreloadControl
                0x00000000       0x90 build\Libraries\STM32F10x_StdPeriph_Driver\src\stm32f10x_tim.o
 .text.TIM_OC1PreloadConfig
                0x00000000       0xe8 build\Libraries\STM32F10x_StdPeriph_Driver\src\stm32f10x_tim.o
 .text.TIM_OC2PreloadConfig
                0x00000000       0xa0 build\Libraries\STM32F10x_StdPeriph_Driver\src\stm32f10x_tim.o
 .text.TIM_OC3PreloadConfig
                0x00000000       0x7c build\Libraries\STM32F10x_StdPeriph_Driver\src\stm32f10x_tim.o
 .text.TIM_OC4PreloadConfig
                0x00000000       0x7c build\Libraries\STM32F10x_StdPeriph_Driver\src\stm32f10x_tim.o
 .text.TIM_OC1FastConfig
                0x00000000       0xe8 build\Libraries\STM32F10x_StdPeriph_Driver\src\stm32f10x_tim.o
 .text.TIM_OC2FastConfig
                0x00000000       0xa0 build\Libraries\STM32F10x_StdPeriph_Driver\src\stm32f10x_tim.o
 .text.TIM_OC3FastConfig
                0x00000000       0x7c build\Libraries\STM32F10x_StdPeriph_Driver\src\stm32f10x_tim.o
 .text.TIM_OC4FastConfig
                0x00000000       0x7c build\Libraries\STM32F10x_StdPeriph_Driver\src\stm32f10x_tim.o
 .text.TIM_ClearOC1Ref
                0x00000000       0x7c build\Libraries\STM32F10x_StdPeriph_Driver\src\stm32f10x_tim.o
 .text.TIM_ClearOC2Ref
                0x00000000       0x78 build\Libraries\STM32F10x_StdPeriph_Driver\src\stm32f10x_tim.o
 .text.TIM_ClearOC3Ref
                0x00000000       0x7c build\Libraries\STM32F10x_StdPeriph_Driver\src\stm32f10x_tim.o
 .text.TIM_ClearOC4Ref
                0x00000000       0x78 build\Libraries\STM32F10x_StdPeriph_Driver\src\stm32f10x_tim.o
 .text.TIM_OC1PolarityConfig
                0x00000000       0xe4 build\Libraries\STM32F10x_StdPeriph_Driver\src\stm32f10x_tim.o
 .text.TIM_OC1NPolarityConfig
                0x00000000       0x74 build\Libraries\STM32F10x_StdPeriph_Driver\src\stm32f10x_tim.o
 .text.TIM_OC2PolarityConfig
                0x00000000       0xa0 build\Libraries\STM32F10x_StdPeriph_Driver\src\stm32f10x_tim.o
 .text.TIM_OC2NPolarityConfig
                0x00000000       0x88 build\Libraries\STM32F10x_StdPeriph_Driver\src\stm32f10x_tim.o
 .text.TIM_OC3PolarityConfig
                0x00000000       0x7c build\Libraries\STM32F10x_StdPeriph_Driver\src\stm32f10x_tim.o
 .text.TIM_OC3NPolarityConfig
                0x00000000       0x88 build\Libraries\STM32F10x_StdPeriph_Driver\src\stm32f10x_tim.o
 .text.TIM_OC4PolarityConfig
                0x00000000       0x7c build\Libraries\STM32F10x_StdPeriph_Driver\src\stm32f10x_tim.o
 .text.TIM_CCxNCmd
                0x00000000       0x98 build\Libraries\STM32F10x_StdPeriph_Driver\src\stm32f10x_tim.o
 .text.TIM_SelectOCxM
                0x00000000      0x14c build\Libraries\STM32F10x_StdPeriph_Driver\src\stm32f10x_tim.o
 .text.TIM_UpdateDisableConfig
                0x00000000      0x108 build\Libraries\STM32F10x_StdPeriph_Driver\src\stm32f10x_tim.o
 .text.TIM_UpdateRequestConfig
                0x00000000      0x108 build\Libraries\STM32F10x_StdPeriph_Driver\src\stm32f10x_tim.o
 .text.TIM_SelectHallSensor
                0x00000000       0xa8 build\Libraries\STM32F10x_StdPeriph_Driver\src\stm32f10x_tim.o
 .text.TIM_SelectOnePulseMode
                0x00000000      0x104 build\Libraries\STM32F10x_StdPeriph_Driver\src\stm32f10x_tim.o
 .text.TIM_SelectOutputTrigger
                0x00000000       0xd0 build\Libraries\STM32F10x_StdPeriph_Driver\src\stm32f10x_tim.o
 .text.TIM_SelectSlaveMode
                0x00000000       0xa0 build\Libraries\STM32F10x_StdPeriph_Driver\src\stm32f10x_tim.o
 .text.TIM_SelectMasterSlaveMode
                0x00000000       0xa4 build\Libraries\STM32F10x_StdPeriph_Driver\src\stm32f10x_tim.o
 .text.TIM_SetCompare2
                0x00000000       0x80 build\Libraries\STM32F10x_StdPeriph_Driver\src\stm32f10x_tim.o
 .text.TIM_SetCompare3
                0x00000000       0x5c build\Libraries\STM32F10x_StdPeriph_Driver\src\stm32f10x_tim.o
 .text.TIM_SetCompare4
                0x00000000       0x5c build\Libraries\STM32F10x_StdPeriph_Driver\src\stm32f10x_tim.o
 .text.TIM_SetIC1Prescaler
                0x00000000       0xf0 build\Libraries\STM32F10x_StdPeriph_Driver\src\stm32f10x_tim.o
 .text.TIM_SetIC2Prescaler
                0x00000000       0xac build\Libraries\STM32F10x_StdPeriph_Driver\src\stm32f10x_tim.o
 .text.TIM_PWMIConfig
                0x00000000       0xe4 build\Libraries\STM32F10x_StdPeriph_Driver\src\stm32f10x_tim.o
 .text.TIM_SetIC3Prescaler
                0x00000000       0x84 build\Libraries\STM32F10x_StdPeriph_Driver\src\stm32f10x_tim.o
 .text.TIM_SetIC4Prescaler
                0x00000000       0x88 build\Libraries\STM32F10x_StdPeriph_Driver\src\stm32f10x_tim.o
 .text.TIM_ICInit
                0x00000000      0x3f4 build\Libraries\STM32F10x_StdPeriph_Driver\src\stm32f10x_tim.o
 .text.TIM_SetClockDivision
                0x00000000       0xf0 build\Libraries\STM32F10x_StdPeriph_Driver\src\stm32f10x_tim.o
 .text.TIM_GetCapture1
                0x00000000       0xc8 build\Libraries\STM32F10x_StdPeriph_Driver\src\stm32f10x_tim.o
 .text.TIM_GetCapture2
                0x00000000       0x80 build\Libraries\STM32F10x_StdPeriph_Driver\src\stm32f10x_tim.o
 .text.TIM_GetCapture3
                0x00000000       0x5c build\Libraries\STM32F10x_StdPeriph_Driver\src\stm32f10x_tim.o
 .text.TIM_GetCapture4
                0x00000000       0x5c build\Libraries\STM32F10x_StdPeriph_Driver\src\stm32f10x_tim.o
 .text.TIM_GetCounter
                0x00000000       0xe0 build\Libraries\STM32F10x_StdPeriph_Driver\src\stm32f10x_tim.o
 .text.TIM_GetPrescaler
                0x00000000       0xe0 build\Libraries\STM32F10x_StdPeriph_Driver\src\stm32f10x_tim.o
 .text.TIM_GetFlagStatus
                0x00000000      0x128 build\Libraries\STM32F10x_StdPeriph_Driver\src\stm32f10x_tim.o
 .text.TIM_GetITStatus
                0x00000000      0x118 build\Libraries\STM32F10x_StdPeriph_Driver\src\stm32f10x_tim.o
 .text          0x00000000        0x0 build\Libraries\STM32F10x_StdPeriph_Driver\src\stm32f10x_iwdg.o
 .data          0x00000000        0x0 build\Libraries\STM32F10x_StdPeriph_Driver\src\stm32f10x_iwdg.o
 .bss           0x00000000        0x0 build\Libraries\STM32F10x_StdPeriph_Driver\src\stm32f10x_iwdg.o
 .text.IWDG_WriteAccessCmd
                0x00000000       0x28 build\Libraries\STM32F10x_StdPeriph_Driver\src\stm32f10x_iwdg.o
 .text.IWDG_SetPrescaler
                0x00000000       0x20 build\Libraries\STM32F10x_StdPeriph_Driver\src\stm32f10x_iwdg.o
 .text.IWDG_SetReload
                0x00000000       0x24 build\Libraries\STM32F10x_StdPeriph_Driver\src\stm32f10x_iwdg.o
 .text.IWDG_ReloadCounter
                0x00000000       0x10 build\Libraries\STM32F10x_StdPeriph_Driver\src\stm32f10x_iwdg.o
 .text.IWDG_Enable
                0x00000000       0x10 build\Libraries\STM32F10x_StdPeriph_Driver\src\stm32f10x_iwdg.o
 .text.IWDG_GetFlagStatus
                0x00000000       0x2c build\Libraries\STM32F10x_StdPeriph_Driver\src\stm32f10x_iwdg.o
 .rodata.str1.4
                0x00000000       0x3c build\Libraries\STM32F10x_StdPeriph_Driver\src\stm32f10x_iwdg.o
 .comment       0x00000000       0x71 build\Libraries\STM32F10x_StdPeriph_Driver\src\stm32f10x_iwdg.o
 .ARM.attributes
                0x00000000       0x33 build\Libraries\STM32F10x_StdPeriph_Driver\src\stm32f10x_iwdg.o
 .text          0x00000000        0x0 build\Libraries\STM32F10x_StdPeriph_Driver\src\stm32f10x_spi.o
 .data          0x00000000        0x0 build\Libraries\STM32F10x_StdPeriph_Driver\src\stm32f10x_spi.o
 .bss           0x00000000        0x0 build\Libraries\STM32F10x_StdPeriph_Driver\src\stm32f10x_spi.o
 .text.SPI_I2S_DeInit
                0x00000000       0x80 build\Libraries\STM32F10x_StdPeriph_Driver\src\stm32f10x_spi.o
 .text.SPI_Init
                0x00000000      0x134 build\Libraries\STM32F10x_StdPeriph_Driver\src\stm32f10x_spi.o
 .text.I2S_Init
                0x00000000      0x170 build\Libraries\STM32F10x_StdPeriph_Driver\src\stm32f10x_spi.o
 .text.SPI_StructInit
                0x00000000       0x18 build\Libraries\STM32F10x_StdPeriph_Driver\src\stm32f10x_spi.o
 .text.I2S_StructInit
                0x00000000       0x14 build\Libraries\STM32F10x_StdPeriph_Driver\src\stm32f10x_spi.o
 .text.SPI_Cmd  0x00000000       0x64 build\Libraries\STM32F10x_StdPeriph_Driver\src\stm32f10x_spi.o
 .text.I2S_Cmd  0x00000000       0x58 build\Libraries\STM32F10x_StdPeriph_Driver\src\stm32f10x_spi.o
 .text.SPI_I2S_ITConfig
                0x00000000       0x7c build\Libraries\STM32F10x_StdPeriph_Driver\src\stm32f10x_spi.o
 .text.SPI_I2S_DMACmd
                0x00000000       0x78 build\Libraries\STM32F10x_StdPeriph_Driver\src\stm32f10x_spi.o
 .text.SPI_I2S_SendData
                0x00000000       0x3c build\Libraries\STM32F10x_StdPeriph_Driver\src\stm32f10x_spi.o
 .text.SPI_I2S_ReceiveData
                0x00000000       0x3c build\Libraries\STM32F10x_StdPeriph_Driver\src\stm32f10x_spi.o
 .text.SPI_NSSInternalSoftwareConfig
                0x00000000       0x6c build\Libraries\STM32F10x_StdPeriph_Driver\src\stm32f10x_spi.o
 .text.SPI_SSOutputCmd
                0x00000000       0x64 build\Libraries\STM32F10x_StdPeriph_Driver\src\stm32f10x_spi.o
 .text.SPI_DataSizeConfig
                0x00000000       0x64 build\Libraries\STM32F10x_StdPeriph_Driver\src\stm32f10x_spi.o
 .text.SPI_TransmitCRC
                0x00000000       0x44 build\Libraries\STM32F10x_StdPeriph_Driver\src\stm32f10x_spi.o
 .text.SPI_CalculateCRC
                0x00000000       0x64 build\Libraries\STM32F10x_StdPeriph_Driver\src\stm32f10x_spi.o
 .text.SPI_GetCRC
                0x00000000       0x54 build\Libraries\STM32F10x_StdPeriph_Driver\src\stm32f10x_spi.o
 .text.SPI_GetCRCPolynomial
                0x00000000       0x3c build\Libraries\STM32F10x_StdPeriph_Driver\src\stm32f10x_spi.o
 .text.SPI_BiDirectionalLineConfig
                0x00000000       0x6c build\Libraries\STM32F10x_StdPeriph_Driver\src\stm32f10x_spi.o
 .text.SPI_I2S_GetFlagStatus
                0x00000000       0x70 build\Libraries\STM32F10x_StdPeriph_Driver\src\stm32f10x_spi.o
 .text.SPI_I2S_ClearFlag
                0x00000000       0x50 build\Libraries\STM32F10x_StdPeriph_Driver\src\stm32f10x_spi.o
 .text.SPI_I2S_GetITStatus
                0x00000000       0x80 build\Libraries\STM32F10x_StdPeriph_Driver\src\stm32f10x_spi.o
 .text.SPI_I2S_ClearITPendingBit
                0x00000000       0x58 build\Libraries\STM32F10x_StdPeriph_Driver\src\stm32f10x_spi.o
 .rodata.str1.4
                0x00000000       0x3c build\Libraries\STM32F10x_StdPeriph_Driver\src\stm32f10x_spi.o
 .comment       0x00000000       0x71 build\Libraries\STM32F10x_StdPeriph_Driver\src\stm32f10x_spi.o
 .ARM.attributes
                0x00000000       0x33 build\Libraries\STM32F10x_StdPeriph_Driver\src\stm32f10x_spi.o
 .text          0x00000000        0x0 build\Libraries\STM32F10x_StdPeriph_Driver\src\stm32f10x_flash.o
 .data          0x00000000        0x0 build\Libraries\STM32F10x_StdPeriph_Driver\src\stm32f10x_flash.o
 .bss           0x00000000        0x0 build\Libraries\STM32F10x_StdPeriph_Driver\src\stm32f10x_flash.o
 .text.FLASH_SetLatency
                0x00000000       0x2c build\Libraries\STM32F10x_StdPeriph_Driver\src\stm32f10x_flash.o
 .text.FLASH_HalfCycleAccessCmd
                0x00000000       0x34 build\Libraries\STM32F10x_StdPeriph_Driver\src\stm32f10x_flash.o
 .text.FLASH_PrefetchBufferCmd
                0x00000000       0x34 build\Libraries\STM32F10x_StdPeriph_Driver\src\stm32f10x_flash.o
 .text.FLASH_Unlock
                0x00000000       0x20 build\Libraries\STM32F10x_StdPeriph_Driver\src\stm32f10x_flash.o
 .text.FLASH_Lock
                0x00000000       0x14 build\Libraries\STM32F10x_StdPeriph_Driver\src\stm32f10x_flash.o
 .text.FLASH_GetUserOptionByte
                0x00000000       0x10 build\Libraries\STM32F10x_StdPeriph_Driver\src\stm32f10x_flash.o
 .text.FLASH_GetWriteProtectionOptionByte
                0x00000000        0xc build\Libraries\STM32F10x_StdPeriph_Driver\src\stm32f10x_flash.o
 .text.FLASH_GetReadOutProtectionStatus
                0x00000000       0x10 build\Libraries\STM32F10x_StdPeriph_Driver\src\stm32f10x_flash.o
 .text.FLASH_GetPrefetchBufferStatus
                0x00000000       0x10 build\Libraries\STM32F10x_StdPeriph_Driver\src\stm32f10x_flash.o
 .text.FLASH_ITConfig
                0x00000000       0x54 build\Libraries\STM32F10x_StdPeriph_Driver\src\stm32f10x_flash.o
 .text.FLASH_GetFlagStatus
                0x00000000       0x48 build\Libraries\STM32F10x_StdPeriph_Driver\src\stm32f10x_flash.o
 .text.FLASH_ClearFlag
                0x00000000       0x28 build\Libraries\STM32F10x_StdPeriph_Driver\src\stm32f10x_flash.o
 .text.FLASH_GetStatus
                0x00000000       0x2c build\Libraries\STM32F10x_StdPeriph_Driver\src\stm32f10x_flash.o
 .text.FLASH_UserOptionByteConfig
                0x00000000       0xa4 build\Libraries\STM32F10x_StdPeriph_Driver\src\stm32f10x_flash.o
 .text.FLASH_ReadOutProtection
                0x00000000       0xb8 build\Libraries\STM32F10x_StdPeriph_Driver\src\stm32f10x_flash.o
 .text.FLASH_EnableWriteProtection
                0x00000000       0xe0 build\Libraries\STM32F10x_StdPeriph_Driver\src\stm32f10x_flash.o
 .text.FLASH_ProgramOptionByteData
                0x00000000       0x78 build\Libraries\STM32F10x_StdPeriph_Driver\src\stm32f10x_flash.o
 .text.FLASH_ProgramHalfWord
                0x00000000       0x64 build\Libraries\STM32F10x_StdPeriph_Driver\src\stm32f10x_flash.o
 .text.FLASH_EraseOptionBytes
                0x00000000       0x90 build\Libraries\STM32F10x_StdPeriph_Driver\src\stm32f10x_flash.o
 .text.FLASH_EraseAllPages
                0x00000000       0x3c build\Libraries\STM32F10x_StdPeriph_Driver\src\stm32f10x_flash.o
 .text.FLASH_ErasePage
                0x00000000       0x6c build\Libraries\STM32F10x_StdPeriph_Driver\src\stm32f10x_flash.o
 .text.FLASH_WaitForLastBank1Operation
                0x00000000       0x40 build\Libraries\STM32F10x_StdPeriph_Driver\src\stm32f10x_flash.o
 .text.FLASH_EraseAllBank1Pages
                0x00000000       0x3c build\Libraries\STM32F10x_StdPeriph_Driver\src\stm32f10x_flash.o
 .text          0x00000000        0x0 build\Libraries\STM32F10x_StdPeriph_Driver\src\stm32f10x_sdio.o
 .data          0x00000000        0x0 build\Libraries\STM32F10x_StdPeriph_Driver\src\stm32f10x_sdio.o
 .bss           0x00000000        0x0 build\Libraries\STM32F10x_StdPeriph_Driver\src\stm32f10x_sdio.o
 .text.SDIO_DeInit
                0x00000000       0x28 build\Libraries\STM32F10x_StdPeriph_Driver\src\stm32f10x_sdio.o
 .text.SDIO_Init
                0x00000000       0x9c build\Libraries\STM32F10x_StdPeriph_Driver\src\stm32f10x_sdio.o
 .text.SDIO_StructInit
                0x00000000       0x10 build\Libraries\STM32F10x_StdPeriph_Driver\src\stm32f10x_sdio.o
 .text.SDIO_ClockCmd
                0x00000000       0x20 build\Libraries\STM32F10x_StdPeriph_Driver\src\stm32f10x_sdio.o
 .text.SDIO_SetPowerState
                0x00000000       0x30 build\Libraries\STM32F10x_StdPeriph_Driver\src\stm32f10x_sdio.o
 .text.SDIO_GetPowerState
                0x00000000       0x10 build\Libraries\STM32F10x_StdPeriph_Driver\src\stm32f10x_sdio.o
 .text.SDIO_ITConfig
                0x00000000       0x54 build\Libraries\STM32F10x_StdPeriph_Driver\src\stm32f10x_sdio.o
 .text.SDIO_DMACmd
                0x00000000       0x24 build\Libraries\STM32F10x_StdPeriph_Driver\src\stm32f10x_sdio.o
 .text.SDIO_SendCommand
                0x00000000       0x8c build\Libraries\STM32F10x_StdPeriph_Driver\src\stm32f10x_sdio.o
 .text.SDIO_CmdStructInit
                0x00000000       0x10 build\Libraries\STM32F10x_StdPeriph_Driver\src\stm32f10x_sdio.o
 .text.SDIO_GetCommandResponse
                0x00000000       0x10 build\Libraries\STM32F10x_StdPeriph_Driver\src\stm32f10x_sdio.o
 .text.SDIO_GetResponse
                0x00000000       0x3c build\Libraries\STM32F10x_StdPeriph_Driver\src\stm32f10x_sdio.o
 .text.SDIO_DataConfig
                0x00000000       0xc4 build\Libraries\STM32F10x_StdPeriph_Driver\src\stm32f10x_sdio.o
 .text.SDIO_DataStructInit
                0x00000000       0x14 build\Libraries\STM32F10x_StdPeriph_Driver\src\stm32f10x_sdio.o
 .text.SDIO_GetDataCounter
                0x00000000        0xc build\Libraries\STM32F10x_StdPeriph_Driver\src\stm32f10x_sdio.o
 .text.SDIO_ReadData
                0x00000000       0x10 build\Libraries\STM32F10x_StdPeriph_Driver\src\stm32f10x_sdio.o
 .text.SDIO_WriteData
                0x00000000       0x10 build\Libraries\STM32F10x_StdPeriph_Driver\src\stm32f10x_sdio.o
 .text.SDIO_GetFIFOCount
                0x00000000        0xc build\Libraries\STM32F10x_StdPeriph_Driver\src\stm32f10x_sdio.o
 .text.SDIO_StartSDIOReadWait
                0x00000000       0x24 build\Libraries\STM32F10x_StdPeriph_Driver\src\stm32f10x_sdio.o
 .text.SDIO_StopSDIOReadWait
                0x00000000       0x24 build\Libraries\STM32F10x_StdPeriph_Driver\src\stm32f10x_sdio.o
 .text.SDIO_SetSDIOReadWaitMode
                0x00000000       0x24 build\Libraries\STM32F10x_StdPeriph_Driver\src\stm32f10x_sdio.o
 .text.SDIO_SetSDIOOperation
                0x00000000       0x24 build\Libraries\STM32F10x_StdPeriph_Driver\src\stm32f10x_sdio.o
 .text.SDIO_SendSDIOSuspendCmd
                0x00000000       0x24 build\Libraries\STM32F10x_StdPeriph_Driver\src\stm32f10x_sdio.o
 .text.SDIO_CommandCompletionCmd
                0x00000000       0x24 build\Libraries\STM32F10x_StdPeriph_Driver\src\stm32f10x_sdio.o
 .text.SDIO_CEATAITCmd
                0x00000000       0x2c build\Libraries\STM32F10x_StdPeriph_Driver\src\stm32f10x_sdio.o
 .text.SDIO_SendCEATACmd
                0x00000000       0x24 build\Libraries\STM32F10x_StdPeriph_Driver\src\stm32f10x_sdio.o
 .text.SDIO_GetFlagStatus
                0x00000000       0xa4 build\Libraries\STM32F10x_StdPeriph_Driver\src\stm32f10x_sdio.o
 .text.SDIO_ClearFlag
                0x00000000       0x2c build\Libraries\STM32F10x_StdPeriph_Driver\src\stm32f10x_sdio.o
 .text.SDIO_GetITStatus
                0x00000000       0xa4 build\Libraries\STM32F10x_StdPeriph_Driver\src\stm32f10x_sdio.o
 .text.SDIO_ClearITPendingBit
                0x00000000       0x2c build\Libraries\STM32F10x_StdPeriph_Driver\src\stm32f10x_sdio.o
 .rodata.str1.4
                0x00000000       0x3c build\Libraries\STM32F10x_StdPeriph_Driver\src\stm32f10x_sdio.o
 .comment       0x00000000       0x71 build\Libraries\STM32F10x_StdPeriph_Driver\src\stm32f10x_sdio.o
 .ARM.attributes
                0x00000000       0x33 build\Libraries\STM32F10x_StdPeriph_Driver\src\stm32f10x_sdio.o
 .text          0x00000000        0x0 build\Libraries\STM32F10x_StdPeriph_Driver\src\stm32f10x_gpio.o
 .data          0x00000000        0x0 build\Libraries\STM32F10x_StdPeriph_Driver\src\stm32f10x_gpio.o
 .bss           0x00000000        0x0 build\Libraries\STM32F10x_StdPeriph_Driver\src\stm32f10x_gpio.o
 .text.GPIO_DeInit
                0x00000000       0xf8 build\Libraries\STM32F10x_StdPeriph_Driver\src\stm32f10x_gpio.o
 .text.GPIO_AFIODeInit
                0x00000000       0x18 build\Libraries\STM32F10x_StdPeriph_Driver\src\stm32f10x_gpio.o
 .text.GPIO_StructInit
                0x00000000       0x10 build\Libraries\STM32F10x_StdPeriph_Driver\src\stm32f10x_gpio.o
 .text.GPIO_ReadInputData
                0x00000000       0x6c build\Libraries\STM32F10x_StdPeriph_Driver\src\stm32f10x_gpio.o
 .text.GPIO_ReadOutputDataBit
                0x00000000       0xcc build\Libraries\STM32F10x_StdPeriph_Driver\src\stm32f10x_gpio.o
 .text.GPIO_ReadOutputData
                0x00000000       0x6c build\Libraries\STM32F10x_StdPeriph_Driver\src\stm32f10x_gpio.o
 .text.GPIO_WriteBit
                0x00000000       0xdc build\Libraries\STM32F10x_StdPeriph_Driver\src\stm32f10x_gpio.o
 .text.GPIO_Write
                0x00000000       0x6c build\Libraries\STM32F10x_StdPeriph_Driver\src\stm32f10x_gpio.o
 .text.GPIO_PinLockConfig
                0x00000000       0x84 build\Libraries\STM32F10x_StdPeriph_Driver\src\stm32f10x_gpio.o
 .text.GPIO_EventOutputConfig
                0x00000000       0x44 build\Libraries\STM32F10x_StdPeriph_Driver\src\stm32f10x_gpio.o
 .text.GPIO_EventOutputCmd
                0x00000000       0x20 build\Libraries\STM32F10x_StdPeriph_Driver\src\stm32f10x_gpio.o
 .text.GPIO_EXTILineConfig
                0x00000000       0x5c build\Libraries\STM32F10x_StdPeriph_Driver\src\stm32f10x_gpio.o
 .text.GPIO_ETH_MediaInterfaceConfig
                0x00000000       0x20 build\Libraries\STM32F10x_StdPeriph_Driver\src\stm32f10x_gpio.o
 .text          0x00000000        0x0 build\Libraries\STM32F10x_StdPeriph_Driver\src\stm32f10x_usart.o
 .data          0x00000000        0x0 build\Libraries\STM32F10x_StdPeriph_Driver\src\stm32f10x_usart.o
 .bss           0x00000000        0x0 build\Libraries\STM32F10x_StdPeriph_Driver\src\stm32f10x_usart.o
 .text.USART_DeInit
                0x00000000       0xc8 build\Libraries\STM32F10x_StdPeriph_Driver\src\stm32f10x_usart.o
 .text.USART_StructInit
                0x00000000       0x18 build\Libraries\STM32F10x_StdPeriph_Driver\src\stm32f10x_usart.o
 .text.USART_ClockInit
                0x00000000       0xb0 build\Libraries\STM32F10x_StdPeriph_Driver\src\stm32f10x_usart.o
 .text.USART_ClockStructInit
                0x00000000        0xc build\Libraries\STM32F10x_StdPeriph_Driver\src\stm32f10x_usart.o
 .text.USART_DMACmd
                0x00000000       0x94 build\Libraries\STM32F10x_StdPeriph_Driver\src\stm32f10x_usart.o
 .text.USART_SetAddress
                0x00000000       0x74 build\Libraries\STM32F10x_StdPeriph_Driver\src\stm32f10x_usart.o
 .text.USART_WakeUpConfig
                0x00000000       0x78 build\Libraries\STM32F10x_StdPeriph_Driver\src\stm32f10x_usart.o
 .text.USART_ReceiverWakeUpCmd
                0x00000000       0x7c build\Libraries\STM32F10x_StdPeriph_Driver\src\stm32f10x_usart.o
 .text.USART_LINBreakDetectLengthConfig
                0x00000000       0x78 build\Libraries\STM32F10x_StdPeriph_Driver\src\stm32f10x_usart.o
 .text.USART_LINCmd
                0x00000000       0x7c build\Libraries\STM32F10x_StdPeriph_Driver\src\stm32f10x_usart.o
 .text.USART_SendData
                0x00000000       0x68 build\Libraries\STM32F10x_StdPeriph_Driver\src\stm32f10x_usart.o
 .text.USART_ReceiveData
                0x00000000       0x58 build\Libraries\STM32F10x_StdPeriph_Driver\src\stm32f10x_usart.o
 .text.USART_SendBreak
                0x00000000       0x5c build\Libraries\STM32F10x_StdPeriph_Driver\src\stm32f10x_usart.o
 .text.USART_SetGuardTime
                0x00000000       0x4c build\Libraries\STM32F10x_StdPeriph_Driver\src\stm32f10x_usart.o
 .text.USART_SetPrescaler
                0x00000000       0x64 build\Libraries\STM32F10x_StdPeriph_Driver\src\stm32f10x_usart.o
 .text.USART_SmartCardCmd
                0x00000000       0x64 build\Libraries\STM32F10x_StdPeriph_Driver\src\stm32f10x_usart.o
 .text.USART_SmartCardNACKCmd
                0x00000000       0x64 build\Libraries\STM32F10x_StdPeriph_Driver\src\stm32f10x_usart.o
 .text.USART_HalfDuplexCmd
                0x00000000       0x7c build\Libraries\STM32F10x_StdPeriph_Driver\src\stm32f10x_usart.o
 .text.USART_OverSampling8Cmd
                0x00000000       0x7c build\Libraries\STM32F10x_StdPeriph_Driver\src\stm32f10x_usart.o
 .text.USART_OneBitMethodCmd
                0x00000000       0x7c build\Libraries\STM32F10x_StdPeriph_Driver\src\stm32f10x_usart.o
 .text.USART_IrDAConfig
                0x00000000       0x78 build\Libraries\STM32F10x_StdPeriph_Driver\src\stm32f10x_usart.o
 .text.USART_IrDACmd
                0x00000000       0x7c build\Libraries\STM32F10x_StdPeriph_Driver\src\stm32f10x_usart.o
 .text.USART_GetFlagStatus
                0x00000000       0xc4 build\Libraries\STM32F10x_StdPeriph_Driver\src\stm32f10x_usart.o
 .text.USART_ClearFlag
                0x00000000       0xa4 build\Libraries\STM32F10x_StdPeriph_Driver\src\stm32f10x_usart.o
 .text          0x00000000        0x0 build\Libraries\STM32F10x_StdPeriph_Driver\src\stm32f10x_dbgmcu.o
 .data          0x00000000        0x0 build\Libraries\STM32F10x_StdPeriph_Driver\src\stm32f10x_dbgmcu.o
 .bss           0x00000000        0x0 build\Libraries\STM32F10x_StdPeriph_Driver\src\stm32f10x_dbgmcu.o
 .text.DBGMCU_GetREVID
                0x00000000       0x10 build\Libraries\STM32F10x_StdPeriph_Driver\src\stm32f10x_dbgmcu.o
 .text.DBGMCU_GetDEVID
                0x00000000       0x10 build\Libraries\STM32F10x_StdPeriph_Driver\src\stm32f10x_dbgmcu.o
 .text.DBGMCU_Config
                0x00000000       0x54 build\Libraries\STM32F10x_StdPeriph_Driver\src\stm32f10x_dbgmcu.o
 .rodata.str1.4
                0x00000000       0x3c build\Libraries\STM32F10x_StdPeriph_Driver\src\stm32f10x_dbgmcu.o
 .comment       0x00000000       0x71 build\Libraries\STM32F10x_StdPeriph_Driver\src\stm32f10x_dbgmcu.o
 .ARM.attributes
                0x00000000       0x33 build\Libraries\STM32F10x_StdPeriph_Driver\src\stm32f10x_dbgmcu.o
 .text          0x00000000        0x0 build\Libraries\STM32F10x_StdPeriph_Driver\src\stm32f10x_dma.o
 .data          0x00000000        0x0 build\Libraries\STM32F10x_StdPeriph_Driver\src\stm32f10x_dma.o
 .bss           0x00000000        0x0 build\Libraries\STM32F10x_StdPeriph_Driver\src\stm32f10x_dma.o
 .text.DMA_StructInit
                0x00000000       0x1c build\Libraries\STM32F10x_StdPeriph_Driver\src\stm32f10x_dma.o
 .text.DMA_ITConfig
                0x00000000       0xd4 build\Libraries\STM32F10x_StdPeriph_Driver\src\stm32f10x_dma.o
 .text.DMA_SetCurrDataCounter
                0x00000000       0x9c build\Libraries\STM32F10x_StdPeriph_Driver\src\stm32f10x_dma.o
 .text.DMA_GetCurrDataCounter
                0x00000000       0x9c build\Libraries\STM32F10x_StdPeriph_Driver\src\stm32f10x_dma.o
 .text.DMA_GetFlagStatus
                0x00000000      0x1cc build\Libraries\STM32F10x_StdPeriph_Driver\src\stm32f10x_dma.o
 .text.DMA_ClearFlag
                0x00000000       0x44 build\Libraries\STM32F10x_StdPeriph_Driver\src\stm32f10x_dma.o
 .text.DMA_GetITStatus
                0x00000000      0x1cc build\Libraries\STM32F10x_StdPeriph_Driver\src\stm32f10x_dma.o
 .text.DMA_ClearITPendingBit
                0x00000000       0x44 build\Libraries\STM32F10x_StdPeriph_Driver\src\stm32f10x_dma.o
 .text          0x00000000        0x0 build\Libraries\STM32F10x_StdPeriph_Driver\src\stm32f10x_can.o
 .data          0x00000000        0x0 build\Libraries\STM32F10x_StdPeriph_Driver\src\stm32f10x_can.o
 .bss           0x00000000        0x0 build\Libraries\STM32F10x_StdPeriph_Driver\src\stm32f10x_can.o
 .text.CAN_DeInit
                0x00000000       0x58 build\Libraries\STM32F10x_StdPeriph_Driver\src\stm32f10x_can.o
 .text.CAN_Init
                0x00000000      0x1f8 build\Libraries\STM32F10x_StdPeriph_Driver\src\stm32f10x_can.o
 .text.CAN_FilterInit
                0x00000000      0x188 build\Libraries\STM32F10x_StdPeriph_Driver\src\stm32f10x_can.o
 .text.CAN_StructInit
                0x00000000       0x20 build\Libraries\STM32F10x_StdPeriph_Driver\src\stm32f10x_can.o
 .text.CAN_SlaveStartBank
                0x00000000       0x58 build\Libraries\STM32F10x_StdPeriph_Driver\src\stm32f10x_can.o
 .text.CAN_DBGFreeze
                0x00000000       0x54 build\Libraries\STM32F10x_StdPeriph_Driver\src\stm32f10x_can.o
 .text.CAN_TTComModeCmd
                0x00000000       0x9c build\Libraries\STM32F10x_StdPeriph_Driver\src\stm32f10x_can.o
 .text.CAN_Transmit
                0x00000000      0x158 build\Libraries\STM32F10x_StdPeriph_Driver\src\stm32f10x_can.o
 .text.CAN_TransmitStatus
                0x00000000       0x9c build\Libraries\STM32F10x_StdPeriph_Driver\src\stm32f10x_can.o
 .text.CAN_CancelTransmit
                0x00000000       0x68 build\Libraries\STM32F10x_StdPeriph_Driver\src\stm32f10x_can.o
 .text.CAN_Receive
                0x00000000       0xc8 build\Libraries\STM32F10x_StdPeriph_Driver\src\stm32f10x_can.o
 .text.CAN_FIFORelease
                0x00000000       0x54 build\Libraries\STM32F10x_StdPeriph_Driver\src\stm32f10x_can.o
 .text.CAN_MessagePending
                0x00000000       0x58 build\Libraries\STM32F10x_StdPeriph_Driver\src\stm32f10x_can.o
 .text.CAN_OperatingModeRequest
                0x00000000      0x128 build\Libraries\STM32F10x_StdPeriph_Driver\src\stm32f10x_can.o
 .text.CAN_Sleep
                0x00000000       0x48 build\Libraries\STM32F10x_StdPeriph_Driver\src\stm32f10x_can.o
 .text.CAN_WakeUp
                0x00000000       0x60 build\Libraries\STM32F10x_StdPeriph_Driver\src\stm32f10x_can.o
 .text.CAN_GetLastErrorCode
                0x00000000       0x34 build\Libraries\STM32F10x_StdPeriph_Driver\src\stm32f10x_can.o
 .text.CAN_GetReceiveErrorCounter
                0x00000000       0x30 build\Libraries\STM32F10x_StdPeriph_Driver\src\stm32f10x_can.o
 .text.CAN_GetLSBTransmitErrorCounter
                0x00000000       0x34 build\Libraries\STM32F10x_StdPeriph_Driver\src\stm32f10x_can.o
 .text.CAN_ITConfig
                0x00000000       0xa0 build\Libraries\STM32F10x_StdPeriph_Driver\src\stm32f10x_can.o
 .text.CAN_GetFlagStatus
                0x00000000      0x134 build\Libraries\STM32F10x_StdPeriph_Driver\src\stm32f10x_can.o
 .text.CAN_ClearFlag
                0x00000000       0xd8 build\Libraries\STM32F10x_StdPeriph_Driver\src\stm32f10x_can.o
 .text.CAN_GetITStatus
                0x00000000      0x1b4 build\Libraries\STM32F10x_StdPeriph_Driver\src\stm32f10x_can.o
 .text.CAN_ClearITPendingBit
                0x00000000       0xf4 build\Libraries\STM32F10x_StdPeriph_Driver\src\stm32f10x_can.o
 .rodata.str1.4
                0x00000000       0x3c build\Libraries\STM32F10x_StdPeriph_Driver\src\stm32f10x_can.o
 .comment       0x00000000       0x71 build\Libraries\STM32F10x_StdPeriph_Driver\src\stm32f10x_can.o
 .ARM.attributes
                0x00000000       0x33 build\Libraries\STM32F10x_StdPeriph_Driver\src\stm32f10x_can.o
 .text          0x00000000        0x0 build\Libraries\STM32F10x_StdPeriph_Driver\src\stm32f10x_cec.o
 .data          0x00000000        0x0 build\Libraries\STM32F10x_StdPeriph_Driver\src\stm32f10x_cec.o
 .bss           0x00000000        0x0 build\Libraries\STM32F10x_StdPeriph_Driver\src\stm32f10x_cec.o
 .text.CEC_DeInit
                0x00000000       0x1c build\Libraries\STM32F10x_StdPeriph_Driver\src\stm32f10x_cec.o
 .text.CEC_Init
                0x00000000       0x44 build\Libraries\STM32F10x_StdPeriph_Driver\src\stm32f10x_cec.o
 .text.CEC_Cmd  0x00000000       0x38 build\Libraries\STM32F10x_StdPeriph_Driver\src\stm32f10x_cec.o
 .text.CEC_ITConfig
                0x00000000       0x20 build\Libraries\STM32F10x_StdPeriph_Driver\src\stm32f10x_cec.o
 .text.CEC_OwnAddressConfig
                0x00000000       0x20 build\Libraries\STM32F10x_StdPeriph_Driver\src\stm32f10x_cec.o
 .text.CEC_SetPrescaler
                0x00000000       0x24 build\Libraries\STM32F10x_StdPeriph_Driver\src\stm32f10x_cec.o
 .text.CEC_SendDataByte
                0x00000000        0xc build\Libraries\STM32F10x_StdPeriph_Driver\src\stm32f10x_cec.o
 .text.CEC_ReceiveDataByte
                0x00000000       0x10 build\Libraries\STM32F10x_StdPeriph_Driver\src\stm32f10x_cec.o
 .text.CEC_StartOfMessage
                0x00000000       0x10 build\Libraries\STM32F10x_StdPeriph_Driver\src\stm32f10x_cec.o
 .text.CEC_EndOfMessageCmd
                0x00000000       0x24 build\Libraries\STM32F10x_StdPeriph_Driver\src\stm32f10x_cec.o
 .text.CEC_GetFlagStatus
                0x00000000       0xa8 build\Libraries\STM32F10x_StdPeriph_Driver\src\stm32f10x_cec.o
 .text.CEC_ClearFlag
                0x00000000       0x38 build\Libraries\STM32F10x_StdPeriph_Driver\src\stm32f10x_cec.o
 .text.CEC_GetITStatus
                0x00000000       0x38 build\Libraries\STM32F10x_StdPeriph_Driver\src\stm32f10x_cec.o
 .text.CEC_ClearITPendingBit
                0x00000000       0x40 build\Libraries\STM32F10x_StdPeriph_Driver\src\stm32f10x_cec.o
 .rodata.str1.4
                0x00000000       0x3c build\Libraries\STM32F10x_StdPeriph_Driver\src\stm32f10x_cec.o
 .comment       0x00000000       0x71 build\Libraries\STM32F10x_StdPeriph_Driver\src\stm32f10x_cec.o
 .ARM.attributes
                0x00000000       0x33 build\Libraries\STM32F10x_StdPeriph_Driver\src\stm32f10x_cec.o
 .text          0x00000000        0x0 build\Libraries\STM32F10x_StdPeriph_Driver\src\misc.o
 .data          0x00000000        0x0 build\Libraries\STM32F10x_StdPeriph_Driver\src\misc.o
 .bss           0x00000000        0x0 build\Libraries\STM32F10x_StdPeriph_Driver\src\misc.o
 .text.NVIC_SystemLPConfig
                0x00000000       0x50 build\Libraries\STM32F10x_StdPeriph_Driver\src\misc.o
 .text.SysTick_CLKSourceConfig
                0x00000000       0x3c build\Libraries\STM32F10x_StdPeriph_Driver\src\misc.o
 .text          0x00000000       0x14 build\Libraries\CMSIS\CM3\DeviceSupport\ST\STM32F10x\startup\gcc_ride7\startup_stm32f10x_md.o
 .data          0x00000000        0x0 build\Libraries\CMSIS\CM3\DeviceSupport\ST\STM32F10x\startup\gcc_ride7\startup_stm32f10x_md.o
 .bss           0x00000000        0x0 build\Libraries\CMSIS\CM3\DeviceSupport\ST\STM32F10x\startup\gcc_ride7\startup_stm32f10x_md.o
 .text          0x00000000        0x0 build\motor\src\adc.o
 .data          0x00000000        0x0 build\motor\src\adc.o
 .bss           0x00000000        0x0 build\motor\src\adc.o
 .text.delay_loop
                0x00000000       0x24 build\motor\src\adc.o
 .text.set_SW   0x00000000       0x20 build\motor\src\adc.o
 .text.status_init
                0x00000000       0x1c build\motor\src\adc.o
 .text          0x00000000        0x0 build\motor\src\cmd.o
 .data          0x00000000        0x0 build\motor\src\cmd.o
 .bss           0x00000000        0x0 build\motor\src\cmd.o
 .text          0x00000000        0x0 build\motor\src\counter.o
 .data          0x00000000        0x0 build\motor\src\counter.o
 .bss           0x00000000        0x0 build\motor\src\counter.o
 .text.tim2_init_
                0x00000000        0x4 build\motor\src\counter.o
 .text          0x00000000        0x0 build\motor\src\entry.o
 .data          0x00000000        0x0 build\motor\src\entry.o
 .bss           0x00000000        0x0 build\motor\src\entry.o
 .text          0x00000000        0x0 build\motor\src\flash.o
 .data          0x00000000        0x0 build\motor\src\flash.o
 .bss           0x00000000        0x0 build\motor\src\flash.o
 .text.FLASH_read
                0x00000000       0x50 build\motor\src\flash.o
 .text.FLASH_write
                0x00000000       0x84 build\motor\src\flash.o
 .text.FLASH_service
                0x00000000       0x38 build\motor\src\flash.o
 .rodata.str1.4
                0x00000000       0x94 build\motor\src\flash.o
 .data.Flash    0x00000000       0x48 build\motor\src\flash.o
 .comment       0x00000000       0x71 build\motor\src\flash.o
 .ARM.attributes
                0x00000000       0x33 build\motor\src\flash.o
 .text          0x00000000        0x0 build\motor\src\pwm.o
 .data          0x00000000        0x0 build\motor\src\pwm.o
 .bss           0x00000000        0x0 build\motor\src\pwm.o
 .text.exti_init
                0x00000000       0xa4 build\motor\src\pwm.o
 .text.pwm_init
                0x00000000        0x4 build\motor\src\pwm.o
 .text.pwm_init_
                0x00000000       0xe0 build\motor\src\pwm.o
 .text.pwm_setup_min
                0x00000000        0xc build\motor\src\pwm.o
 .text.pwm_set_auto_true
                0x00000000       0x10 build\motor\src\pwm.o
 .text.pwm_set_auto_false
                0x00000000       0x10 build\motor\src\pwm.o
 .text.motor_delay
                0x00000000       0x18 build\motor\src\pwm.o
 .text          0x00000000        0x0 build\motor\src\vout.o
 .data          0x00000000        0x0 build\motor\src\vout.o
 .bss           0x00000000        0x0 build\motor\src\vout.o
 .data.vout     0x00000000        0x8 build\motor\src\vout.o
 .text          0x00000000        0x0 build\motor\src\pga.o
 .data          0x00000000        0x0 build\motor\src\pga.o
 .bss           0x00000000        0x0 build\motor\src\pga.o
 .text.delay    0x00000000       0x28 build\motor\src\pga.o
 .text          0x00000000        0x0 build\motor\src\ds18b20.o
 .data          0x00000000        0x0 build\motor\src\ds18b20.o
 .bss           0x00000000        0x0 build\motor\src\ds18b20.o
 .text.RCC_ds18b20_setup_out
                0x00000000        0x8 build\motor\src\ds18b20.o
 .text.GPIO_ds18b20_setup_out
                0x00000000       0x2c build\motor\src\ds18b20.o
 .text.GPIO_ds18b20_setup_in
                0x00000000       0x2c build\motor\src\ds18b20.o
 .text.ds18b20_init
                0x00000000       0x10 build\motor\src\ds18b20.o
 .text.ds18b20_reset
                0x00000000       0x64 build\motor\src\ds18b20.o
 .text.read_bit
                0x00000000       0x4c build\motor\src\ds18b20.o
 .text.temp_read_byte
                0x00000000       0x68 build\motor\src\ds18b20.o
 .text.temp_write_byte
                0x00000000      0x248 build\motor\src\ds18b20.o
 .text.temp_trig
                0x00000000       0x24 build\motor\src\ds18b20.o
 .text.get_temp_
                0x00000000       0x28 build\motor\src\ds18b20.o
 .data.ds18b20  0x00000000        0x8 build\motor\src\ds18b20.o
 .comment       0x00000000       0x71 build\motor\src\ds18b20.o
 .ARM.attributes
                0x00000000       0x33 build\motor\src\ds18b20.o
 .text          0x00000000        0x0 build\usb_hid\src\entry.o
 .data          0x00000000        0x0 build\usb_hid\src\entry.o
 .bss           0x00000000        0x0 build\usb_hid\src\entry.o
 .text          0x00000000        0x0 build\usb_hid\src\hw_config.o
 .data          0x00000000        0x0 build\usb_hid\src\hw_config.o
 .bss           0x00000000        0x0 build\usb_hid\src\hw_config.o
 .text.Enter_LowPowerMode
                0x00000000       0x10 build\usb_hid\src\hw_config.o
 .text.Leave_LowPowerMode
                0x00000000       0x20 build\usb_hid\src\hw_config.o
 .text.EXTI_Configuration
                0x00000000        0x4 build\usb_hid\src\hw_config.o
 .text.ADC_Configuration
                0x00000000        0x4 build\usb_hid\src\hw_config.o
 .bss.ADC1ConvertedVoltage
                0x00000000        0x2 build\usb_hid\src\hw_config.o
 .bss.ADC_ConvertedValueX_1
                0x00000000        0x4 build\usb_hid\src\hw_config.o
 .bss.ADC1ConvertedValue
                0x00000000        0x2 build\usb_hid\src\hw_config.o
 .bss.calibration_value
                0x00000000        0x2 build\usb_hid\src\hw_config.o
 .bss.ADC_ConvertedValueX
                0x00000000        0x4 build\usb_hid\src\hw_config.o
 .text          0x00000000        0x0 build\usb_hid\src\stm3210b_eval.o
 .data          0x00000000        0x0 build\usb_hid\src\stm3210b_eval.o
 .bss           0x00000000        0x0 build\usb_hid\src\stm3210b_eval.o
 .text.STM_EVAL_LEDInit
                0x00000000        0x4 build\usb_hid\src\stm3210b_eval.o
 .text.STM_EVAL_LEDToggle
                0x00000000       0x20 build\usb_hid\src\stm3210b_eval.o
 .text.STM_EVAL_PBInit
                0x00000000        0x4 build\usb_hid\src\stm3210b_eval.o
 .text.STM_EVAL_PBGetState
                0x00000000       0x24 build\usb_hid\src\stm3210b_eval.o
 .text.STM_EVAL_COMInit
                0x00000000        0x4 build\usb_hid\src\stm3210b_eval.o
 .text.SD_LowLevel_DeInit
                0x00000000        0x4 build\usb_hid\src\stm3210b_eval.o
 .text.SD_LowLevel_Init
                0x00000000        0x4 build\usb_hid\src\stm3210b_eval.o
 .text.sFLASH_LowLevel_DeInit
                0x00000000        0x4 build\usb_hid\src\stm3210b_eval.o
 .text.sFLASH_LowLevel_Init
                0x00000000        0x4 build\usb_hid\src\stm3210b_eval.o
 .text.LM75_LowLevel_DeInit
                0x00000000        0x4 build\usb_hid\src\stm3210b_eval.o
 .text.LM75_LowLevel_Init
                0x00000000        0x4 build\usb_hid\src\stm3210b_eval.o
 .data.COM_TX_PORT
                0x00000000        0x8 build\usb_hid\src\stm3210b_eval.o
 .rodata.BUTTON_IRQn
                0x00000000       0x10 build\usb_hid\src\stm3210b_eval.o
 .rodata.BUTTON_PIN
                0x00000000       0x10 build\usb_hid\src\stm3210b_eval.o
 .data.COM_RX_PORT
                0x00000000        0x8 build\usb_hid\src\stm3210b_eval.o
 .rodata.GPIO_CLK
                0x00000000       0x10 build\usb_hid\src\stm3210b_eval.o
 .rodata.BUTTON_CLK
                0x00000000       0x20 build\usb_hid\src\stm3210b_eval.o
 .rodata.COM_RX_PORT_CLK
                0x00000000        0x8 build\usb_hid\src\stm3210b_eval.o
 .rodata.BUTTON_PORT_SOURCE
                0x00000000       0x10 build\usb_hid\src\stm3210b_eval.o
 .rodata.COM_RX_PIN
                0x00000000        0x4 build\usb_hid\src\stm3210b_eval.o
 .rodata.BUTTON_EXTI_LINE
                0x00000000       0x10 build\usb_hid\src\stm3210b_eval.o
 .data.BUTTON_PORT
                0x00000000       0x20 build\usb_hid\src\stm3210b_eval.o
 .rodata.COM_TX_PIN
                0x00000000        0x4 build\usb_hid\src\stm3210b_eval.o
 .rodata.COM_TX_PORT_CLK
                0x00000000        0x8 build\usb_hid\src\stm3210b_eval.o
 .rodata.BUTTON_PIN_SOURCE
                0x00000000       0x10 build\usb_hid\src\stm3210b_eval.o
 .rodata.COM_USART_CLK
                0x00000000        0x8 build\usb_hid\src\stm3210b_eval.o
 .data.COM_USART
                0x00000000        0x8 build\usb_hid\src\stm3210b_eval.o
 .text          0x00000000        0x0 build\usb_hid\src\stm32_it.o
 .data          0x00000000        0x0 build\usb_hid\src\stm32_it.o
 .bss           0x00000000        0x0 build\usb_hid\src\stm32_it.o
 .text.SysTick_Handler__
                0x00000000       0x10 build\usb_hid\src\stm32_it.o
 COMMON         0x00000000        0x2 build\usb_hid\src\stm32_it.o
 .text          0x00000000        0x0 build\usb_hid\src\usb_core.o
 .data          0x00000000        0x0 build\usb_hid\src\usb_core.o
 .bss           0x00000000        0x0 build\usb_hid\src\usb_core.o
 .text.Standard_SetDeviceFeature
                0x00000000       0x28 build\usb_hid\src\usb_core.o
 .text          0x00000000        0x0 build\usb_hid\src\usb_desc.o
 .data          0x00000000        0x0 build\usb_hid\src\usb_desc.o
 .bss           0x00000000        0x0 build\usb_hid\src\usb_desc.o
 .text          0x00000000        0x0 build\usb_hid\src\usb_endp.o
 .data          0x00000000        0x0 build\usb_hid\src\usb_endp.o
 .bss           0x00000000        0x0 build\usb_hid\src\usb_endp.o
 .text          0x00000000        0x0 build\usb_hid\src\usb_init.o
 .data          0x00000000        0x0 build\usb_hid\src\usb_init.o
 .bss           0x00000000        0x0 build\usb_hid\src\usb_init.o
 .text          0x00000000        0x0 build\usb_hid\src\usb_int.o
 .data          0x00000000        0x0 build\usb_hid\src\usb_int.o
 .bss           0x00000000        0x0 build\usb_hid\src\usb_int.o
 .text.CTR_HP   0x00000000       0x88 build\usb_hid\src\usb_int.o
 .text          0x00000000        0x0 build\usb_hid\src\usb_istr.o
 .data          0x00000000        0x0 build\usb_hid\src\usb_istr.o
 .bss           0x00000000        0x0 build\usb_hid\src\usb_istr.o
 .bss.wCNTR     0x00000000        0x4 build\usb_hid\src\usb_istr.o
 .bss.bIntPackSOF
                0x00000000        0x1 build\usb_hid\src\usb_istr.o
 .bss.esof_counter
                0x00000000        0x4 build\usb_hid\src\usb_istr.o
 .text          0x00000000        0x0 build\usb_hid\src\usb_mem.o
 .data          0x00000000        0x0 build\usb_hid\src\usb_mem.o
 .bss           0x00000000        0x0 build\usb_hid\src\usb_mem.o
 .text          0x00000000        0x0 build\usb_hid\src\usb_prop.o
 .data          0x00000000        0x0 build\usb_hid\src\usb_prop.o
 .bss           0x00000000        0x0 build\usb_hid\src\usb_prop.o
 .text.CustomHID_SetProtocol
                0x00000000       0x1c build\usb_hid\src\usb_prop.o
 .text          0x00000000        0x0 build\usb_hid\src\usb_pwr.o
 .data          0x00000000        0x0 build\usb_hid\src\usb_pwr.o
 .bss           0x00000000        0x0 build\usb_hid\src\usb_pwr.o
 .text.PowerOff
                0x00000000       0x28 build\usb_hid\src\usb_pwr.o
 .text.Suspend  0x00000000      0x1a4 build\usb_hid\src\usb_pwr.o
 .text.Resume_Init
                0x00000000       0x20 build\usb_hid\src\usb_pwr.o
 .text.Resume   0x00000000       0xb8 build\usb_hid\src\usb_pwr.o
 .data.fSuspendEnabled
                0x00000000        0x1 build\usb_hid\src\usb_pwr.o
 .bss.remotewakeupon
                0x00000000        0x4 build\usb_hid\src\usb_pwr.o
 COMMON         0x00000000       0x24 build\usb_hid\src\usb_pwr.o
 .text          0x00000000        0x0 build\usb_hid\src\usb_regs.o
 .data          0x00000000        0x0 build\usb_hid\src\usb_regs.o
 .bss           0x00000000        0x0 build\usb_hid\src\usb_regs.o
 .text.SetCNTR  0x00000000        0xc build\usb_hid\src\usb_regs.o
 .text.GetCNTR  0x00000000       0x10 build\usb_hid\src\usb_regs.o
 .text.SetISTR  0x00000000        0xc build\usb_hid\src\usb_regs.o
 .text.GetISTR  0x00000000       0x10 build\usb_hid\src\usb_regs.o
 .text.GetFNR   0x00000000       0x10 build\usb_hid\src\usb_regs.o
 .text.SetDADDR
                0x00000000        0xc build\usb_hid\src\usb_regs.o
 .text.GetDADDR
                0x00000000       0x10 build\usb_hid\src\usb_regs.o
 .text.GetBTABLE
                0x00000000       0x10 build\usb_hid\src\usb_regs.o
 .text.SetENDPOINT
                0x00000000       0x10 build\usb_hid\src\usb_regs.o
 .text.GetENDPOINT
                0x00000000       0x10 build\usb_hid\src\usb_regs.o
 .text.GetEPType
                0x00000000       0x14 build\usb_hid\src\usb_regs.o
 .text.SetDouBleBuffEPStall
                0x00000000       0x2c build\usb_hid\src\usb_regs.o
 .text.GetEPTxStatus
                0x00000000       0x14 build\usb_hid\src\usb_regs.o
 .text.GetEPRxStatus
                0x00000000       0x14 build\usb_hid\src\usb_regs.o
 .text.SetEP_KIND
                0x00000000       0x20 build\usb_hid\src\usb_regs.o
 .text.ClearEP_KIND
                0x00000000       0x20 build\usb_hid\src\usb_regs.o
 .text.Set_Status_Out
                0x00000000       0x20 build\usb_hid\src\usb_regs.o
 .text.SetEPDoubleBuff
                0x00000000       0x20 build\usb_hid\src\usb_regs.o
 .text.ClearEPDoubleBuff
                0x00000000       0x20 build\usb_hid\src\usb_regs.o
 .text.GetTxStallStatus
                0x00000000       0x1c build\usb_hid\src\usb_regs.o
 .text.GetRxStallStatus
                0x00000000       0x1c build\usb_hid\src\usb_regs.o
 .text.ClearEP_CTR_RX
                0x00000000       0x18 build\usb_hid\src\usb_regs.o
 .text.ClearEP_CTR_TX
                0x00000000       0x18 build\usb_hid\src\usb_regs.o
 .text.ToggleDTOG_RX
                0x00000000       0x20 build\usb_hid\src\usb_regs.o
 .text.ToggleDTOG_TX
                0x00000000       0x20 build\usb_hid\src\usb_regs.o
 .text.SetEPAddress
                0x00000000       0x20 build\usb_hid\src\usb_regs.o
 .text.GetEPAddress
                0x00000000       0x14 build\usb_hid\src\usb_regs.o
 .text.SetEPCountRxReg
                0x00000000       0x28 build\usb_hid\src\usb_regs.o
 .text.GetEPTxCount
                0x00000000       0x24 build\usb_hid\src\usb_regs.o
 .text.SetEPDblBuffAddr
                0x00000000       0x40 build\usb_hid\src\usb_regs.o
 .text.SetEPDblBuf0Addr
                0x00000000       0x24 build\usb_hid\src\usb_regs.o
 .text.SetEPDblBuf1Addr
                0x00000000       0x28 build\usb_hid\src\usb_regs.o
 .text.GetEPDblBuf0Addr
                0x00000000       0x20 build\usb_hid\src\usb_regs.o
 .text.GetEPDblBuf1Addr
                0x00000000       0x20 build\usb_hid\src\usb_regs.o
 .text.SetEPDblBuffCount
                0x00000000       0xc0 build\usb_hid\src\usb_regs.o
 .text.SetEPDblBuf0Count
                0x00000000       0x6c build\usb_hid\src\usb_regs.o
 .text.SetEPDblBuf1Count
                0x00000000       0x6c build\usb_hid\src\usb_regs.o
 .text.GetEPDblBuf0Count
                0x00000000       0x24 build\usb_hid\src\usb_regs.o
 .text.GetEPDblBuf1Count
                0x00000000       0x24 build\usb_hid\src\usb_regs.o
 .text.GetEPDblBufDir
                0x00000000       0x4c build\usb_hid\src\usb_regs.o
 .text.FreeUserBuffer
                0x00000000       0x48 build\usb_hid\src\usb_regs.o
 .text.ToWord   0x00000000        0x8 build\usb_hid\src\usb_regs.o
 .text          0x00000000        0x0 build\usb_hid\src\usb_sil.o
 .data          0x00000000        0x0 build\usb_hid\src\usb_sil.o
 .bss           0x00000000        0x0 build\usb_hid\src\usb_sil.o
 .text.USB_SIL_Write
                0x00000000       0x28 build\usb_hid\src\usb_sil.o
 .text          0x00000000        0x0 build\src\clock.o
 .data          0x00000000        0x0 build\src\clock.o
 .bss           0x00000000        0x0 build\src\clock.o
 .text.rt_system_tick_init
                0x00000000        0x4 build\src\clock.o
 .text.rt_tick_set
                0x00000000       0x1c build\src\clock.o
 .text.rt_tick_from_millisecond
                0x00000000       0x1c build\src\clock.o
 .text          0x00000000        0x0 build\src\device.o
 .data          0x00000000        0x0 build\src\device.o
 .bss           0x00000000        0x0 build\src\device.o
 .text.rt_device_unregister
                0x00000000       0x3c build\src\device.o
 .text.rt_device_init_all
                0x00000000       0x58 build\src\device.o
 .text.rt_device_init
                0x00000000       0x68 build\src\device.o
 .text.rt_device_read
                0x00000000       0x58 build\src\device.o
 .text.rt_device_control
                0x00000000       0x48 build\src\device.o
 .text.rt_device_set_rx_indicate
                0x00000000       0x3c build\src\device.o
 .text.rt_device_set_tx_complete
                0x00000000       0x3c build\src\device.o
 .rodata.__FUNCTION__.4687
                0x00000000       0x10 build\src\device.o
 .rodata.__FUNCTION__.4657
                0x00000000       0x10 build\src\device.o
 .rodata.__FUNCTION__.4708
                0x00000000       0x14 build\src\device.o
 .rodata.__FUNCTION__.4719
                0x00000000       0x1c build\src\device.o
 .rodata.__FUNCTION__.4730
                0x00000000       0x1c build\src\device.o
 .rodata.__FUNCTION__.4623
                0x00000000       0x18 build\src\device.o
 .text          0x00000000        0x0 build\src\idle.o
 .data          0x00000000        0x0 build\src\idle.o
 .bss           0x00000000        0x0 build\src\idle.o
 .text.rt_thread_idle_sethook
                0x00000000        0xc build\src\idle.o
 .text          0x00000000        0x0 build\src\ipc.o
 .data          0x00000000        0x0 build\src\ipc.o
 .bss           0x00000000        0x0 build\src\ipc.o
 .text.rt_sem_detach
                0x00000000       0x68 build\src\ipc.o
 .text.rt_sem_delete
                0x00000000       0xb4 build\src\ipc.o
 .text.rt_sem_trytake
                0x00000000        0x8 build\src\ipc.o
 .text.rt_sem_control
                0x00000000       0x8c build\src\ipc.o
 .rodata.__FUNCTION__.4739
                0x00000000       0x10 build\src\ipc.o
 .rodata.__FUNCTION__.4779
                0x00000000       0x10 build\src\ipc.o
 .rodata.__FUNCTION__.4719
                0x00000000       0x10 build\src\ipc.o
 .text          0x00000000        0x0 build\src\irq.o
 .data          0x00000000        0x0 build\src\irq.o
 .bss           0x00000000        0x0 build\src\irq.o
 .text          0x00000000        0x0 build\src\kservice.o
 .data          0x00000000        0x0 build\src\kservice.o
 .bss           0x00000000        0x0 build\src\kservice.o
 .text.rt_get_errno
                0x00000000       0x20 build\src\kservice.o
 .text._rt_errno
                0x00000000       0x1c build\src\kservice.o
 .text.rt_memcpy
                0x00000000      0x148 build\src\kservice.o
 .text.rt_memmove
                0x00000000       0x94 build\src\kservice.o
 .text.rt_memcmp
                0x00000000       0x44 build\src\kservice.o
 .text.rt_strstr
                0x00000000       0xa4 build\src\kservice.o
 .text.rt_strcasecmp
                0x00000000       0x34 build\src\kservice.o
 .text.rt_strcmp
                0x00000000       0x24 build\src\kservice.o
 .text.rt_strdup
                0x00000000       0x34 build\src\kservice.o
 .text.rt_snprintf
                0x00000000       0x20 build\src\kservice.o
 .text.rt_console_get_device
                0x00000000        0xc build\src\kservice.o
 .text.rt_malloc_align
                0x00000000       0x30 build\src\kservice.o
 .text.rt_free_align
                0x00000000        0x8 build\src\kservice.o
 .text          0x00000000        0x0 build\src\mem.o
 .data          0x00000000        0x0 build\src\mem.o
 .bss           0x00000000        0x0 build\src\mem.o
 .text.rt_malloc_sethook
                0x00000000        0xc build\src\mem.o
 .text.rt_free_sethook
                0x00000000        0xc build\src\mem.o
 .text.rt_calloc
                0x00000000       0x6c build\src\mem.o
 .text.rt_realloc
                0x00000000      0x144 build\src\mem.o
 .text.rt_memory_info
                0x00000000       0x28 build\src\mem.o
 .rodata.__FUNCTION__.4773
                0x00000000        0xc build\src\mem.o
 .rodata.__FUNCTION__.4784
                0x00000000        0xc build\src\mem.o
 .text          0x00000000        0x0 build\src\mempool.o
 .data          0x00000000        0x0 build\src\mempool.o
 .bss           0x00000000        0x0 build\src\mempool.o
 .text.rt_mp_alloc_sethook
                0x00000000        0xc build\src\mempool.o
 .text.rt_mp_free_sethook
                0x00000000        0xc build\src\mempool.o
 .text.rt_mp_init
                0x00000000       0xc4 build\src\mempool.o
 .text.rt_mp_detach
                0x00000000       0x6c build\src\mempool.o
 .text.rt_mp_create
                0x00000000      0x100 build\src\mempool.o
 .text.rt_mp_delete
                0x00000000       0xb8 build\src\mempool.o
 .text.rt_mp_alloc
                0x00000000       0xf4 build\src\mempool.o
 .text.rt_mp_free
                0x00000000       0x5c build\src\mempool.o
 .rodata.__FUNCTION__.4739
                0x00000000       0x10 build\src\mempool.o
 .rodata.__FUNCTION__.4696
                0x00000000        0xc build\src\mempool.o
 .bss.rt_mp_alloc_hook
                0x00000000        0x4 build\src\mempool.o
 .rodata.__FUNCTION__.4759
                0x00000000        0xc build\src\mempool.o
 .rodata.str1.4
                0x00000000       0x58 build\src\mempool.o
 .rodata.__FUNCTION__.4709
                0x00000000       0x10 build\src\mempool.o
 .rodata.__FUNCTION__.4725
                0x00000000       0x10 build\src\mempool.o
 .bss.rt_mp_free_hook
                0x00000000        0x4 build\src\mempool.o
 .comment       0x00000000       0x71 build\src\mempool.o
 .ARM.attributes
                0x00000000       0x33 build\src\mempool.o
 .text          0x00000000        0x0 build\src\object.o
 .data          0x00000000        0x0 build\src\object.o
 .bss           0x00000000        0x0 build\src\object.o
 .text.rt_object_attach_sethook
                0x00000000        0xc build\src\object.o
 .text.rt_object_detach_sethook
                0x00000000        0xc build\src\object.o
 .text.rt_object_trytake_sethook
                0x00000000        0xc build\src\object.o
 .text.rt_object_take_sethook
                0x00000000        0xc build\src\object.o
 .text.rt_object_put_sethook
                0x00000000        0xc build\src\object.o
 .text.rt_system_object_init
                0x00000000        0x4 build\src\object.o
 .text.rt_object_get_information
                0x00000000       0x10 build\src\object.o
 .text.rt_object_find
                0x00000000       0x90 build\src\object.o
 .rodata.__FUNCTION__.4766
                0x00000000       0x10 build\src\object.o
 .text          0x00000000        0x0 build\src\scheduler.o
 .data          0x00000000        0x0 build\src\scheduler.o
 .bss           0x00000000        0x0 build\src\scheduler.o
 .text.rt_scheduler_sethook
                0x00000000        0xc build\src\scheduler.o
 .text          0x00000000        0x0 build\src\thread.o
 .data          0x00000000        0x0 build\src\thread.o
 .bss           0x00000000        0x0 build\src\thread.o
 .text.rt_thread_detach
                0x00000000       0x70 build\src\thread.o
 .text.rt_thread_delete
                0x00000000       0x68 build\src\thread.o
 .text.rt_thread_control
                0x00000000       0x94 build\src\thread.o
 .text.rt_thread_find
                0x00000000       0x64 build\src\thread.o
 .rodata.__FUNCTION__.4754
                0x00000000       0x14 build\src\thread.o
 .rodata.__FUNCTION__.4783
                0x00000000       0x14 build\src\thread.o
 .rodata.__FUNCTION__.4734
                0x00000000       0x14 build\src\thread.o
 .text          0x00000000        0x0 build\src\timer.o
 .data          0x00000000        0x0 build\src\timer.o
 .bss           0x00000000        0x0 build\src\timer.o
 .text.rt_timer_timeout_sethook
                0x00000000        0xc build\src\timer.o
 .text.rt_timer_detach
                0x00000000       0x54 build\src\timer.o
 .text.rt_timer_create
                0x00000000       0x34 build\src\timer.o
 .text.rt_timer_delete
                0x00000000       0x54 build\src\timer.o
 .text.rt_timer_stop
                0x00000000       0x74 build\src\timer.o
 .text.rt_timer_next_timeout_tick
                0x00000000       0x14 build\src\timer.o
 .rodata.__FUNCTION__.4758
                0x00000000       0x10 build\src\timer.o
 .rodata.__FUNCTION__.4712
                0x00000000       0x10 build\src\timer.o
 .rodata.__FUNCTION__.4730
                0x00000000       0x10 build\src\timer.o
 .text          0x00000000        0x0 build\libcpu\arm\cortex-m3\cpuport.o
 .data          0x00000000        0x0 build\libcpu\arm\cortex-m3\cpuport.o
 .bss           0x00000000        0x0 build\libcpu\arm\cortex-m3\cpuport.o
 .text.rt_hw_exception_install
                0x00000000        0xc build\libcpu\arm\cortex-m3\cpuport.o
 .text.rt_hw_cpu_shutdown
                0x00000000       0x38 build\libcpu\arm\cortex-m3\cpuport.o
 .rodata.__FUNCTION__.4666
                0x00000000       0x14 build\libcpu\arm\cortex-m3\cpuport.o
 .data          0x00000000        0x0 build\libcpu\arm\cortex-m3\context_gcc.o
 .bss           0x00000000        0x0 build\libcpu\arm\cortex-m3\context_gcc.o
 .text          0x00000000        0x0 build\libcpu\arm\common\backtrace.o
 .data          0x00000000        0x0 build\libcpu\arm\common\backtrace.o
 .bss           0x00000000        0x0 build\libcpu\arm\common\backtrace.o
 .text.rt_hw_backtrace
                0x00000000      0x11c build\libcpu\arm\common\backtrace.o
 .rodata.str1.4
                0x00000000       0x1c build\libcpu\arm\common\backtrace.o
 .comment       0x00000000       0x71 build\libcpu\arm\common\backtrace.o
 .ARM.attributes
                0x00000000       0x33 build\libcpu\arm\common\backtrace.o
 .text          0x00000000        0x0 build\libcpu\arm\common\div0.o
 .data          0x00000000        0x0 build\libcpu\arm\common\div0.o
 .bss           0x00000000        0x0 build\libcpu\arm\common\div0.o
 .text.__div0   0x00000000        0x4 build\libcpu\arm\common\div0.o
 .comment       0x00000000       0x71 build\libcpu\arm\common\div0.o
 .ARM.attributes
                0x00000000       0x33 build\libcpu\arm\common\div0.o
 .text          0x00000000        0x0 build\libcpu\arm\common\showmem.o
 .data          0x00000000        0x0 build\libcpu\arm\common\showmem.o
 .bss           0x00000000        0x0 build\libcpu\arm\common\showmem.o
 .text.rt_hw_show_memory
                0x00000000      0x12c build\libcpu\arm\common\showmem.o
 .rodata.str1.4
                0x00000000       0x44 build\libcpu\arm\common\showmem.o
 .rodata.__FUNCTION__.4621
                0x00000000       0x14 build\libcpu\arm\common\showmem.o
 .comment       0x00000000       0x71 build\libcpu\arm\common\showmem.o
 .ARM.attributes
                0x00000000       0x33 build\libcpu\arm\common\showmem.o
 .text          0x00000000        0x0 build\components\drivers\serial\serial.o
 .data          0x00000000        0x0 build\components\drivers\serial\serial.o
 .bss           0x00000000        0x0 build\components\drivers\serial\serial.o
 .text.rt_hw_serial_dma_tx_isr
                0x00000000       0x38 build\components\drivers\serial\serial.o
 .text          0x00000000        0x0 build\components\drivers\src\completion.o
 .data          0x00000000        0x0 build\components\drivers\src\completion.o
 .bss           0x00000000        0x0 build\components\drivers\src\completion.o
 .text.rt_completion_init
                0x00000000       0x48 build\components\drivers\src\completion.o
 .text.rt_completion_wait
                0x00000000      0x114 build\components\drivers\src\completion.o
 .text.rt_completion_done
                0x00000000       0x64 build\components\drivers\src\completion.o
 .rodata.__FUNCTION__.4810
                0x00000000       0x14 build\components\drivers\src\completion.o
 .rodata.str1.4
                0x00000000       0x90 build\components\drivers\src\completion.o
 .rodata.__FUNCTION__.4841
                0x00000000       0x14 build\components\drivers\src\completion.o
 .rodata.__FUNCTION__.4822
                0x00000000       0x14 build\components\drivers\src\completion.o
 .comment       0x00000000       0x71 build\components\drivers\src\completion.o
 .ARM.attributes
                0x00000000       0x33 build\components\drivers\src\completion.o
 .text          0x00000000        0x0 build\components\drivers\src\dataqueue.o
 .data          0x00000000        0x0 build\components\drivers\src\dataqueue.o
 .bss           0x00000000        0x0 build\components\drivers\src\dataqueue.o
 .text.rt_data_queue_peak
                0x00000000       0x78 build\components\drivers\src\dataqueue.o
 .text.rt_data_queue_reset
                0x00000000       0x6c build\components\drivers\src\dataqueue.o
 .rodata.__FUNCTION__.4884
                0x00000000       0x14 build\components\drivers\src\dataqueue.o
 .text          0x00000000        0x0 build\components\drivers\src\pipe.o
 .data          0x00000000        0x0 build\components\drivers\src\pipe.o
 .bss           0x00000000        0x0 build\components\drivers\src\pipe.o
 .text.rt_pipe_control
                0x00000000        0x4 build\components\drivers\src\pipe.o
 .text.rt_pipe_write
                0x00000000      0x100 build\components\drivers\src\pipe.o
 .text.rt_pipe_read
                0x00000000       0xf0 build\components\drivers\src\pipe.o
 .text.rt_pipe_create
                0x00000000       0x84 build\components\drivers\src\pipe.o
 .text.rt_pipe_destroy
                0x00000000       0x1c build\components\drivers\src\pipe.o
 .rodata.__FUNCTION__.4816
                0x00000000       0x10 build\components\drivers\src\pipe.o
 .rodata.str1.4
                0x00000000       0x58 build\components\drivers\src\pipe.o
 .bss._pipe     0x00000000        0x4 build\components\drivers\src\pipe.o
 .rodata.__FUNCTION__.4839
                0x00000000       0x10 build\components\drivers\src\pipe.o
 .comment       0x00000000       0x71 build\components\drivers\src\pipe.o
 .ARM.attributes
                0x00000000       0x33 build\components\drivers\src\pipe.o
 .text          0x00000000        0x0 build\components\drivers\src\ringbuffer.o
 .data          0x00000000        0x0 build\components\drivers\src\ringbuffer.o
 .bss           0x00000000        0x0 build\components\drivers\src\ringbuffer.o
 .text.rt_ringbuffer_init
                0x00000000       0x44 build\components\drivers\src\ringbuffer.o
 .text.rt_ringbuffer_put
                0x00000000       0x8c build\components\drivers\src\ringbuffer.o
 .text.rt_ringbuffer_putchar
                0x00000000       0x58 build\components\drivers\src\ringbuffer.o
 .text.rt_ringbuffer_get
                0x00000000       0x8c build\components\drivers\src\ringbuffer.o
 .text.rt_ringbuffer_getchar
                0x00000000       0x54 build\components\drivers\src\ringbuffer.o
 .rodata.__FUNCTION__.4847
                0x00000000       0x14 build\components\drivers\src\ringbuffer.o
 .rodata.__FUNCTION__.4860
                0x00000000       0x14 build\components\drivers\src\ringbuffer.o
 .rodata.__FUNCTION__.4870
                0x00000000       0x18 build\components\drivers\src\ringbuffer.o
 .rodata.str1.4
                0x00000000       0x30 build\components\drivers\src\ringbuffer.o
 .rodata.__FUNCTION__.4893
                0x00000000       0x18 build\components\drivers\src\ringbuffer.o
 .rodata.__FUNCTION__.4883
                0x00000000       0x14 build\components\drivers\src\ringbuffer.o
 .comment       0x00000000       0x71 build\components\drivers\src\ringbuffer.o
 .ARM.attributes
                0x00000000       0x33 build\components\drivers\src\ringbuffer.o
 .text          0x00000000        0x0 build\components\libc\minilibc\ctype.o
 .data          0x00000000        0x0 build\components\libc\minilibc\ctype.o
 .bss           0x00000000        0x0 build\components\libc\minilibc\ctype.o
 .text.isprint  0x00000000       0x10 build\components\libc\minilibc\ctype.o
 .text.isalpha  0x00000000       0x10 build\components\libc\minilibc\ctype.o
 .text.isdigit  0x00000000        0xc build\components\libc\minilibc\ctype.o
 .text.isspace  0x00000000       0x20 build\components\libc\minilibc\ctype.o
 .comment       0x00000000       0x71 build\components\libc\minilibc\ctype.o
 .ARM.attributes
                0x00000000       0x33 build\components\libc\minilibc\ctype.o
 .text          0x00000000        0x0 build\components\libc\minilibc\math.o
 .data          0x00000000        0x0 build\components\libc\minilibc\math.o
 .bss           0x00000000        0x0 build\components\libc\minilibc\math.o
 .text.sin      0x00000000      0x178 build\components\libc\minilibc\math.o
 .text.cos      0x00000000      0x170 build\components\libc\minilibc\math.o
 .rodata.cos_off_tbl
                0x00000000       0x20 build\components\libc\minilibc\math.o
 .rodata.cos_sign_tbl
                0x00000000       0x20 build\components\libc\minilibc\math.o
 .rodata.sin_off_tbl
                0x00000000       0x20 build\components\libc\minilibc\math.o
 .rodata.sin_sign_tbl
                0x00000000       0x20 build\components\libc\minilibc\math.o
 .comment       0x00000000       0x71 build\components\libc\minilibc\math.o
 .ARM.attributes
                0x00000000       0x33 build\components\libc\minilibc\math.o
 .text          0x00000000        0x0 build\components\libc\minilibc\qsort.o
 .data          0x00000000        0x0 build\components\libc\minilibc\qsort.o
 .bss           0x00000000        0x0 build\components\libc\minilibc\qsort.o
 .text.quicksort
                0x00000000      0x418 build\components\libc\minilibc\qsort.o
 .text.qsort    0x00000000       0x2c build\components\libc\minilibc\qsort.o
 .comment       0x00000000       0x71 build\components\libc\minilibc\qsort.o
 .ARM.attributes
                0x00000000       0x33 build\components\libc\minilibc\qsort.o
 .text          0x00000000        0x0 build\components\libc\minilibc\rand.o
 .data          0x00000000        0x0 build\components\libc\minilibc\rand.o
 .bss           0x00000000        0x0 build\components\libc\minilibc\rand.o
 .text.rand_r   0x00000000       0x44 build\components\libc\minilibc\rand.o
 .text.rand     0x00000000       0x48 build\components\libc\minilibc\rand.o
 .text.srand    0x00000000        0xc build\components\libc\minilibc\rand.o
 .data._seed    0x00000000        0x4 build\components\libc\minilibc\rand.o
 .comment       0x00000000       0x71 build\components\libc\minilibc\rand.o
 .ARM.attributes
                0x00000000       0x33 build\components\libc\minilibc\rand.o
 .text          0x00000000        0x0 build\components\libc\minilibc\stdlib.o
 .data          0x00000000        0x0 build\components\libc\minilibc\stdlib.o
 .bss           0x00000000        0x0 build\components\libc\minilibc\stdlib.o
 .text.atol     0x00000000       0x58 build\components\libc\minilibc\stdlib.o
 .text.malloc   0x00000000        0x4 build\components\libc\minilibc\stdlib.o
 .text.free     0x00000000        0x4 build\components\libc\minilibc\stdlib.o
 .text.realloc  0x00000000        0x4 build\components\libc\minilibc\stdlib.o
 .text.calloc   0x00000000        0x4 build\components\libc\minilibc\stdlib.o
 .text          0x00000000        0x0 build\components\libc\minilibc\string.o
 .data          0x00000000        0x0 build\components\libc\minilibc\string.o
 .bss           0x00000000        0x0 build\components\libc\minilibc\string.o
 .text.strcpy   0x00000000       0x1c build\components\libc\minilibc\string.o
 .text.strlcpy  0x00000000       0x84 build\components\libc\minilibc\string.o
 .text.strcat   0x00000000       0x28 build\components\libc\minilibc\string.o
 .text.strncat  0x00000000       0x5c build\components\libc\minilibc\string.o
 .text.strrchr  0x00000000       0x1c build\components\libc\minilibc\string.o
 .text.strncasecmp
                0x00000000       0xb0 build\components\libc\minilibc\string.o
 .text.tolower  0x00000000       0x14 build\components\libc\minilibc\string.o
 .text.toupper  0x00000000       0x18 build\components\libc\minilibc\string.o
 .text.simple_strtoul
                0x00000000      0x100 build\components\libc\minilibc\string.o
 .text.simple_strtol
                0x00000000       0x1c build\components\libc\minilibc\string.o
 .text.simple_strtoull
                0x00000000      0x108 build\components\libc\minilibc\string.o
 .text.simple_strtoll
                0x00000000       0x24 build\components\libc\minilibc\string.o
 .text.vsscanf  0x00000000      0x4b4 build\components\libc\minilibc\string.o
 .text.sscanf   0x00000000       0x20 build\components\libc\minilibc\string.o
 .text.strspn   0x00000000       0x68 build\components\libc\minilibc\string.o
 .text.strcspn  0x00000000       0x70 build\components\libc\minilibc\string.o
 .text.strtok_r
                0x00000000       0x44 build\components\libc\minilibc\string.o
 .text.strtok   0x00000000        0xc build\components\libc\minilibc\string.o
 .data._ctype   0x00000000      0x100 build\components\libc\minilibc\string.o
 .bss.strtok_pos.4959
                0x00000000        0x4 build\components\libc\minilibc\string.o
 .text          0x00000000        0x0 build\components\libc\minilibc\time.o
 .data          0x00000000        0x0 build\components\libc\minilibc\time.o
 .bss           0x00000000        0x0 build\components\libc\minilibc\time.o
 .text.__isleap
                0x00000000       0x38 build\components\libc\minilibc\time.o
 .text.gmtime_r
                0x00000000      0x1a0 build\components\libc\minilibc\time.o
 .text.mktime   0x00000000      0x2f4 build\components\libc\minilibc\time.o
 .text.asctime_r
                0x00000000      0x118 build\components\libc\minilibc\time.o
 .text.asctime  0x00000000        0xc build\components\libc\minilibc\time.o
 .text.gettimeofday
                0x00000000       0x28 build\components\libc\minilibc\time.o
 .text.localtime_r
                0x00000000       0x3c build\components\libc\minilibc\time.o
 .text.localtime
                0x00000000        0xc build\components\libc\minilibc\time.o
 .text.ctime    0x00000000       0x10 build\components\libc\minilibc\time.o
 .bss.timezone  0x00000000        0x4 build\components\libc\minilibc\time.o
 .bss.tmp.4676  0x00000000       0x2c build\components\libc\minilibc\time.o
 .rodata.months
                0x00000000       0x34 build\components\libc\minilibc\time.o
 .rodata.__spm  0x00000000       0x1c build\components\libc\minilibc\time.o
 .rodata.days   0x00000000       0x20 build\components\libc\minilibc\time.o
 .rodata.str1.4
                0x00000000        0x4 build\components\libc\minilibc\time.o
 .bss.buf.4697  0x00000000       0x1c build\components\libc\minilibc\time.o
 .comment       0x00000000       0x71 build\components\libc\minilibc\time.o
 .ARM.attributes
                0x00000000       0x33 build\components\libc\minilibc\time.o
 .text          0x00000000      0x370 c:/gcc-arm/bin/../lib/gcc/arm-none-eabi/4.7.3/armv7-m\libgcc.a(_arm_addsubdf3.o)
 .data          0x00000000        0x0 c:/gcc-arm/bin/../lib/gcc/arm-none-eabi/4.7.3/armv7-m\libgcc.a(_arm_addsubdf3.o)
 .bss           0x00000000        0x0 c:/gcc-arm/bin/../lib/gcc/arm-none-eabi/4.7.3/armv7-m\libgcc.a(_arm_addsubdf3.o)
 .ARM.attributes
                0x00000000       0x1d c:/gcc-arm/bin/../lib/gcc/arm-none-eabi/4.7.3/armv7-m\libgcc.a(_arm_addsubdf3.o)
 .text          0x00000000      0x424 c:/gcc-arm/bin/../lib/gcc/arm-none-eabi/4.7.3/armv7-m\libgcc.a(_arm_muldivdf3.o)
 .data          0x00000000        0x0 c:/gcc-arm/bin/../lib/gcc/arm-none-eabi/4.7.3/armv7-m\libgcc.a(_arm_muldivdf3.o)
 .bss           0x00000000        0x0 c:/gcc-arm/bin/../lib/gcc/arm-none-eabi/4.7.3/armv7-m\libgcc.a(_arm_muldivdf3.o)
 .ARM.attributes
                0x00000000       0x1d c:/gcc-arm/bin/../lib/gcc/arm-none-eabi/4.7.3/armv7-m\libgcc.a(_arm_muldivdf3.o)
 .text          0x00000000       0x50 c:/gcc-arm/bin/../lib/gcc/arm-none-eabi/4.7.3/armv7-m\libgcc.a(_arm_fixdfsi.o)
 .data          0x00000000        0x0 c:/gcc-arm/bin/../lib/gcc/arm-none-eabi/4.7.3/armv7-m\libgcc.a(_arm_fixdfsi.o)
 .bss           0x00000000        0x0 c:/gcc-arm/bin/../lib/gcc/arm-none-eabi/4.7.3/armv7-m\libgcc.a(_arm_fixdfsi.o)
 .ARM.attributes
                0x00000000       0x1d c:/gcc-arm/bin/../lib/gcc/arm-none-eabi/4.7.3/armv7-m\libgcc.a(_arm_fixdfsi.o)
 .text          0x00000000        0x0 c:/gcc-arm/bin/../lib/gcc/arm-none-eabi/4.7.3/../../../../arm-none-eabi/lib/armv7-m\libc.a(lib_a-__atexit.o)
 .data          0x00000000        0x0 c:/gcc-arm/bin/../lib/gcc/arm-none-eabi/4.7.3/../../../../arm-none-eabi/lib/armv7-m\libc.a(lib_a-__atexit.o)
 .bss           0x00000000        0x0 c:/gcc-arm/bin/../lib/gcc/arm-none-eabi/4.7.3/../../../../arm-none-eabi/lib/armv7-m\libc.a(lib_a-__atexit.o)
 .text.__register_exitproc
                0x00000000       0xac c:/gcc-arm/bin/../lib/gcc/arm-none-eabi/4.7.3/../../../../arm-none-eabi/lib/armv7-m\libc.a(lib_a-__atexit.o)
 .ARM.attributes
                0x00000000       0x2d c:/gcc-arm/bin/../lib/gcc/arm-none-eabi/4.7.3/../../../../arm-none-eabi/lib/armv7-m\libc.a(lib_a-__atexit.o)
 .debug_frame   0x00000000       0x34 c:/gcc-arm/bin/../lib/gcc/arm-none-eabi/4.7.3/../../../../arm-none-eabi/lib/armv7-m\libc.a(lib_a-__atexit.o)
 .text          0x00000000        0x0 c:/gcc-arm/bin/../lib/gcc/arm-none-eabi/4.7.3/../../../../arm-none-eabi/lib/armv7-m\libc.a(lib_a-exit.o)
 .data          0x00000000        0x0 c:/gcc-arm/bin/../lib/gcc/arm-none-eabi/4.7.3/../../../../arm-none-eabi/lib/armv7-m\libc.a(lib_a-exit.o)
 .bss           0x00000000        0x0 c:/gcc-arm/bin/../lib/gcc/arm-none-eabi/4.7.3/../../../../arm-none-eabi/lib/armv7-m\libc.a(lib_a-exit.o)
 .text.exit     0x00000000       0x20 c:/gcc-arm/bin/../lib/gcc/arm-none-eabi/4.7.3/../../../../arm-none-eabi/lib/armv7-m\libc.a(lib_a-exit.o)
 .ARM.attributes
                0x00000000       0x2d c:/gcc-arm/bin/../lib/gcc/arm-none-eabi/4.7.3/../../../../arm-none-eabi/lib/armv7-m\libc.a(lib_a-exit.o)
 .debug_frame   0x00000000       0x28 c:/gcc-arm/bin/../lib/gcc/arm-none-eabi/4.7.3/../../../../arm-none-eabi/lib/armv7-m\libc.a(lib_a-exit.o)
 .text          0x00000000        0x0 c:/gcc-arm/bin/../lib/gcc/arm-none-eabi/4.7.3/../../../../arm-none-eabi/lib/armv7-m\libc.a(lib_a-fini.o)
 .data          0x00000000        0x0 c:/gcc-arm/bin/../lib/gcc/arm-none-eabi/4.7.3/../../../../arm-none-eabi/lib/armv7-m\libc.a(lib_a-fini.o)
 .bss           0x00000000        0x0 c:/gcc-arm/bin/../lib/gcc/arm-none-eabi/4.7.3/../../../../arm-none-eabi/lib/armv7-m\libc.a(lib_a-fini.o)
 .text.__libc_fini_array
                0x00000000       0x50 c:/gcc-arm/bin/../lib/gcc/arm-none-eabi/4.7.3/../../../../arm-none-eabi/lib/armv7-m\libc.a(lib_a-fini.o)
 .ARM.attributes
                0x00000000       0x2d c:/gcc-arm/bin/../lib/gcc/arm-none-eabi/4.7.3/../../../../arm-none-eabi/lib/armv7-m\libc.a(lib_a-fini.o)
 .debug_frame   0x00000000       0x2c c:/gcc-arm/bin/../lib/gcc/arm-none-eabi/4.7.3/../../../../arm-none-eabi/lib/armv7-m\libc.a(lib_a-fini.o)
 .text          0x00000000        0x0 c:/gcc-arm/bin/../lib/gcc/arm-none-eabi/4.7.3/../../../../arm-none-eabi/lib/armv7-m\libc.a(lib_a-impure.o)
 .data          0x00000000        0x0 c:/gcc-arm/bin/../lib/gcc/arm-none-eabi/4.7.3/../../../../arm-none-eabi/lib/armv7-m\libc.a(lib_a-impure.o)
 .bss           0x00000000        0x0 c:/gcc-arm/bin/../lib/gcc/arm-none-eabi/4.7.3/../../../../arm-none-eabi/lib/armv7-m\libc.a(lib_a-impure.o)
 .data.impure_data
                0x00000000      0x428 c:/gcc-arm/bin/../lib/gcc/arm-none-eabi/4.7.3/../../../../arm-none-eabi/lib/armv7-m\libc.a(lib_a-impure.o)
 .data._impure_ptr
                0x00000000        0x4 c:/gcc-arm/bin/../lib/gcc/arm-none-eabi/4.7.3/../../../../arm-none-eabi/lib/armv7-m\libc.a(lib_a-impure.o)
 .rodata.str1.4
                0x00000000        0x4 c:/gcc-arm/bin/../lib/gcc/arm-none-eabi/4.7.3/../../../../arm-none-eabi/lib/armv7-m\libc.a(lib_a-impure.o)
 .rodata._global_impure_ptr
                0x00000000        0x4 c:/gcc-arm/bin/../lib/gcc/arm-none-eabi/4.7.3/../../../../arm-none-eabi/lib/armv7-m\libc.a(lib_a-impure.o)
 .ARM.attributes
                0x00000000       0x2d c:/gcc-arm/bin/../lib/gcc/arm-none-eabi/4.7.3/../../../../arm-none-eabi/lib/armv7-m\libc.a(lib_a-impure.o)
 .text          0x00000000        0x0 c:/gcc-arm/bin/../lib/gcc/arm-none-eabi/4.7.3/../../../../arm-none-eabi/lib/armv7-m\libc.a(lib_a-init.o)
 .data          0x00000000        0x0 c:/gcc-arm/bin/../lib/gcc/arm-none-eabi/4.7.3/../../../../arm-none-eabi/lib/armv7-m\libc.a(lib_a-init.o)
 .bss           0x00000000        0x0 c:/gcc-arm/bin/../lib/gcc/arm-none-eabi/4.7.3/../../../../arm-none-eabi/lib/armv7-m\libc.a(lib_a-init.o)
 .text.__libc_init_array
                0x00000000       0x94 c:/gcc-arm/bin/../lib/gcc/arm-none-eabi/4.7.3/../../../../arm-none-eabi/lib/armv7-m\libc.a(lib_a-init.o)
 .ARM.attributes
                0x00000000       0x2d c:/gcc-arm/bin/../lib/gcc/arm-none-eabi/4.7.3/../../../../arm-none-eabi/lib/armv7-m\libc.a(lib_a-init.o)
 .debug_frame   0x00000000       0x30 c:/gcc-arm/bin/../lib/gcc/arm-none-eabi/4.7.3/../../../../arm-none-eabi/lib/armv7-m\libc.a(lib_a-init.o)
 .text          0x00000000        0x0 c:/gcc-arm/bin/../lib/gcc/arm-none-eabi/4.7.3/../../../../arm-none-eabi/lib/armv7-m\libc.a(lib_a-__call_atexit.o)
 .data          0x00000000        0x0 c:/gcc-arm/bin/../lib/gcc/arm-none-eabi/4.7.3/../../../../arm-none-eabi/lib/armv7-m\libc.a(lib_a-__call_atexit.o)
 .bss           0x00000000        0x0 c:/gcc-arm/bin/../lib/gcc/arm-none-eabi/4.7.3/../../../../arm-none-eabi/lib/armv7-m\libc.a(lib_a-__call_atexit.o)
 .text.startup.register_fini
                0x00000000       0x14 c:/gcc-arm/bin/../lib/gcc/arm-none-eabi/4.7.3/../../../../arm-none-eabi/lib/armv7-m\libc.a(lib_a-__call_atexit.o)
 .init_array.00000
                0x00000000        0x4 c:/gcc-arm/bin/../lib/gcc/arm-none-eabi/4.7.3/../../../../arm-none-eabi/lib/armv7-m\libc.a(lib_a-__call_atexit.o)
 .text.__call_exitprocs
                0x00000000      0x288 c:/gcc-arm/bin/../lib/gcc/arm-none-eabi/4.7.3/../../../../arm-none-eabi/lib/armv7-m\libc.a(lib_a-__call_atexit.o)
 .ARM.attributes
                0x00000000       0x2d c:/gcc-arm/bin/../lib/gcc/arm-none-eabi/4.7.3/../../../../arm-none-eabi/lib/armv7-m\libc.a(lib_a-__call_atexit.o)
 .debug_frame   0x00000000       0x48 c:/gcc-arm/bin/../lib/gcc/arm-none-eabi/4.7.3/../../../../arm-none-eabi/lib/armv7-m\libc.a(lib_a-__call_atexit.o)
 .text          0x00000000        0x0 c:/gcc-arm/bin/../lib/gcc/arm-none-eabi/4.7.3/../../../../arm-none-eabi/lib/armv7-m\libc.a(lib_a-atexit.o)
 .data          0x00000000        0x0 c:/gcc-arm/bin/../lib/gcc/arm-none-eabi/4.7.3/../../../../arm-none-eabi/lib/armv7-m\libc.a(lib_a-atexit.o)
 .bss           0x00000000        0x0 c:/gcc-arm/bin/../lib/gcc/arm-none-eabi/4.7.3/../../../../arm-none-eabi/lib/armv7-m\libc.a(lib_a-atexit.o)
 .text.atexit   0x00000000        0xc c:/gcc-arm/bin/../lib/gcc/arm-none-eabi/4.7.3/../../../../arm-none-eabi/lib/armv7-m\libc.a(lib_a-atexit.o)
 .ARM.attributes
                0x00000000       0x2d c:/gcc-arm/bin/../lib/gcc/arm-none-eabi/4.7.3/../../../../arm-none-eabi/lib/armv7-m\libc.a(lib_a-atexit.o)
 .debug_frame   0x00000000       0x20 c:/gcc-arm/bin/../lib/gcc/arm-none-eabi/4.7.3/../../../../arm-none-eabi/lib/armv7-m\libc.a(lib_a-atexit.o)
 .text          0x00000000        0x0 c:/gcc-arm/bin/../lib/gcc/arm-none-eabi/4.7.3/armv7-m/crtend.o
 .data          0x00000000        0x0 c:/gcc-arm/bin/../lib/gcc/arm-none-eabi/4.7.3/armv7-m/crtend.o
 .bss           0x00000000        0x0 c:/gcc-arm/bin/../lib/gcc/arm-none-eabi/4.7.3/armv7-m/crtend.o
 .eh_frame      0x00000000        0x4 c:/gcc-arm/bin/../lib/gcc/arm-none-eabi/4.7.3/armv7-m/crtend.o
 .jcr           0x00000000        0x4 c:/gcc-arm/bin/../lib/gcc/arm-none-eabi/4.7.3/armv7-m/crtend.o
 .ARM.attributes
                0x00000000       0x2d c:/gcc-arm/bin/../lib/gcc/arm-none-eabi/4.7.3/armv7-m/crtend.o
 .text          0x00000000        0x0 c:/gcc-arm/bin/../lib/gcc/arm-none-eabi/4.7.3/armv7-m/crtn.o
 .data          0x00000000        0x0 c:/gcc-arm/bin/../lib/gcc/arm-none-eabi/4.7.3/armv7-m/crtn.o
 .bss           0x00000000        0x0 c:/gcc-arm/bin/../lib/gcc/arm-none-eabi/4.7.3/armv7-m/crtn.o
 .init          0x00000000        0x8 c:/gcc-arm/bin/../lib/gcc/arm-none-eabi/4.7.3/armv7-m/crtn.o
 .fini          0x00000000        0x8 c:/gcc-arm/bin/../lib/gcc/arm-none-eabi/4.7.3/armv7-m/crtn.o
 .ARM.attributes
                0x00000000       0x1d c:/gcc-arm/bin/../lib/gcc/arm-none-eabi/4.7.3/armv7-m/crtn.o

Memory Configuration

Name             Origin             Length             Attributes
CODE             0x08000000         0x00010000         xr
DATA             0x20000000         0x00005000         rw
*default*        0x00000000         0xffffffff

Linker script and memory map

LOAD c:/gcc-arm/bin/../lib/gcc/arm-none-eabi/4.7.3/armv7-m/crti.o
LOAD c:/gcc-arm/bin/../lib/gcc/arm-none-eabi/4.7.3/armv7-m/crtbegin.o
LOAD c:/gcc-arm/bin/../lib/gcc/arm-none-eabi/4.7.3/../../../../arm-none-eabi/lib/armv7-m/crt0.o
LOAD build\applications\application.o
LOAD build\applications\startup.o
LOAD build\drivers\board.o
LOAD build\drivers\stm32f10x_it.o
LOAD build\drivers\led.o
LOAD build\drivers\usart.o
LOAD build\Libraries\CMSIS\CM3\DeviceSupport\ST\STM32F10x\system_stm32f10x.o
LOAD build\Libraries\STM32F10x_StdPeriph_Driver\src\stm32f10x_crc.o
LOAD build\Libraries\STM32F10x_StdPeriph_Driver\src\stm32f10x_rcc.o
LOAD build\Libraries\STM32F10x_StdPeriph_Driver\src\stm32f10x_wwdg.o
LOAD build\Libraries\STM32F10x_StdPeriph_Driver\src\stm32f10x_pwr.o
LOAD build\Libraries\STM32F10x_StdPeriph_Driver\src\stm32f10x_exti.o
LOAD build\Libraries\STM32F10x_StdPeriph_Driver\src\stm32f10x_bkp.o
LOAD build\Libraries\STM32F10x_StdPeriph_Driver\src\stm32f10x_i2c.o
LOAD build\Libraries\STM32F10x_StdPeriph_Driver\src\stm32f10x_adc.o
LOAD build\Libraries\STM32F10x_StdPeriph_Driver\src\stm32f10x_dac.o
LOAD build\Libraries\STM32F10x_StdPeriph_Driver\src\stm32f10x_rtc.o
LOAD build\Libraries\STM32F10x_StdPeriph_Driver\src\stm32f10x_fsmc.o
LOAD build\Libraries\STM32F10x_StdPeriph_Driver\src\stm32f10x_tim.o
LOAD build\Libraries\STM32F10x_StdPeriph_Driver\src\stm32f10x_iwdg.o
LOAD build\Libraries\STM32F10x_StdPeriph_Driver\src\stm32f10x_spi.o
LOAD build\Libraries\STM32F10x_StdPeriph_Driver\src\stm32f10x_flash.o
LOAD build\Libraries\STM32F10x_StdPeriph_Driver\src\stm32f10x_sdio.o
LOAD build\Libraries\STM32F10x_StdPeriph_Driver\src\stm32f10x_gpio.o
LOAD build\Libraries\STM32F10x_StdPeriph_Driver\src\stm32f10x_usart.o
LOAD build\Libraries\STM32F10x_StdPeriph_Driver\src\stm32f10x_dbgmcu.o
LOAD build\Libraries\STM32F10x_StdPeriph_Driver\src\stm32f10x_dma.o
LOAD build\Libraries\STM32F10x_StdPeriph_Driver\src\stm32f10x_can.o
LOAD build\Libraries\STM32F10x_StdPeriph_Driver\src\stm32f10x_cec.o
LOAD build\Libraries\STM32F10x_StdPeriph_Driver\src\misc.o
LOAD build\Libraries\CMSIS\CM3\DeviceSupport\ST\STM32F10x\startup\gcc_ride7\startup_stm32f10x_md.o
LOAD build\motor\src\adc.o
LOAD build\motor\src\cmd.o
LOAD build\motor\src\counter.o
LOAD build\motor\src\entry.o
LOAD build\motor\src\flash.o
LOAD build\motor\src\pwm.o
LOAD build\motor\src\vout.o
LOAD build\motor\src\pga.o
LOAD build\motor\src\ds18b20.o
LOAD build\usb_hid\src\entry.o
LOAD build\usb_hid\src\hw_config.o
LOAD build\usb_hid\src\stm3210b_eval.o
LOAD build\usb_hid\src\stm32_it.o
LOAD build\usb_hid\src\usb_core.o
LOAD build\usb_hid\src\usb_desc.o
LOAD build\usb_hid\src\usb_endp.o
LOAD build\usb_hid\src\usb_init.o
LOAD build\usb_hid\src\usb_int.o
LOAD build\usb_hid\src\usb_istr.o
LOAD build\usb_hid\src\usb_mem.o
LOAD build\usb_hid\src\usb_prop.o
LOAD build\usb_hid\src\usb_pwr.o
LOAD build\usb_hid\src\usb_regs.o
LOAD build\usb_hid\src\usb_sil.o
LOAD build\src\clock.o
LOAD build\src\device.o
LOAD build\src\idle.o
LOAD build\src\ipc.o
LOAD build\src\irq.o
LOAD build\src\kservice.o
LOAD build\src\mem.o
LOAD build\src\mempool.o
LOAD build\src\object.o
LOAD build\src\scheduler.o
LOAD build\src\thread.o
LOAD build\src\timer.o
LOAD build\libcpu\arm\cortex-m3\cpuport.o
LOAD build\libcpu\arm\cortex-m3\context_gcc.o
LOAD build\libcpu\arm\common\backtrace.o
LOAD build\libcpu\arm\common\div0.o
LOAD build\libcpu\arm\common\showmem.o
LOAD build\components\drivers\serial\serial.o
LOAD build\components\drivers\src\completion.o
LOAD build\components\drivers\src\dataqueue.o
LOAD build\components\drivers\src\pipe.o
LOAD build\components\drivers\src\ringbuffer.o
LOAD build\components\libc\minilibc\ctype.o
LOAD build\components\libc\minilibc\math.o
LOAD build\components\libc\minilibc\qsort.o
LOAD build\components\libc\minilibc\rand.o
LOAD build\components\libc\minilibc\stdlib.o
LOAD build\components\libc\minilibc\string.o
LOAD build\components\libc\minilibc\time.o
START GROUP
LOAD c:/gcc-arm/bin/../lib/gcc/arm-none-eabi/4.7.3/armv7-m\libgcc.a
LOAD c:/gcc-arm/bin/../lib/gcc/arm-none-eabi/4.7.3/../../../../arm-none-eabi/lib/armv7-m\libc.a
END GROUP
LOAD c:/gcc-arm/bin/../lib/gcc/arm-none-eabi/4.7.3/armv7-m/crtend.o
LOAD c:/gcc-arm/bin/../lib/gcc/arm-none-eabi/4.7.3/armv7-m/crtn.o
                0x00000400                _system_stack_size = 0x400

.text           0x08000000     0xa128
                0x08000000                . = ALIGN (0x4)
                0x08000000                _stext = .
 *(.isr_vector)
 .isr_vector    0x08000000      0x10c build\Libraries\CMSIS\CM3\DeviceSupport\ST\STM32F10x\startup\gcc_ride7\startup_stm32f10x_md.o
                0x08000000                g_pfnVectors
                0x0800010c                . = ALIGN (0x4)
 *(.text)
 .text          0x0800010c       0xd0 build\libcpu\arm\cortex-m3\context_gcc.o
                0x0800010c                rt_hw_interrupt_disable
                0x08000114                rt_hw_interrupt_enable
                0x0800011a                rt_hw_context_switch_interrupt
                0x0800011a                rt_hw_context_switch
                0x0800013a                PendSV_Handler
                0x08000176                rt_hw_context_switch_to
                0x080001a0                rt_hw_interrupt_thread_switch
                0x080001a4                HardFault_Handler
                0x080001b8                rt_hw_interrupt_check
 *(.text.*)
 .text.rt_init_thread_entry
                0x080001dc        0x4 build\applications\application.o
                0x080001dc                rt_init_thread_entry
 .text.led_thread_entry
                0x080001e0       0x20 build\applications\application.o
 .text.rt_application_init
                0x08000200      0x110 build\applications\application.o
                0x08000200                rt_application_init
 .text.assert_failed
                0x08000310       0x2c build\applications\startup.o
                0x08000310                assert_failed
 .text.rtthread_startup
                0x0800033c       0x3c build\applications\startup.o
                0x0800033c                rtthread_startup
 .text.startup.main
                0x08000378       0x10 build\applications\startup.o
                0x08000378                main
 .text.NVIC_Configuration
                0x08000388        0xc build\drivers\board.o
                0x08000388                NVIC_Configuration
 .text.SysTick_Handler
                0x08000394       0x14 build\drivers\board.o
                0x08000394                SysTick_Handler
 .text.rt_hw_board_init
                0x080003a8       0x54 build\drivers\board.o
                0x080003a8                rt_hw_board_init
 .text.NMI_Handler
                0x080003fc        0x4 build\drivers\stm32f10x_it.o
                0x080003fc                NMI_Handler
 .text.MemManage_Handler
                0x08000400        0x4 build\drivers\stm32f10x_it.o
                0x08000400                MemManage_Handler
 .text.BusFault_Handler
                0x08000404        0x4 build\drivers\stm32f10x_it.o
                0x08000404                BusFault_Handler
 .text.UsageFault_Handler
                0x08000408        0x4 build\drivers\stm32f10x_it.o
                0x08000408                UsageFault_Handler
 .text.SVC_Handler
                0x0800040c        0x4 build\drivers\stm32f10x_it.o
                0x0800040c                SVC_Handler
 .text.DebugMon_Handler
                0x08000410        0x4 build\drivers\stm32f10x_it.o
                0x08000410                DebugMon_Handler
 .text.rt_hw_led_init
                0x08000414       0x48 build\drivers\led.o
                0x08000414                rt_hw_led_init
 .text.rt_hw_led_on
                0x0800045c       0x44 build\drivers\led.o
                0x0800045c                rt_hw_led_on
 .text.rt_hw_led_off
                0x080004a0       0x28 build\drivers\led.o
                0x080004a0                rt_hw_led_off
 .text.stm32_getc
                0x080004c8       0x48 build\drivers\usart.o
 .text.stm32_putc
                0x08000510       0x48 build\drivers\usart.o
 .text.stm32_control
                0x08000558       0x7c build\drivers\usart.o
 .text.stm32_configure
                0x080005d4       0xb4 build\drivers\usart.o
 .text.NVIC_Configuration.isra.0
                0x08000688       0x24 build\drivers\usart.o
 .text.USART1_IRQHandler
                0x080006ac       0x50 build\drivers\usart.o
                0x080006ac                USART1_IRQHandler
 .text.USART2_IRQHandler
                0x080006fc       0x50 build\drivers\usart.o
                0x080006fc                USART2_IRQHandler
 .text.USART3_IRQHandler
                0x0800074c       0x50 build\drivers\usart.o
                0x0800074c                USART3_IRQHandler
 .text.rt_hw_usart_init
                0x0800079c      0x1c0 build\drivers\usart.o
                0x0800079c                rt_hw_usart_init
 .text.SystemInit
                0x0800095c      0x120 build\Libraries\CMSIS\CM3\DeviceSupport\ST\STM32F10x\system_stm32f10x.o
                0x0800095c                SystemInit
 .text.RCC_USBCLKConfig
                0x08000a7c       0x20 build\Libraries\STM32F10x_StdPeriph_Driver\src\stm32f10x_rcc.o
                0x08000a7c                RCC_USBCLKConfig
 .text.RCC_ADCCLKConfig
                0x08000a9c       0x3c build\Libraries\STM32F10x_StdPeriph_Driver\src\stm32f10x_rcc.o
                0x08000a9c                RCC_ADCCLKConfig
 .text.RCC_GetClocksFreq
                0x08000ad8       0xa8 build\Libraries\STM32F10x_StdPeriph_Driver\src\stm32f10x_rcc.o
                0x08000ad8                RCC_GetClocksFreq
 .text.RCC_AHBPeriphClockCmd
                0x08000b80       0x58 build\Libraries\STM32F10x_StdPeriph_Driver\src\stm32f10x_rcc.o
                0x08000b80                RCC_AHBPeriphClockCmd
 .text.RCC_APB2PeriphClockCmd
                0x08000bd8       0x58 build\Libraries\STM32F10x_StdPeriph_Driver\src\stm32f10x_rcc.o
                0x08000bd8                RCC_APB2PeriphClockCmd
 .text.RCC_APB1PeriphClockCmd
                0x08000c30       0x5c build\Libraries\STM32F10x_StdPeriph_Driver\src\stm32f10x_rcc.o
                0x08000c30                RCC_APB1PeriphClockCmd
 .text.RCC_APB2PeriphResetCmd
                0x08000c8c       0x58 build\Libraries\STM32F10x_StdPeriph_Driver\src\stm32f10x_rcc.o
                0x08000c8c                RCC_APB2PeriphResetCmd
 .text.RCC_APB1PeriphResetCmd
                0x08000ce4       0x5c build\Libraries\STM32F10x_StdPeriph_Driver\src\stm32f10x_rcc.o
                0x08000ce4                RCC_APB1PeriphResetCmd
 .text.EXTI_ClearITPendingBit
                0x08000d40       0x24 build\Libraries\STM32F10x_StdPeriph_Driver\src\stm32f10x_exti.o
                0x08000d40                EXTI_ClearITPendingBit
 .text.ADC_DeInit
                0x08000d64       0x80 build\Libraries\STM32F10x_StdPeriph_Driver\src\stm32f10x_adc.o
                0x08000d64                ADC_DeInit
 .text.ADC_Init
                0x08000de4      0x138 build\Libraries\STM32F10x_StdPeriph_Driver\src\stm32f10x_adc.o
                0x08000de4                ADC_Init
 .text.ADC_Cmd  0x08000f1c       0x60 build\Libraries\STM32F10x_StdPeriph_Driver\src\stm32f10x_adc.o
                0x08000f1c                ADC_Cmd
 .text.ADC_DMACmd
                0x08000f7c       0x54 build\Libraries\STM32F10x_StdPeriph_Driver\src\stm32f10x_adc.o
                0x08000f7c                ADC_DMACmd
 .text.ADC_ResetCalibration
                0x08000fd0       0x40 build\Libraries\STM32F10x_StdPeriph_Driver\src\stm32f10x_adc.o
                0x08000fd0                ADC_ResetCalibration
 .text.ADC_GetResetCalibrationStatus
                0x08001010       0x40 build\Libraries\STM32F10x_StdPeriph_Driver\src\stm32f10x_adc.o
                0x08001010                ADC_GetResetCalibrationStatus
 .text.ADC_StartCalibration
                0x08001050       0x40 build\Libraries\STM32F10x_StdPeriph_Driver\src\stm32f10x_adc.o
                0x08001050                ADC_StartCalibration
 .text.ADC_GetCalibrationStatus
                0x08001090       0x40 build\Libraries\STM32F10x_StdPeriph_Driver\src\stm32f10x_adc.o
                0x08001090                ADC_GetCalibrationStatus
 .text.ADC_SoftwareStartConvCmd
                0x080010d0       0x60 build\Libraries\STM32F10x_StdPeriph_Driver\src\stm32f10x_adc.o
                0x080010d0                ADC_SoftwareStartConvCmd
 .text.ADC_RegularChannelConfig
                0x08001130      0x10c build\Libraries\STM32F10x_StdPeriph_Driver\src\stm32f10x_adc.o
                0x08001130                ADC_RegularChannelConfig
 .text.TIM_DeInit
                0x0800123c      0x26c build\Libraries\STM32F10x_StdPeriph_Driver\src\stm32f10x_tim.o
                0x0800123c                TIM_DeInit
 .text.TIM_TimeBaseInit
                0x080014a8      0x1e0 build\Libraries\STM32F10x_StdPeriph_Driver\src\stm32f10x_tim.o
                0x080014a8                TIM_TimeBaseInit
 .text.TIM_OC1Init
                0x08001688      0x210 build\Libraries\STM32F10x_StdPeriph_Driver\src\stm32f10x_tim.o
                0x08001688                TIM_OC1Init
 .text.TIM_Cmd  0x08001898      0x108 build\Libraries\STM32F10x_StdPeriph_Driver\src\stm32f10x_tim.o
                0x08001898                TIM_Cmd
 .text.TIM_CtrlPWMOutputs
                0x080019a0       0x84 build\Libraries\STM32F10x_StdPeriph_Driver\src\stm32f10x_tim.o
                0x080019a0                TIM_CtrlPWMOutputs
 .text.TIM_ITConfig
                0x08001a24      0x11c build\Libraries\STM32F10x_StdPeriph_Driver\src\stm32f10x_tim.o
                0x08001a24                TIM_ITConfig
 .text.TIM_ETRConfig
                0x08001b40       0xb8 build\Libraries\STM32F10x_StdPeriph_Driver\src\stm32f10x_tim.o
                0x08001b40                TIM_ETRConfig
 .text.TIM_ETRClockMode2Config
                0x08001bf8       0xb4 build\Libraries\STM32F10x_StdPeriph_Driver\src\stm32f10x_tim.o
                0x08001bf8                TIM_ETRClockMode2Config
 .text.TIM_ARRPreloadConfig
                0x08001cac      0x108 build\Libraries\STM32F10x_StdPeriph_Driver\src\stm32f10x_tim.o
                0x08001cac                TIM_ARRPreloadConfig
 .text.TIM_CCxCmd
                0x08001db4      0x108 build\Libraries\STM32F10x_StdPeriph_Driver\src\stm32f10x_tim.o
                0x08001db4                TIM_CCxCmd
 .text.TIM_SetCounter
                0x08001ebc       0xe0 build\Libraries\STM32F10x_StdPeriph_Driver\src\stm32f10x_tim.o
                0x08001ebc                TIM_SetCounter
 .text.TIM_SetAutoreload
                0x08001f9c       0xe0 build\Libraries\STM32F10x_StdPeriph_Driver\src\stm32f10x_tim.o
                0x08001f9c                TIM_SetAutoreload
 .text.TIM_SetCompare1
                0x0800207c       0xc8 build\Libraries\STM32F10x_StdPeriph_Driver\src\stm32f10x_tim.o
                0x0800207c                TIM_SetCompare1
 .text.TIM_ClearFlag
                0x08002144       0xf4 build\Libraries\STM32F10x_StdPeriph_Driver\src\stm32f10x_tim.o
                0x08002144                TIM_ClearFlag
 .text.TIM_ClearITPendingBit
                0x08002238       0xf4 build\Libraries\STM32F10x_StdPeriph_Driver\src\stm32f10x_tim.o
                0x08002238                TIM_ClearITPendingBit
 .text.FLASH_UnlockBank1
                0x0800232c       0x20 build\Libraries\STM32F10x_StdPeriph_Driver\src\stm32f10x_flash.o
                0x0800232c                FLASH_UnlockBank1
 .text.FLASH_LockBank1
                0x0800234c       0x14 build\Libraries\STM32F10x_StdPeriph_Driver\src\stm32f10x_flash.o
                0x0800234c                FLASH_LockBank1
 .text.FLASH_GetBank1Status
                0x08002360       0x2c build\Libraries\STM32F10x_StdPeriph_Driver\src\stm32f10x_flash.o
                0x08002360                FLASH_GetBank1Status
 .text.FLASH_WaitForLastOperation
                0x0800238c       0x40 build\Libraries\STM32F10x_StdPeriph_Driver\src\stm32f10x_flash.o
                0x0800238c                FLASH_WaitForLastOperation
 .text.FLASH_ProgramWord
                0x080023cc       0x90 build\Libraries\STM32F10x_StdPeriph_Driver\src\stm32f10x_flash.o
                0x080023cc                FLASH_ProgramWord
 .text.GPIO_Init
                0x0800245c      0x338 build\Libraries\STM32F10x_StdPeriph_Driver\src\stm32f10x_gpio.o
                0x0800245c                GPIO_Init
 .text.GPIO_ReadInputDataBit
                0x08002794       0xcc build\Libraries\STM32F10x_StdPeriph_Driver\src\stm32f10x_gpio.o
                0x08002794                GPIO_ReadInputDataBit
 .text.GPIO_SetBits
                0x08002860       0x78 build\Libraries\STM32F10x_StdPeriph_Driver\src\stm32f10x_gpio.o
                0x08002860                GPIO_SetBits
 .text.GPIO_ResetBits
                0x080028d8       0x78 build\Libraries\STM32F10x_StdPeriph_Driver\src\stm32f10x_gpio.o
                0x080028d8                GPIO_ResetBits
 .text.GPIO_PinRemapConfig
                0x08002950      0x260 build\Libraries\STM32F10x_StdPeriph_Driver\src\stm32f10x_gpio.o
                0x08002950                GPIO_PinRemapConfig
 .text.USART_Init
                0x08002bb0      0x1e8 build\Libraries\STM32F10x_StdPeriph_Driver\src\stm32f10x_usart.o
                0x08002bb0                USART_Init
 .text.USART_Cmd
                0x08002d98       0x7c build\Libraries\STM32F10x_StdPeriph_Driver\src\stm32f10x_usart.o
                0x08002d98                USART_Cmd
 .text.USART_ITConfig
                0x08002e14      0x118 build\Libraries\STM32F10x_StdPeriph_Driver\src\stm32f10x_usart.o
                0x08002e14                USART_ITConfig
 .text.USART_GetITStatus
                0x08002f2c      0x144 build\Libraries\STM32F10x_StdPeriph_Driver\src\stm32f10x_usart.o
                0x08002f2c                USART_GetITStatus
 .text.USART_ClearITPendingBit
                0x08003070       0xbc build\Libraries\STM32F10x_StdPeriph_Driver\src\stm32f10x_usart.o
                0x08003070                USART_ClearITPendingBit
 .text.DMA_DeInit
                0x0800312c      0x224 build\Libraries\STM32F10x_StdPeriph_Driver\src\stm32f10x_dma.o
                0x0800312c                DMA_DeInit
 .text.DMA_Init
                0x08003350      0x1a0 build\Libraries\STM32F10x_StdPeriph_Driver\src\stm32f10x_dma.o
                0x08003350                DMA_Init
 .text.DMA_Cmd  0x080034f0       0xc0 build\Libraries\STM32F10x_StdPeriph_Driver\src\stm32f10x_dma.o
                0x080034f0                DMA_Cmd
 .text.NVIC_PriorityGroupConfig
                0x080035b0       0x44 build\Libraries\STM32F10x_StdPeriph_Driver\src\misc.o
                0x080035b0                NVIC_PriorityGroupConfig
 .text.NVIC_Init
                0x080035f4       0xb0 build\Libraries\STM32F10x_StdPeriph_Driver\src\misc.o
                0x080035f4                NVIC_Init
 .text.NVIC_SetVectorTable
                0x080036a4       0x48 build\Libraries\STM32F10x_StdPeriph_Driver\src\misc.o
                0x080036a4                NVIC_SetVectorTable
 .text.Reset_Handler
                0x080036ec       0x4c build\Libraries\CMSIS\CM3\DeviceSupport\ST\STM32F10x\startup\gcc_ride7\startup_stm32f10x_md.o
                0x080036ec                Reset_Handler
 .text.Default_Handler
                0x08003738        0x4 build\Libraries\CMSIS\CM3\DeviceSupport\ST\STM32F10x\startup\gcc_ride7\startup_stm32f10x_md.o
                0x08003738                EXTI2_IRQHandler
                0x08003738                TIM1_CC_IRQHandler
                0x08003738                PVD_IRQHandler
                0x08003738                EXTI3_IRQHandler
                0x08003738                EXTI0_IRQHandler
                0x08003738                I2C2_EV_IRQHandler
                0x08003738                ADC1_2_IRQHandler
                0x08003738                SPI1_IRQHandler
                0x08003738                TAMPER_IRQHandler
                0x08003738                DMA1_Channel4_IRQHandler
                0x08003738                RTC_IRQHandler
                0x08003738                DMA1_Channel7_IRQHandler
                0x08003738                CAN1_RX1_IRQHandler
                0x08003738                TIM4_IRQHandler
                0x08003738                I2C1_EV_IRQHandler
                0x08003738                DMA1_Channel6_IRQHandler
                0x08003738                TIM3_IRQHandler
                0x08003738                RCC_IRQHandler
                0x08003738                TIM1_TRG_COM_IRQHandler
                0x08003738                DMA1_Channel1_IRQHandler
                0x08003738                Default_Handler
                0x08003738                EXTI9_5_IRQHandler
                0x08003738                SPI2_IRQHandler
                0x08003738                DMA1_Channel5_IRQHandler
                0x08003738                USB_HP_CAN1_TX_IRQHandler
                0x08003738                DMA1_Channel3_IRQHandler
                0x08003738                TIM1_UP_IRQHandler
                0x08003738                WWDG_IRQHandler
                0x08003738                TIM1_BRK_IRQHandler
                0x08003738                EXTI1_IRQHandler
                0x08003738                RTCAlarm_IRQHandler
                0x08003738                I2C2_ER_IRQHandler
                0x08003738                DMA1_Channel2_IRQHandler
                0x08003738                CAN1_SCE_IRQHandler
                0x08003738                FLASH_IRQHandler
                0x08003738                I2C1_ER_IRQHandler
 .text.data_t_run
                0x0800373c       0x10 build\motor\src\adc.o
                0x0800373c                data_t_run
 .text.data_t_stop
                0x0800374c       0x10 build\motor\src\adc.o
                0x0800374c                data_t_stop
 .text.data_t_set_manual
                0x0800375c       0x2c build\motor\src\adc.o
                0x0800375c                data_t_set_manual
 .text.data_t_sample
                0x08003788       0xd8 build\motor\src\adc.o
                0x08003788                data_t_sample
 .text.get_temp
                0x08003860       0x10 build\motor\src\adc.o
                0x08003860                get_temp
 .text.data_t_format
                0x08003870       0x44 build\motor\src\adc.o
                0x08003870                data_t_format
 .text.data_t_upload
                0x080038b4        0xc build\motor\src\adc.o
                0x080038b4                data_t_upload
 .text.data_t_reset
                0x080038c0       0x1c build\motor\src\adc.o
                0x080038c0                data_t_reset
 .text.data_t_init
                0x080038dc       0x94 build\motor\src\adc.o
                0x080038dc                data_t_init
 .text.data_t_set_channel
                0x08003970       0x14 build\motor\src\adc.o
                0x08003970                data_t_set_channel
 .text.data_t_set_interval
                0x08003984       0x1c build\motor\src\adc.o
                0x08003984                data_t_set_interval
 .text.data_t_cfg
                0x080039a0        0xc build\motor\src\adc.o
                0x080039a0                data_t_cfg
 .text.data_t_service
                0x080039ac       0x30 build\motor\src\adc.o
                0x080039ac                data_t_service
 .text.set_SW.part.1
                0x080039dc       0x18 build\motor\src\adc.o
 .text.switch_485
                0x080039f4       0x38 build\motor\src\adc.o
                0x080039f4                switch_485
 .text.switch_232
                0x08003a2c       0x3c build\motor\src\adc.o
                0x08003a2c                switch_232
 .text.switch_CAN
                0x08003a68       0x3c build\motor\src\adc.o
                0x08003a68                switch_CAN
 .text.switch_NTC
                0x08003aa4       0x3c build\motor\src\adc.o
                0x08003aa4                switch_NTC
 .text.switch_R
                0x08003ae0       0x50 build\motor\src\adc.o
                0x08003ae0                switch_R
 .text.switch_UI
                0x08003b30       0x50 build\motor\src\adc.o
                0x08003b30                switch_UI
 .text.switch_RAT
                0x08003b80       0xb4 build\motor\src\adc.o
                0x08003b80                switch_RAT
 .text.RCC_ADC_init
                0x08003c34       0x38 build\motor\src\adc.o
                0x08003c34                RCC_ADC_init
 .text.swR_init
                0x08003c6c       0x34 build\motor\src\adc.o
                0x08003c6c                swR_init
 .text.GPIO_ADC_init
                0x08003ca0       0x84 build\motor\src\adc.o
                0x08003ca0                GPIO_ADC_init
 .text.DMA_ADC_init
                0x08003d24       0x5c build\motor\src\adc.o
                0x08003d24                DMA_ADC_init
 .text.adc_config
                0x08003d80      0x128 build\motor\src\adc.o
                0x08003d80                adc_config
 .text.sample_temp
                0x08003ea8       0x84 build\motor\src\adc.o
                0x08003ea8                sample_temp
 .text.ad_sample_thread_entry
                0x08003f2c       0x28 build\motor\src\adc.o
                0x08003f2c                ad_sample_thread_entry
 .text.has_cmd_
                0x08003f54       0x14 build\motor\src\cmd.o
                0x08003f54                has_cmd_
 .text.append_  0x08003f68       0x7c build\motor\src\cmd.o
                0x08003f68                append_
 .text.get_calibr
                0x08003fe4       0x38 build\motor\src\cmd.o
                0x08003fe4                get_calibr
 .text.flash    0x0800401c       0x34 build\motor\src\cmd.o
                0x0800401c                flash
 .text.set_calibr
                0x08004050       0x4c build\motor\src\cmd.o
                0x08004050                set_calibr
 .text.console_srv
                0x0800409c       0x6c build\motor\src\cmd.o
                0x0800409c                console_srv
 .text.deal_cmd__
                0x08004108       0x5c build\motor\src\cmd.o
                0x08004108                deal_cmd__
 .text.deal_cmd_
                0x08004164       0xa8 build\motor\src\cmd.o
                0x08004164                deal_cmd_
 .text.vout_srv
                0x0800420c        0xc build\motor\src\cmd.o
                0x0800420c                vout_srv
 .text.adc_srv  0x08004218        0xc build\motor\src\cmd.o
                0x08004218                adc_srv
 .text.motor_srv
                0x08004224        0xc build\motor\src\cmd.o
                0x08004224                motor_srv
 .text.calib_srv
                0x08004230        0xc build\motor\src\cmd.o
                0x08004230                calib_srv
 .text.cmd_dealer_init
                0x0800423c       0x4c build\motor\src\cmd.o
                0x0800423c                cmd_dealer_init
 .text.cmd_thread_entry
                0x08004288       0x38 build\motor\src\cmd.o
                0x08004288                cmd_thread_entry
 .text.TIM2_IRQHandler
                0x080042c0       0x90 build\motor\src\counter.o
                0x080042c0                TIM2_IRQHandler
 .text.tim2_IRQ_init
                0x08004350       0x2c build\motor\src\counter.o
                0x08004350                tim2_IRQ_init
 .text.tim2_init
                0x0800437c       0xd4 build\motor\src\counter.o
                0x0800437c                tim2_init
 .text.RCC_Configuration_motor
                0x08004450        0x8 build\motor\src\entry.o
                0x08004450                RCC_Configuration_motor
 .text.hardware_init
                0x08004458       0x28 build\motor\src\entry.o
                0x08004458                hardware_init
 .text.motor_set_auto
                0x08004480       0x34 build\motor\src\pwm.o
                0x08004480                motor_set_auto
 .text.motor_setup
                0x080044b4       0x14 build\motor\src\pwm.o
                0x080044b4                motor_setup
 .text.middle_Y_led
                0x080044c8        0x8 build\motor\src\pwm.o
                0x080044c8                middle_Y_led
 .text.middle_N_led
                0x080044d0        0x8 build\motor\src\pwm.o
                0x080044d0                middle_N_led
 .text.middle_status_update
                0x080044d8       0x34 build\motor\src\pwm.o
                0x080044d8                middle_status_update
 .text.EXTI15_10_IRQHandler
                0x0800450c       0x38 build\motor\src\pwm.o
                0x0800450c                EXTI15_10_IRQHandler
 .text.EXTI4_IRQHandler
                0x08004544       0x38 build\motor\src\pwm.o
                0x08004544                EXTI4_IRQHandler
 .text.pwm_accl
                0x0800457c       0x2c build\motor\src\pwm.o
                0x0800457c                pwm_accl
 .text.pwm_dccl
                0x080045a8       0x24 build\motor\src\pwm.o
                0x080045a8                pwm_dccl
 .text.motor_accl
                0x080045cc       0x38 build\motor\src\pwm.o
                0x080045cc                motor_accl
 .text.pwm_stop
                0x08004604       0x44 build\motor\src\pwm.o
                0x08004604                pwm_stop
 .text.motor_stop
                0x08004648       0x18 build\motor\src\pwm.o
                0x08004648                motor_stop
 .text.pollar_service
                0x08004660       0x8c build\motor\src\pwm.o
                0x08004660                pollar_service
 .text.event_thread_entry
                0x080046ec       0x1c build\motor\src\pwm.o
                0x080046ec                event_thread_entry
 .text.pwm_run  0x08004708       0x34 build\motor\src\pwm.o
                0x08004708                pwm_run
 .text.pwm_set_forward
                0x0800473c       0x14 build\motor\src\pwm.o
                0x0800473c                pwm_set_forward
 .text.pwm_set_backward
                0x08004750       0x14 build\motor\src\pwm.o
                0x08004750                pwm_set_backward
 .text.motor_run
                0x08004764       0x5c build\motor\src\pwm.o
                0x08004764                motor_run
 .text.motor_move
                0x080047c0       0x80 build\motor\src\pwm.o
                0x080047c0                motor_move
 .text.vout_set
                0x08004840       0x34 build\motor\src\vout.o
                0x08004840                vout_set
 .text.RCC_vout_init
                0x08004874        0xc build\motor\src\vout.o
                0x08004874                RCC_vout_init
 .text.GPIO_vout_init
                0x08004880       0x2c build\motor\src\vout.o
                0x08004880                GPIO_vout_init
 .text.t1c1_init
                0x080048ac       0x88 build\motor\src\vout.o
                0x080048ac                t1c1_init
 .text.vout_init
                0x08004934       0x14 build\motor\src\vout.o
                0x08004934                vout_init
 .text.vout_adj
                0x08004948       0x3c build\motor\src\vout.o
                0x08004948                vout_adj
 .text.vout_decrease
                0x08004984       0x24 build\motor\src\vout.o
                0x08004984                vout_decrease
 .text.vout_increase
                0x080049a8       0x24 build\motor\src\vout.o
                0x080049a8                vout_increase
 .text.RCC_pga_init
                0x080049cc        0x8 build\motor\src\pga.o
                0x080049cc                RCC_pga_init
 .text.GPIO_pga_init
                0x080049d4       0xc4 build\motor\src\pga.o
                0x080049d4                GPIO_pga_init
 .text.pga_init
                0x08004a98       0x10 build\motor\src\pga.o
                0x08004a98                pga_init
 .text.write_sport
                0x08004aa8       0x98 build\motor\src\pga.o
                0x08004aa8                write_sport
 .text.pga_set  0x08004b40       0x8c build\motor\src\pga.o
                0x08004b40                pga_set
 .text.usb_init
                0x08004bcc       0x30 build\usb_hid\src\entry.o
                0x08004bcc                usb_init
 .text.Delay    0x08004bfc       0x24 build\usb_hid\src\entry.o
                0x08004bfc                Delay
 .text.IntToUnicode
                0x08004c20       0x78 build\usb_hid\src\hw_config.o
 .text.Set_USBClock
                0x08004c98       0x18 build\usb_hid\src\hw_config.o
                0x08004c98                Set_USBClock
 .text.USB_Interrupts_Config
                0x08004cb0       0x40 build\usb_hid\src\hw_config.o
                0x08004cb0                USB_Interrupts_Config
 .text.USB_Cable_Config
                0x08004cf0       0x24 build\usb_hid\src\hw_config.o
                0x08004cf0                USB_Cable_Config
 .text.GPIO_Configuration
                0x08004d14       0x34 build\usb_hid\src\hw_config.o
                0x08004d14                GPIO_Configuration
 .text.Set_System
                0x08004d48       0x1c build\usb_hid\src\hw_config.o
                0x08004d48                Set_System
 .text.Get_SerialNum
                0x08004d64       0x44 build\usb_hid\src\hw_config.o
                0x08004d64                Get_SerialNum
 .text.STM_EVAL_LEDOn
                0x08004da8       0x1c build\usb_hid\src\stm3210b_eval.o
                0x08004da8                STM_EVAL_LEDOn
 .text.STM_EVAL_LEDOff
                0x08004dc4       0x1c build\usb_hid\src\stm3210b_eval.o
                0x08004dc4                STM_EVAL_LEDOff
 .text.USB_LP_CAN1_RX0_IRQHandler
                0x08004de0        0x4 build\usb_hid\src\stm32_it.o
                0x08004de0                USB_LP_CAN1_RX0_IRQHandler
 .text.USBWakeUp_IRQHandler
                0x08004de4        0x8 build\usb_hid\src\stm32_it.o
                0x08004de4                USBWakeUp_IRQHandler
 .text.Standard_GetConfiguration
                0x08004dec       0x28 build\usb_hid\src\usb_core.o
                0x08004dec                Standard_GetConfiguration
 .text.Standard_GetInterface
                0x08004e14       0x28 build\usb_hid\src\usb_core.o
                0x08004e14                Standard_GetInterface
 .text.Standard_GetStatus
                0x08004e3c       0xa0 build\usb_hid\src\usb_core.o
                0x08004e3c                Standard_GetStatus
 .text.DataStageIn
                0x08004edc       0xb4 build\usb_hid\src\usb_core.o
 .text.Standard_SetConfiguration
                0x08004f90       0x3c build\usb_hid\src\usb_core.o
                0x08004f90                Standard_SetConfiguration
 .text.Standard_SetInterface
                0x08004fcc       0x50 build\usb_hid\src\usb_core.o
                0x08004fcc                Standard_SetInterface
 .text.Standard_ClearFeature
                0x0800501c       0xe8 build\usb_hid\src\usb_core.o
                0x0800501c                Standard_ClearFeature
 .text.Standard_SetEndPointFeature
                0x08005104       0x98 build\usb_hid\src\usb_core.o
                0x08005104                Standard_SetEndPointFeature
 .text.Standard_GetDescriptorData
                0x0800519c       0x1c build\usb_hid\src\usb_core.o
                0x0800519c                Standard_GetDescriptorData
 .text.Post0_Process
                0x080051b8       0x44 build\usb_hid\src\usb_core.o
                0x080051b8                Post0_Process
 .text.Out0_Process
                0x080051fc       0xe4 build\usb_hid\src\usb_core.o
                0x080051fc                Out0_Process
 .text.Setup0_Process
                0x080052e0      0x370 build\usb_hid\src\usb_core.o
                0x080052e0                Setup0_Process
 .text.SetDeviceAddress
                0x08005650       0xa8 build\usb_hid\src\usb_core.o
                0x08005650                SetDeviceAddress
 .text.In0_Process
                0x080056f8       0x60 build\usb_hid\src\usb_core.o
                0x080056f8                In0_Process
 .text.NOP_Process
                0x08005758        0x4 build\usb_hid\src\usb_core.o
                0x08005758                NOP_Process
 .text.print2usb
                0x0800575c       0x74 build\usb_hid\src\usb_endp.o
                0x0800575c                print2usb
 .text.EP1_OUT_Callback
                0x080057d0       0x38 build\usb_hid\src\usb_endp.o
                0x080057d0                EP1_OUT_Callback
 .text.EP2_IN_Callback
                0x08005808       0x10 build\usb_hid\src\usb_endp.o
                0x08005808                EP2_IN_Callback
 .text.USB_Init
                0x08005818       0x44 build\usb_hid\src\usb_init.o
                0x08005818                USB_Init
 .text.CTR_LP   0x0800585c      0x1b4 build\usb_hid\src\usb_int.o
                0x0800585c                CTR_LP
 .text.USB_Istr
                0x08005a10       0x58 build\usb_hid\src\usb_istr.o
                0x08005a10                USB_Istr
 .text.UserToPMABufferCopy
                0x08005a68       0x78 build\usb_hid\src\usb_mem.o
                0x08005a68                UserToPMABufferCopy
 .text.PMAToUserBufferCopy
                0x08005ae0       0x50 build\usb_hid\src\usb_mem.o
                0x08005ae0                PMAToUserBufferCopy
 .text.CustomHID_SetDeviceAddress
                0x08005b30       0x10 build\usb_hid\src\usb_prop.o
                0x08005b30                CustomHID_SetDeviceAddress
 .text.CustomHID_Status_Out
                0x08005b40        0x4 build\usb_hid\src\usb_prop.o
                0x08005b40                CustomHID_Status_Out
 .text.CustomHID_Data_Setup
                0x08005b44       0x6c build\usb_hid\src\usb_prop.o
                0x08005b44                CustomHID_Data_Setup
 .text.CustomHID_SetReport_Feature
                0x08005bb0       0x18 build\usb_hid\src\usb_prop.o
                0x08005bb0                CustomHID_SetReport_Feature
 .text.CustomHID_NoData_Setup
                0x08005bc8       0x28 build\usb_hid\src\usb_prop.o
                0x08005bc8                CustomHID_NoData_Setup
 .text.CustomHID_Get_Interface_Setting
                0x08005bf0        0xc build\usb_hid\src\usb_prop.o
                0x08005bf0                CustomHID_Get_Interface_Setting
 .text.CustomHID_GetProtocolValue
                0x08005bfc       0x18 build\usb_hid\src\usb_prop.o
                0x08005bfc                CustomHID_GetProtocolValue
 .text.CustomHID_GetHIDDescriptor
                0x08005c14        0xc build\usb_hid\src\usb_prop.o
                0x08005c14                CustomHID_GetHIDDescriptor
 .text.CustomHID_GetReportDescriptor
                0x08005c20        0xc build\usb_hid\src\usb_prop.o
                0x08005c20                CustomHID_GetReportDescriptor
 .text.CustomHID_GetStringDescriptor
                0x08005c2c       0x20 build\usb_hid\src\usb_prop.o
                0x08005c2c                CustomHID_GetStringDescriptor
 .text.CustomHID_GetConfigDescriptor
                0x08005c4c        0xc build\usb_hid\src\usb_prop.o
                0x08005c4c                CustomHID_GetConfigDescriptor
 .text.CustomHID_GetDeviceDescriptor
                0x08005c58        0xc build\usb_hid\src\usb_prop.o
                0x08005c58                CustomHID_GetDeviceDescriptor
 .text.CustomHID_Status_In
                0x08005c64       0x88 build\usb_hid\src\usb_prop.o
                0x08005c64                CustomHID_Status_In
 .text.CustomHID_Reset
                0x08005cec       0xc0 build\usb_hid\src\usb_prop.o
                0x08005cec                CustomHID_Reset
 .text.CustomHID_init
                0x08005dac       0x28 build\usb_hid\src\usb_prop.o
                0x08005dac                CustomHID_init
 .text.CustomHID_SetConfiguration
                0x08005dd4       0x28 build\usb_hid\src\usb_prop.o
                0x08005dd4                CustomHID_SetConfiguration
 .text.PowerOn  0x08005dfc       0x40 build\usb_hid\src\usb_pwr.o
                0x08005dfc                PowerOn
 .text.SetBTABLE
                0x08005e3c       0x14 build\usb_hid\src\usb_regs.o
                0x08005e3c                SetBTABLE
 .text.SetEPType
                0x08005e50       0x18 build\usb_hid\src\usb_regs.o
                0x08005e50                SetEPType
 .text.SetEPTxStatus
                0x08005e68       0x40 build\usb_hid\src\usb_regs.o
                0x08005e68                SetEPTxStatus
 .text.SetEPRxStatus
                0x08005ea8       0x40 build\usb_hid\src\usb_regs.o
                0x08005ea8                SetEPRxStatus
 .text.SetEPTxValid
                0x08005ee8       0x24 build\usb_hid\src\usb_regs.o
                0x08005ee8                SetEPTxValid
 .text.SetEPRxValid
                0x08005f0c       0x24 build\usb_hid\src\usb_regs.o
                0x08005f0c                SetEPRxValid
 .text.Clear_Status_Out
                0x08005f30       0x20 build\usb_hid\src\usb_regs.o
                0x08005f30                Clear_Status_Out
 .text.ClearDTOG_RX
                0x08005f50       0x24 build\usb_hid\src\usb_regs.o
                0x08005f50                ClearDTOG_RX
 .text.ClearDTOG_TX
                0x08005f74       0x24 build\usb_hid\src\usb_regs.o
                0x08005f74                ClearDTOG_TX
 .text.SetEPTxAddr
                0x08005f98       0x24 build\usb_hid\src\usb_regs.o
                0x08005f98                SetEPTxAddr
 .text.SetEPRxAddr
                0x08005fbc       0x28 build\usb_hid\src\usb_regs.o
                0x08005fbc                SetEPRxAddr
 .text.GetEPTxAddr
                0x08005fe4       0x20 build\usb_hid\src\usb_regs.o
                0x08005fe4                GetEPTxAddr
 .text.GetEPRxAddr
                0x08006004       0x20 build\usb_hid\src\usb_regs.o
                0x08006004                GetEPRxAddr
 .text.SetEPTxCount
                0x08006024       0x20 build\usb_hid\src\usb_regs.o
                0x08006024                SetEPTxCount
 .text.SetEPRxCount
                0x08006044       0x44 build\usb_hid\src\usb_regs.o
                0x08006044                SetEPRxCount
 .text.GetEPRxCount
                0x08006088       0x24 build\usb_hid\src\usb_regs.o
                0x08006088                GetEPRxCount
 .text.ByteSwap
                0x080060ac        0xc build\usb_hid\src\usb_regs.o
                0x080060ac                ByteSwap
 .text.USB_SIL_Init
                0x080060b8       0x2c build\usb_hid\src\usb_sil.o
                0x080060b8                USB_SIL_Init
 .text.USB_SIL_Read
                0x080060e4       0x24 build\usb_hid\src\usb_sil.o
                0x080060e4                USB_SIL_Read
 .text.rt_tick_get
                0x08006108        0xc build\src\clock.o
                0x08006108                rt_tick_get
 .text.rt_tick_increase
                0x08006114       0x2c build\src\clock.o
                0x08006114                rt_tick_increase
 .text.rt_device_find
                0x08006140       0x5c build\src\device.o
                0x08006140                rt_device_find
 .text.rt_device_register
                0x0800619c       0x2c build\src\device.o
                0x0800619c                rt_device_register
 .text.rt_device_open
                0x080061c8       0x9c build\src\device.o
                0x080061c8                rt_device_open
 .text.rt_device_close
                0x08006264       0x48 build\src\device.o
                0x08006264                rt_device_close
 .text.rt_device_write
                0x080062ac       0x58 build\src\device.o
                0x080062ac                rt_device_write
 .text.rt_thread_idle_excute
                0x08006304       0xa4 build\src\idle.o
                0x08006304                rt_thread_idle_excute
 .text.rt_thread_idle_entry
                0x080063a8       0x14 build\src\idle.o
 .text.rt_thread_idle_init
                0x080063bc       0x48 build\src\idle.o
                0x080063bc                rt_thread_idle_init
 .text.rt_sem_init
                0x08006404       0x50 build\src\ipc.o
                0x08006404                rt_sem_init
 .text.rt_sem_create
                0x08006454       0x70 build\src\ipc.o
                0x08006454                rt_sem_create
 .text.rt_sem_take
                0x080064c4      0x15c build\src\ipc.o
                0x080064c4                rt_sem_take
 .text.rt_sem_release
                0x08006620       0x44 build\src\ipc.o
                0x08006620                rt_sem_release
 .text.rt_interrupt_enter
                0x08006664       0x20 build\src\irq.o
                0x08006664                rt_interrupt_enter
 .text.rt_interrupt_leave
                0x08006684       0x20 build\src\irq.o
                0x08006684                rt_interrupt_leave
 .text.rt_interrupt_get_nest
                0x080066a4        0xc build\src\irq.o
                0x080066a4                rt_interrupt_get_nest
 .text.print_number
                0x080066b0      0x278 build\src\kservice.o
 .text.vsnprintf
                0x08006928      0x4ac build\src\kservice.o
 .text.rt_set_errno
                0x08006dd4       0x20 build\src\kservice.o
                0x08006dd4                rt_set_errno
 .text.rt_memset
                0x08006df4       0xf0 build\src\kservice.o
                0x08006df4                rt_memset
                0x08006df4                memset
 .text.rt_strncpy
                0x08006ee4       0x84 build\src\kservice.o
                0x08006ee4                rt_strncpy
 .text.rt_strncmp
                0x08006f68       0x5c build\src\kservice.o
                0x08006f68                rt_strncmp
 .text.rt_strlen
                0x08006fc4       0x18 build\src\kservice.o
                0x08006fc4                strlen
                0x08006fc4                rt_strlen
 .text.rt_vsprintf
                0x08006fdc       0x14 build\src\kservice.o
                0x08006fdc                rt_vsprintf
                0x08006fdc                vsprintf
 .text.rt_sprintf
                0x08006ff0       0x20 build\src\kservice.o
                0x08006ff0                sprintf
                0x08006ff0                rt_sprintf
 .text.rt_console_set_device
                0x08007010       0x28 build\src\kservice.o
                0x08007010                rt_console_set_device
 .text.rt_hw_console_output
                0x08007038        0x4 build\src\kservice.o
                0x08007038                rt_hw_console_output
 .text.rt_kprintf
                0x0800703c       0x48 build\src\kservice.o
                0x0800703c                rt_kprintf
 .text.rt_show_version
                0x08007084       0x4c build\src\kservice.o
                0x08007084                rt_show_version
 .text.plug_holes
                0x080070d0       0xe4 build\src\mem.o
 .text.rt_system_heap_init
                0x080071b4       0xd4 build\src\mem.o
                0x080071b4                rt_system_heap_init
 .text.rt_malloc
                0x08007288      0x224 build\src\mem.o
                0x08007288                rt_malloc
 .text.rt_free  0x080074ac      0x174 build\src\mem.o
                0x080074ac                rt_free
 .text.rt_object_init
                0x08007620       0x4c build\src\object.o
                0x08007620                rt_object_init
 .text.rt_object_detach
                0x0800766c       0x5c build\src\object.o
                0x0800766c                rt_object_detach
 .text.rt_object_allocate
                0x080076c8       0xa0 build\src\object.o
                0x080076c8                rt_object_allocate
 .text.rt_object_delete
                0x08007768       0x90 build\src\object.o
                0x08007768                rt_object_delete
 .text.rt_object_is_systemobject
                0x080077f8       0x3c build\src\object.o
                0x080077f8                rt_object_is_systemobject
 .text.rt_system_scheduler_init
                0x08007834       0x58 build\src\scheduler.o
                0x08007834                rt_system_scheduler_init
 .text.rt_system_scheduler_start
                0x0800788c       0x60 build\src\scheduler.o
                0x0800788c                rt_system_scheduler_start
 .text.rt_schedule
                0x080078ec      0x120 build\src\scheduler.o
                0x080078ec                rt_schedule
 .text.rt_schedule_insert_thread
                0x08007a0c       0x6c build\src\scheduler.o
                0x08007a0c                rt_schedule_insert_thread
 .text.rt_schedule_remove_thread
                0x08007a78       0x78 build\src\scheduler.o
                0x08007a78                rt_schedule_remove_thread
 .text.rt_enter_critical
                0x08007af0       0x1c build\src\scheduler.o
                0x08007af0                rt_enter_critical
 .text.rt_exit_critical
                0x08007b0c       0x38 build\src\scheduler.o
                0x08007b0c                rt_exit_critical
 .text.rt_thread_timeout
                0x08007b44       0x80 build\src\thread.o
                0x08007b44                rt_thread_timeout
 .text.rt_thread_exit
                0x08007bc4       0x70 build\src\thread.o
 .text._rt_thread_init.isra.0
                0x08007c34       0xa0 build\src\thread.o
 .text.rt_thread_init
                0x08007cd4       0x88 build\src\thread.o
                0x08007cd4                rt_thread_init
 .text.rt_thread_self
                0x08007d5c        0xc build\src\thread.o
                0x08007d5c                rt_thread_self
 .text.rt_thread_create
                0x08007d68       0x4c build\src\thread.o
                0x08007d68                rt_thread_create
 .text.rt_thread_yield
                0x08007db4       0x5c build\src\thread.o
                0x08007db4                rt_thread_yield
 .text.rt_thread_suspend
                0x08007e10       0x5c build\src\thread.o
                0x08007e10                rt_thread_suspend
 .text.rt_thread_sleep
                0x08007e6c       0x74 build\src\thread.o
                0x08007e6c                rt_thread_sleep
 .text.rt_thread_delay
                0x08007ee0        0x4 build\src\thread.o
                0x08007ee0                rt_thread_delay
 .text.rt_thread_resume
                0x08007ee4       0x84 build\src\thread.o
                0x08007ee4                rt_thread_resume
 .text.rt_thread_startup
                0x08007f68       0x88 build\src\thread.o
                0x08007f68                rt_thread_startup
 .text.rt_timer_init
                0x08007ff0       0x60 build\src\timer.o
                0x08007ff0                rt_timer_init
 .text.rt_timer_start
                0x08008050      0x100 build\src\timer.o
                0x08008050                rt_timer_start
 .text.rt_timer_control
                0x08008150       0x64 build\src\timer.o
                0x08008150                rt_timer_control
 .text.rt_timer_check
                0x080081b4       0x90 build\src\timer.o
                0x080081b4                rt_timer_check
 .text.rt_system_timer_init
                0x08008244        0x4 build\src\timer.o
                0x08008244                rt_system_timer_init
 .text.rt_system_timer_thread_init
                0x08008248        0x4 build\src\timer.o
                0x08008248                rt_system_timer_thread_init
 .text.rt_hw_stack_init
                0x0800824c       0x60 build\libcpu\arm\cortex-m3\cpuport.o
                0x0800824c                rt_hw_stack_init
 .text.rt_hw_hard_fault_exception
                0x080082ac       0x88 build\libcpu\arm\cortex-m3\cpuport.o
                0x080082ac                rt_hw_hard_fault_exception
 .text.rt_serial_close
                0x08008334       0x58 build\components\drivers\serial\serial.o
 .text.rt_serial_open
                0x0800838c       0x58 build\components\drivers\serial\serial.o
 .text.rt_serial_write
                0x080083e4      0x288 build\components\drivers\serial\serial.o
 .text.rt_serial_read
                0x0800866c      0x188 build\components\drivers\serial\serial.o
 .text.rt_serial_control
                0x080087f4       0x68 build\components\drivers\serial\serial.o
 .text.rt_serial_init
                0x0800885c       0xbc build\components\drivers\serial\serial.o
 .text.rt_hw_serial_register
                0x08008918       0x80 build\components\drivers\serial\serial.o
                0x08008918                rt_hw_serial_register
 .text.rt_hw_serial_isr
                0x08008998       0x9c build\components\drivers\serial\serial.o
                0x08008998                rt_hw_serial_isr
 .text.rt_data_queue_init
                0x08008a34       0x70 build\components\drivers\src\dataqueue.o
                0x08008a34                rt_data_queue_init
 .text.rt_data_queue_push
                0x08008aa4      0x158 build\components\drivers\src\dataqueue.o
                0x08008aa4                rt_data_queue_push
 .text.rt_data_queue_pop
                0x08008bfc      0x1b4 build\components\drivers\src\dataqueue.o
                0x08008bfc                rt_data_queue_pop
 .text.atoi     0x08008db0       0x5c build\components\libc\minilibc\stdlib.o
                0x08008db0                atoi
 .text.strncpy  0x08008e0c        0x4 build\components\libc\minilibc\string.o
                0x08008e0c                strncpy
 .text.strcmp   0x08008e10       0x24 build\components\libc\minilibc\string.o
                0x08008e10                strcmp
 .text.strncmp  0x08008e34       0x5c build\components\libc\minilibc\string.o
                0x08008e34                strncmp
 .text.strchr   0x08008e90       0x28 build\components\libc\minilibc\string.o
                0x08008e90                strchr
 *(.rodata)
 .rodata        0x08008eb8        0x8 build\drivers\usart.o
 .rodata        0x08008ec0       0x28 build\motor\src\pwm.o
 *(.rodata*)
 .rodata.str1.4
                0x08008ee8       0x21 build\applications\application.o
                                 0x24 (size before relaxing)
 *fill*         0x08008f09        0x3 00000000
 .rodata.str1.4
                0x08008f0c       0x4e build\applications\startup.o
                                 0x50 (size before relaxing)
 *fill*         0x08008f5a        0x2 00000000
 .rodata.str1.4
                0x08008f5c        0x6 build\drivers\board.o
                                  0x8 (size before relaxing)
 *fill*         0x08008f62        0x2 00000000
 .rodata.__FUNCTION__.7354
                0x08008f64        0xc build\drivers\usart.o
 .rodata.stm32_uart_ops
                0x08008f70       0x14 build\drivers\usart.o
 .rodata.__FUNCTION__.7313
                0x08008f84       0x10 build\drivers\usart.o
 .rodata.str1.4
                0x08008f94       0x52 build\drivers\usart.o
                                 0x5c (size before relaxing)
 *fill*         0x08008fe6        0x2 00000000
 .rodata.__FUNCTION__.7328
                0x08008fe8       0x10 build\drivers\usart.o
 .rodata.__FUNCTION__.7341
                0x08008ff8        0xc build\drivers\usart.o
 .rodata.str1.4
                0x08009004       0x39 build\Libraries\STM32F10x_StdPeriph_Driver\src\stm32f10x_rcc.o
                                 0x3c (size before relaxing)
 *fill*         0x0800903d        0x3 00000000
 .rodata.str1.4
                0x08009040       0x3a build\Libraries\STM32F10x_StdPeriph_Driver\src\stm32f10x_exti.o
                                 0x3c (size before relaxing)
 *fill*         0x0800907a        0x2 00000000
 .rodata.str1.4
                0x0800907c       0x39 build\Libraries\STM32F10x_StdPeriph_Driver\src\stm32f10x_adc.o
                                 0x3c (size before relaxing)
 *fill*         0x080090b5        0x3 00000000
 .rodata.str1.4
                0x080090b8       0x39 build\Libraries\STM32F10x_StdPeriph_Driver\src\stm32f10x_tim.o
                                 0x3c (size before relaxing)
 *fill*         0x080090f1        0x3 00000000
 .rodata.str1.4
                0x080090f4       0x3b build\Libraries\STM32F10x_StdPeriph_Driver\src\stm32f10x_flash.o
                                 0x3c (size before relaxing)
 *fill*         0x0800912f        0x1 00000000
 .rodata.str1.4
                0x08009130       0x3a build\Libraries\STM32F10x_StdPeriph_Driver\src\stm32f10x_gpio.o
                                 0x3c (size before relaxing)
 *fill*         0x0800916a        0x2 00000000
 .rodata.str1.4
                0x0800916c       0x3b build\Libraries\STM32F10x_StdPeriph_Driver\src\stm32f10x_usart.o
                                 0x3c (size before relaxing)
 *fill*         0x080091a7        0x1 00000000
 .rodata.str1.4
                0x080091a8       0x39 build\Libraries\STM32F10x_StdPeriph_Driver\src\stm32f10x_dma.o
                                 0x3c (size before relaxing)
 *fill*         0x080091e1        0x3 00000000
 .rodata.str1.4
                0x080091e4       0x30 build\Libraries\STM32F10x_StdPeriph_Driver\src\misc.o
 .rodata.str1.4
                0x08009214       0xa0 build\motor\src\adc.o
 .rodata.str1.4
                0x080092b4      0x108 build\motor\src\cmd.o
 .rodata.str1.4
                0x080093bc       0x1a build\motor\src\entry.o
                                 0x1c (size before relaxing)
 *fill*         0x080093d6        0x2 00000000
 .rodata.str1.4
                0x080093d8      0x171 build\motor\src\pwm.o
                                0x17c (size before relaxing)
 *fill*         0x08009549        0x3 00000000
 .rodata.str1.4
                0x0800954c       0x54 build\motor\src\vout.o
                                 0x58 (size before relaxing)
 .rodata.str1.4
                0x080095a0       0x8a build\motor\src\pga.o
                                 0x8c (size before relaxing)
 *fill*         0x0800962a        0x2 00000000
 .rodata.str1.4
                0x0800962c        0x4 build\usb_hid\src\entry.o
 .rodata.GPIO_PIN
                0x08009630        0x8 build\usb_hid\src\stm3210b_eval.o
                0x08009630                GPIO_PIN
 .rodata.CustomHID_DeviceDescriptor
                0x08009638       0x14 build\usb_hid\src\usb_desc.o
                0x08009638                CustomHID_DeviceDescriptor
 .rodata.CustomHID_StringProduct
                0x0800964c       0x20 build\usb_hid\src\usb_desc.o
                0x0800964c                CustomHID_StringProduct
 .rodata.CustomHID_StringVendor
                0x0800966c       0x28 build\usb_hid\src\usb_desc.o
                0x0800966c                CustomHID_StringVendor
 .rodata.CustomHID_ReportDescriptor
                0x08009694       0xa4 build\usb_hid\src\usb_desc.o
                0x08009694                CustomHID_ReportDescriptor
 .rodata.CustomHID_ConfigDescriptor
                0x08009738       0x2c build\usb_hid\src\usb_desc.o
                0x08009738                CustomHID_ConfigDescriptor
 .rodata.CustomHID_StringLangID
                0x08009764        0x4 build\usb_hid\src\usb_desc.o
                0x08009764                CustomHID_StringLangID
 .rodata.__FUNCTION__.4698
                0x08009768       0x10 build\src\device.o
 .rodata.str1.4
                0x08009778       0x46 build\src\device.o
                                 0x68 (size before relaxing)
 *fill*         0x080097be        0x2 00000000
 .rodata.__FUNCTION__.4667
                0x080097c0       0x10 build\src\device.o
 .rodata.__FUNCTION__.4676
                0x080097d0       0x10 build\src\device.o
 .rodata.str1.4
                0x080097e0       0x2a build\src\idle.o
                                 0x50 (size before relaxing)
 *fill*         0x0800980a        0x2 00000000
 .rodata.__FUNCTION__.4684
                0x0800980c       0x18 build\src\idle.o
 .rodata.__FUNCTION__.4755
                0x08009824        0xc build\src\ipc.o
 .rodata.str1.4
                0x08009830        0xf build\src\ipc.o
                                 0x58 (size before relaxing)
 *fill*         0x0800983f        0x1 00000000
 .rodata.__FUNCTION__.4730
                0x08009840       0x10 build\src\ipc.o
 .rodata.__FUNCTION__.4711
                0x08009850        0xc build\src\ipc.o
 .rodata.small_digits.4834
                0x0800985c       0x14 build\src\kservice.o
 .rodata.large_digits.4835
                0x08009870       0x14 build\src\kservice.o
 .rodata.str1.4
                0x08009884       0x8e build\src\kservice.o
                                 0x90 (size before relaxing)
 *fill*         0x08009912        0x2 00000000
 .rodata.__FUNCTION__.4735
                0x08009914        0xc build\src\mem.o
 .rodata.__FUNCTION__.4702
                0x08009920        0xc build\src\mem.o
 .rodata.str1.4
                0x0800992c      0x215 build\src\mem.o
                                0x260 (size before relaxing)
 *fill*         0x08009b41        0x3 00000000
 .rodata.__FUNCTION__.4722
                0x08009b44       0x14 build\src\mem.o
 .rodata.__FUNCTION__.4794
                0x08009b58        0x8 build\src\mem.o
 .rodata.__FUNCTION__.4741
                0x08009b60       0x14 build\src\object.o
 .rodata.__FUNCTION__.4753
                0x08009b74       0x1c build\src\object.o
 .rodata.str1.4
                0x08009b90       0x3d build\src\object.o
                                 0x88 (size before relaxing)
 *fill*         0x08009bcd        0x3 00000000
 .rodata.__FUNCTION__.4719
                0x08009bd0       0x14 build\src\object.o
 .rodata.__FUNCTION__.4731
                0x08009be4       0x14 build\src\object.o
 .rodata.__FUNCTION__.4690
                0x08009bf8       0x1c build\src\scheduler.o
 .rodata.str1.4
                0x08009c14       0x65 build\src\scheduler.o
                                 0x88 (size before relaxing)
 *fill*         0x08009c79        0x3 00000000
 .rodata.rt_lowest_bitmap
                0x08009c7c      0x100 build\src\scheduler.o
                0x08009c7c                rt_lowest_bitmap
 .rodata.__FUNCTION__.4724
                0x08009d7c       0x1c build\src\scheduler.o
 .rodata.__FUNCTION__.4733
                0x08009d98       0x1c build\src\scheduler.o
 .rodata.__FUNCTION__.4690
                0x08009db4       0x10 build\src\thread.o
 .rodata.__FUNCTION__.4797
                0x08009dc4       0x14 build\src\thread.o
 .rodata.__FUNCTION__.4806
                0x08009dd8       0x14 build\src\thread.o
 .rodata.__FUNCTION__.4815
                0x08009dec       0x14 build\src\thread.o
 .rodata.str1.4
                0x08009e00       0x7f build\src\thread.o
                                 0xb4 (size before relaxing)
 *fill*         0x08009e7f        0x1 00000000
 .rodata.__FUNCTION__.4769
                0x08009e80       0x10 build\src\thread.o
 .rodata.__FUNCTION__.4706
                0x08009e90       0x10 build\src\thread.o
 .rodata.__FUNCTION__.4721
                0x08009ea0       0x14 build\src\thread.o
 .rodata.__FUNCTION__.4742
                0x08009eb4       0x10 build\src\timer.o
 .rodata.__FUNCTION__.4703
                0x08009ec4       0x10 build\src\timer.o
 .rodata.str1.4
                0x08009ed4       0x37 build\src\timer.o
                                 0x58 (size before relaxing)
 *fill*         0x08009f0b        0x1 00000000
 .rodata.__FUNCTION__.4768
                0x08009f0c       0x14 build\src\timer.o
 .rodata.str1.4
                0x08009f20       0xa9 build\libcpu\arm\cortex-m3\cpuport.o
                                 0xd0 (size before relaxing)
 *fill*         0x08009fc9        0x3 00000000
 .rodata.__FUNCTION__.4846
                0x08009fcc       0x10 build\components\drivers\serial\serial.o
 .rodata.__FUNCTION__.4856
                0x08009fdc       0x10 build\components\drivers\serial\serial.o
 .rodata.__FUNCTION__.4870
                0x08009fec       0x10 build\components\drivers\serial\serial.o
 .rodata.__FUNCTION__.4916
                0x08009ffc       0x14 build\components\drivers\serial\serial.o
 .rodata.__FUNCTION__.4941
                0x0800a010       0x14 build\components\drivers\serial\serial.o
 .rodata.__FUNCTION__.4932
                0x0800a024       0x18 build\components\drivers\serial\serial.o
 .rodata.str1.4
                0x0800a03c       0x58 build\components\drivers\serial\serial.o
                                 0x9c (size before relaxing)
 .rodata.__FUNCTION__.4891
                0x0800a094       0x10 build\components\drivers\serial\serial.o
 .rodata.__FUNCTION__.4835
                0x0800a0a4       0x10 build\components\drivers\serial\serial.o
 .rodata.__FUNCTION__.4855
                0x0800a0b4       0x14 build\components\drivers\src\dataqueue.o
 .rodata.__FUNCTION__.4816
                0x0800a0c8       0x14 build\components\drivers\src\dataqueue.o
 .rodata.str1.4
                0x0800a0dc       0x38 build\components\drivers\src\dataqueue.o
                                 0x80 (size before relaxing)
 .rodata.__FUNCTION__.4831
                0x0800a114       0x14 build\components\drivers\src\dataqueue.o
 *(.glue_7)
 .glue_7        0x00000000        0x0 linker stubs
 *(.glue_7t)
 .glue_7t       0x00000000        0x0 linker stubs
 *(.gnu.linkonce.t*)
                0x0800a128                . = ALIGN (0x4)
                0x0800a128                __fsymtab_start = .
 *(FSymTab)
                0x0800a128                __fsymtab_end = .
                0x0800a128                . = ALIGN (0x4)
                0x0800a128                __vsymtab_start = .
 *(VSymTab)
                0x0800a128                __vsymtab_end = .
                0x0800a128                . = ALIGN (0x4)
                0x0800a128                . = ALIGN (0x4)
                0x0800a128                __rt_init_start = .
 *(SORT(.rti_fn*))
                0x0800a128                __rt_init_end = .
                0x0800a128                . = ALIGN (0x4)
                0x0800a128                . = ALIGN (0x4)
                0x0800a128                _etext = .
                0x0800a128                __exidx_start = .

.vfp11_veneer   0x0800a128        0x0
 .vfp11_veneer  0x00000000        0x0 linker stubs

.v4_bx          0x0800a128        0x0
 .v4_bx         0x00000000        0x0 linker stubs

.iplt           0x0800a128        0x0
 .iplt          0x00000000        0x0 c:/gcc-arm/bin/../lib/gcc/arm-none-eabi/4.7.3/armv7-m/crtbegin.o

.rel.dyn        0x0800a128        0x0
 .rel.iplt      0x00000000        0x0 c:/gcc-arm/bin/../lib/gcc/arm-none-eabi/4.7.3/armv7-m/crtbegin.o

.ARM.exidx      0x0800a128        0x0
 *(.ARM.exidx* .gnu.linkonce.armexidx.*)
                0x0800a128                _sidata = .
                0x0800a128                __exidx_end = .

.data           0x20000000      0x314 load address 0x0800a128
                0x20000000                . = ALIGN (0x4)
                0x20000000                _sdata = .
 *(.data)
 *(.data.*)
 .data.uart3    0x20000000        0x8 build\drivers\usart.o
                0x20000000                uart3
 .data.uart2    0x20000008        0x8 build\drivers\usart.o
                0x20000008                uart2
 .data.uart1    0x20000010        0x8 build\drivers\usart.o
                0x20000010                uart1
 .data.SystemCoreClock
                0x20000018        0x4 build\Libraries\CMSIS\CM3\DeviceSupport\ST\STM32F10x\system_stm32f10x.o
                0x20000018                SystemCoreClock
 .data.ADCPrescTable
                0x2000001c        0x4 build\Libraries\STM32F10x_StdPeriph_Driver\src\stm32f10x_rcc.o
 .data.APBAHBPrescTable
                0x20000020       0x10 build\Libraries\STM32F10x_StdPeriph_Driver\src\stm32f10x_rcc.o
 .data.gAdc     0x20000030       0x40 build\motor\src\adc.o
                0x20000030                gAdc
 .data.gAdc_cfg
                0x20000070       0x20 build\motor\src\adc.o
                0x20000070                gAdc_cfg
 .data.gSW      0x20000090        0x8 build\motor\src\adc.o
                0x20000090                gSW
 .data.SW_status
                0x20000098        0x1 build\motor\src\adc.o
                0x20000098                SW_status
 *fill*         0x20000099        0x3 00
 .data.gCalibr  0x2000009c       0x18 build\motor\src\cmd.o
                0x2000009c                gCalibr
 .data.gF103    0x200000b4       0x38 build\motor\src\cmd.o
                0x200000b4                gF103
 .data.gCounter_Pin
                0x200000ec        0x8 build\motor\src\counter.o
                0x200000ec                gCounter_Pin
 .data.gCounter_DirPin
                0x200000f4        0x8 build\motor\src\counter.o
                0x200000f4                gCounter_DirPin
 .data.gMotor   0x200000fc       0x28 build\motor\src\pwm.o
                0x200000fc                gMotor
 .data.gPWM1    0x20000124       0x30 build\motor\src\pwm.o
                0x20000124                gPWM1
 .data.gVout    0x20000154       0x20 build\motor\src\vout.o
                0x20000154                gVout
 .data.Vout_Value
                0x20000174        0x4 build\motor\src\vout.o
                0x20000174                Vout_Value
 .data.stable_time
                0x20000178        0x4 build\motor\src\pga.o
                0x20000178                stable_time
 .data.gPGA_ports
                0x2000017c       0x40 build\motor\src\pga.o
                0x2000017c                gPGA_ports
 .data.PrevXferComplete
                0x200001bc        0x1 build\usb_hid\src\entry.o
                0x200001bc                PrevXferComplete
 *fill*         0x200001bd        0x3 00
 .data.GPIO_PORT
                0x200001c0       0x10 build\usb_hid\src\stm3210b_eval.o
                0x200001c0                GPIO_PORT
 .data.CustomHID_StringSerial
                0x200001d0       0x1c build\usb_hid\src\usb_desc.o
                0x200001d0                CustomHID_StringSerial
 .data.pEpInt_IN
                0x200001ec       0x1c build\usb_hid\src\usb_istr.o
                0x200001ec                pEpInt_IN
 .data.pEpInt_OUT
                0x20000208       0x1c build\usb_hid\src\usb_istr.o
                0x20000208                pEpInt_OUT
 .data.Config_Descriptor
                0x20000224        0x8 build\usb_hid\src\usb_prop.o
                0x20000224                Config_Descriptor
 .data.Device_Property
                0x2000022c       0x30 build\usb_hid\src\usb_prop.o
                0x2000022c                Device_Property
 .data.User_Standard_Requests
                0x2000025c       0x24 build\usb_hid\src\usb_prop.o
                0x2000025c                User_Standard_Requests
 .data.CustomHID_Report_Descriptor
                0x20000280        0x8 build\usb_hid\src\usb_prop.o
                0x20000280                CustomHID_Report_Descriptor
 .data.Device_Descriptor
                0x20000288        0x8 build\usb_hid\src\usb_prop.o
                0x20000288                Device_Descriptor
 .data.String_Descriptor
                0x20000290       0x20 build\usb_hid\src\usb_prop.o
                0x20000290                String_Descriptor
 .data.CustomHID_Hid_Descriptor
                0x200002b0        0x8 build\usb_hid\src\usb_prop.o
                0x200002b0                CustomHID_Hid_Descriptor
 .data.Device_Table
                0x200002b8        0x4 build\usb_hid\src\usb_prop.o
                0x200002b8                Device_Table
 .data.rt_object_container
                0x200002bc       0x50 build\src\object.o
                0x200002bc                rt_object_container
 .data.rt_timer_list
                0x2000030c        0x8 build\src\timer.o
 *(.gnu.linkonce.d*)
                0x20000314                . = ALIGN (0x4)
                0x20000314                _edata = .

.igot.plt       0x20000314        0x0 load address 0x0800a43c
 .igot.plt      0x00000000        0x0 c:/gcc-arm/bin/../lib/gcc/arm-none-eabi/4.7.3/armv7-m/crtbegin.o

.stack          0x20000314      0x400 load address 0x0800a43c
                0x20000714                . = (. + _system_stack_size)
 *fill*         0x20000314      0x400 00
                0x20000714                . = ALIGN (0x4)
                0x20000714                _estack = .
                0x20000714                __bss_start = .

.bss            0x20000714     0x16d0 load address 0x0800a83c
                0x20000714                . = ALIGN (0x4)
                0x20000714                _sbss = .
 *(.bss)
 *(.bss.*)
 .bss.led_stack
                0x20000714      0x200 build\applications\application.o
 .bss.led_thread
                0x20000914       0x78 build\applications\application.o
 .bss.gThermo_flag
                0x2000098c        0x4 build\motor\src\adc.o
                0x2000098c                gThermo_flag
 .bss.gSW_status
                0x20000990        0x4 build\motor\src\adc.o
                0x20000990                gSW_status
 .bss.status_tim3
                0x20000994        0x4 build\motor\src\counter.o
                0x20000994                status_tim3
 .bss.pollar_flag
                0x20000998        0x4 build\motor\src\pwm.o
                0x20000998                pollar_flag
 .bss.zero_flag
                0x2000099c        0x4 build\motor\src\pwm.o
                0x2000099c                zero_flag
 .bss.TimingDelay
                0x200009a0        0x4 build\usb_hid\src\entry.o
                0x200009a0                TimingDelay
 .bss.Data_Mul_MaxPacketSize
                0x200009a4        0x1 build\usb_hid\src\usb_core.o
                0x200009a4                Data_Mul_MaxPacketSize
 *fill*         0x200009a5        0x3 00
 .bss.sem_printf
                0x200009a8        0x4 build\usb_hid\src\usb_endp.o
                0x200009a8                sem_printf
 .bss.Request   0x200009ac        0x1 build\usb_hid\src\usb_prop.o
                0x200009ac                Request
 *fill*         0x200009ad        0x3 00
 .bss.bDeviceState
                0x200009b0        0x4 build\usb_hid\src\usb_pwr.o
                0x200009b0                bDeviceState
 .bss.rt_tick   0x200009b4        0x4 build\src\clock.o
 .bss.idle      0x200009b8       0x78 build\src\idle.o
 .bss.rt_thread_idle_hook
                0x20000a30        0x4 build\src\idle.o
 .bss.rt_thread_stack
                0x20000a34      0x100 build\src\idle.o
 .bss._errno    0x20000b34        0x4 build\src\kservice.o
 .bss.rt_log_buf.4943
                0x20000b38       0x80 build\src\kservice.o
 .bss._console_device
                0x20000bb8        0x4 build\src\kservice.o
 .bss.mem_size_aligned
                0x20000bbc        0x4 build\src\mem.o
 .bss.lfree     0x20000bc0        0x4 build\src\mem.o
 .bss.used_mem  0x20000bc4        0x4 build\src\mem.o
 .bss.rt_malloc_hook
                0x20000bc8        0x4 build\src\mem.o
 .bss.heap_end  0x20000bcc        0x4 build\src\mem.o
 .bss.heap_sem  0x20000bd0       0x20 build\src\mem.o
 .bss.rt_free_hook
                0x20000bf0        0x4 build\src\mem.o
 .bss.heap_ptr  0x20000bf4        0x4 build\src\mem.o
 .bss.max_mem   0x20000bf8        0x4 build\src\mem.o
 .bss.rt_object_attach_hook
                0x20000bfc        0x4 build\src\object.o
 .bss.rt_object_detach_hook
                0x20000c00        0x4 build\src\object.o
 .bss.rt_scheduler_lock_nest
                0x20000c04        0x2 build\src\scheduler.o
 *fill*         0x20000c06        0x2 00
 .bss.rt_scheduler_hook
                0x20000c08        0x4 build\src\scheduler.o
 .bss.rt_timer_timeout_hook
                0x20000c0c        0x4 build\src\timer.o
 .bss.rt_exception_hook
                0x20000c10        0x4 build\libcpu\arm\cortex-m3\cpuport.o
 *(COMMON)
 COMMON         0x20000c14      0x240 build\drivers\usart.o
                0x20000c14                uart3_int_rx
                0x20000c58                serial1
                0x20000cd4                uart2_int_rx
                0x20000d18                serial3
                0x20000d94                uart1_int_rx
                0x20000dd8                serial2
 COMMON         0x20000e54      0x4c4 build\motor\src\adc.o
                0x20000e54                gData
                0x20000f10                ad_sample_thread
                0x20000f88                ad_sample_stack
                0x20001188                filter_buffer
 COMMON         0x20001318      0x6a4 build\motor\src\cmd.o
                0x20001318                gConsole
                0x20001320                cmd_thread
                0x20001398                gCmd_dealer
                0x200017bc                cmd_stack
 COMMON         0x200019bc      0x278 build\motor\src\pwm.o
                0x200019bc                event_thread
                0x20001a34                event_stack
 COMMON         0x20001c34        0x2 build\usb_hid\src\usb_core.o
                0x20001c34                StatusInfo
 *fill*         0x20001c36        0x2 00
 COMMON         0x20001c38       0x32 build\usb_hid\src\usb_init.o
                0x20001c38                SaveState
                0x20001c3c                pProperty
                0x20001c40                EPindex
                0x20001c44                Device_Info
                0x20001c60                pUser_Standard_Requests
                0x20001c64                pInformation
                0x20001c68                wInterrupt_Mask
 COMMON         0x20001c6a        0x4 build\usb_hid\src\usb_int.o
                0x20001c6a                SaveRState
                0x20001c6c                SaveTState
 COMMON         0x20001c6e        0x2 build\usb_hid\src\usb_istr.o
                0x20001c6e                wIstr
 COMMON         0x20001c70       0x45 build\usb_hid\src\usb_prop.o
                0x20001c70                ProtocolValue
                0x20001c74                Report_Buf
                0x20001cb4                EXTI_Enable
 COMMON         0x20001cb5        0x1 build\src\irq.o
                0x20001cb5                rt_interrupt_nest
 *fill*         0x20001cb6        0x2 00
 COMMON         0x20001cb8        0xc build\src\object.o
                0x20001cb8                rt_object_put_hook
                0x20001cbc                rt_object_take_hook
                0x20001cc0                rt_object_trytake_hook
 COMMON         0x20001cc4      0x114 build\src\scheduler.o
                0x20001cc4                rt_thread_priority_table
                0x20001dc4                rt_current_priority
                0x20001dc8                rt_current_thread
                0x20001dcc                rt_thread_ready_priority_group
                0x20001dd0                rt_thread_defunct
 COMMON         0x20001dd8        0xc build\libcpu\arm\cortex-m3\cpuport.o
                0x20001dd8                rt_interrupt_to_thread
                0x20001ddc                rt_interrupt_from_thread
                0x20001de0                rt_thread_switch_interrupt_flag
                0x20001de4                . = ALIGN (0x4)
                0x20001de4                _ebss = .
 *(.bss.init)
                0x20001de4                __bss_end = .
                0x20001de4                _end = .

.stab
 *(.stab)

.stabstr
 *(.stabstr)

.stab.excl
 *(.stab.excl)

.stab.exclstr
 *(.stab.exclstr)

.stab.index
 *(.stab.index)

.stab.indexstr
 *(.stab.indexstr)

.comment        0x00000000       0x70
 *(.comment)
 .comment       0x00000000       0x70 build\applications\application.o
                                 0x71 (size before relaxing)
 .comment       0x00000000       0x71 build\applications\startup.o
 .comment       0x00000000       0x71 build\drivers\board.o
 .comment       0x00000000       0x71 build\drivers\stm32f10x_it.o
 .comment       0x00000000       0x71 build\drivers\led.o
 .comment       0x00000000       0x71 build\drivers\usart.o
 .comment       0x00000000       0x71 build\Libraries\CMSIS\CM3\DeviceSupport\ST\STM32F10x\system_stm32f10x.o
 .comment       0x00000000       0x71 build\Libraries\STM32F10x_StdPeriph_Driver\src\stm32f10x_rcc.o
 .comment       0x00000000       0x71 build\Libraries\STM32F10x_StdPeriph_Driver\src\stm32f10x_exti.o
 .comment       0x00000000       0x71 build\Libraries\STM32F10x_StdPeriph_Driver\src\stm32f10x_adc.o
 .comment       0x00000000       0x71 build\Libraries\STM32F10x_StdPeriph_Driver\src\stm32f10x_tim.o
 .comment       0x00000000       0x71 build\Libraries\STM32F10x_StdPeriph_Driver\src\stm32f10x_flash.o
 .comment       0x00000000       0x71 build\Libraries\STM32F10x_StdPeriph_Driver\src\stm32f10x_gpio.o
 .comment       0x00000000       0x71 build\Libraries\STM32F10x_StdPeriph_Driver\src\stm32f10x_usart.o
 .comment       0x00000000       0x71 build\Libraries\STM32F10x_StdPeriph_Driver\src\stm32f10x_dma.o
 .comment       0x00000000       0x71 build\Libraries\STM32F10x_StdPeriph_Driver\src\misc.o
 .comment       0x00000000       0x71 build\motor\src\adc.o
 .comment       0x00000000       0x71 build\motor\src\cmd.o
 .comment       0x00000000       0x71 build\motor\src\counter.o
 .comment       0x00000000       0x71 build\motor\src\entry.o
 .comment       0x00000000       0x71 build\motor\src\pwm.o
 .comment       0x00000000       0x71 build\motor\src\vout.o
 .comment       0x00000000       0x71 build\motor\src\pga.o
 .comment       0x00000000       0x71 build\usb_hid\src\entry.o
 .comment       0x00000000       0x71 build\usb_hid\src\hw_config.o
 .comment       0x00000000       0x71 build\usb_hid\src\stm3210b_eval.o
 .comment       0x00000000       0x71 build\usb_hid\src\stm32_it.o
 .comment       0x00000000       0x71 build\usb_hid\src\usb_core.o
 .comment       0x00000000       0x71 build\usb_hid\src\usb_desc.o
 .comment       0x00000000       0x71 build\usb_hid\src\usb_endp.o
 .comment       0x00000000       0x71 build\usb_hid\src\usb_init.o
 .comment       0x00000000       0x71 build\usb_hid\src\usb_int.o
 .comment       0x00000000       0x71 build\usb_hid\src\usb_istr.o
 .comment       0x00000000       0x71 build\usb_hid\src\usb_mem.o
 .comment       0x00000000       0x71 build\usb_hid\src\usb_prop.o
 .comment       0x00000000       0x71 build\usb_hid\src\usb_pwr.o
 .comment       0x00000000       0x71 build\usb_hid\src\usb_regs.o
 .comment       0x00000000       0x71 build\usb_hid\src\usb_sil.o
 .comment       0x00000000       0x71 build\src\clock.o
 .comment       0x00000000       0x71 build\src\device.o
 .comment       0x00000000       0x71 build\src\idle.o
 .comment       0x00000000       0x71 build\src\ipc.o
 .comment       0x00000000       0x71 build\src\irq.o
 .comment       0x00000000       0x71 build\src\kservice.o
 .comment       0x00000000       0x71 build\src\mem.o
 .comment       0x00000000       0x71 build\src\object.o
 .comment       0x00000000       0x71 build\src\scheduler.o
 .comment       0x00000000       0x71 build\src\thread.o
 .comment       0x00000000       0x71 build\src\timer.o
 .comment       0x00000000       0x71 build\libcpu\arm\cortex-m3\cpuport.o
 .comment       0x00000000       0x71 build\components\drivers\serial\serial.o
 .comment       0x00000000       0x71 build\components\drivers\src\dataqueue.o
 .comment       0x00000000       0x71 build\components\libc\minilibc\stdlib.o
 .comment       0x00000000       0x71 build\components\libc\minilibc\string.o

.ARM.attributes
                0x00000000       0x29
 .ARM.attributes
                0x00000000       0x33 build\applications\application.o
 .ARM.attributes
                0x00000033       0x33 build\applications\startup.o
 .ARM.attributes
                0x00000066       0x33 build\drivers\board.o
 .ARM.attributes
                0x00000099       0x33 build\drivers\stm32f10x_it.o
 .ARM.attributes
                0x000000cc       0x33 build\drivers\led.o
 .ARM.attributes
                0x000000ff       0x33 build\drivers\usart.o
 .ARM.attributes
                0x00000132       0x33 build\Libraries\CMSIS\CM3\DeviceSupport\ST\STM32F10x\system_stm32f10x.o
 .ARM.attributes
                0x00000165       0x33 build\Libraries\STM32F10x_StdPeriph_Driver\src\stm32f10x_rcc.o
 .ARM.attributes
                0x00000198       0x33 build\Libraries\STM32F10x_StdPeriph_Driver\src\stm32f10x_exti.o
 .ARM.attributes
                0x000001cb       0x33 build\Libraries\STM32F10x_StdPeriph_Driver\src\stm32f10x_adc.o
 .ARM.attributes
                0x000001fe       0x33 build\Libraries\STM32F10x_StdPeriph_Driver\src\stm32f10x_tim.o
 .ARM.attributes
                0x00000231       0x33 build\Libraries\STM32F10x_StdPeriph_Driver\src\stm32f10x_flash.o
 .ARM.attributes
                0x00000264       0x33 build\Libraries\STM32F10x_StdPeriph_Driver\src\stm32f10x_gpio.o
 .ARM.attributes
                0x00000297       0x33 build\Libraries\STM32F10x_StdPeriph_Driver\src\stm32f10x_usart.o
 .ARM.attributes
                0x000002ca       0x33 build\Libraries\STM32F10x_StdPeriph_Driver\src\stm32f10x_dma.o
 .ARM.attributes
                0x000002fd       0x33 build\Libraries\STM32F10x_StdPeriph_Driver\src\misc.o
 .ARM.attributes
                0x00000330       0x21 build\Libraries\CMSIS\CM3\DeviceSupport\ST\STM32F10x\startup\gcc_ride7\startup_stm32f10x_md.o
 .ARM.attributes
                0x00000351       0x33 build\motor\src\adc.o
 .ARM.attributes
                0x00000384       0x33 build\motor\src\cmd.o
 .ARM.attributes
                0x000003b7       0x33 build\motor\src\counter.o
 .ARM.attributes
                0x000003ea       0x33 build\motor\src\entry.o
 .ARM.attributes
                0x0000041d       0x33 build\motor\src\pwm.o
 .ARM.attributes
                0x00000450       0x33 build\motor\src\vout.o
 .ARM.attributes
                0x00000483       0x33 build\motor\src\pga.o
 .ARM.attributes
                0x000004b6       0x33 build\usb_hid\src\entry.o
 .ARM.attributes
                0x000004e9       0x33 build\usb_hid\src\hw_config.o
 .ARM.attributes
                0x0000051c       0x33 build\usb_hid\src\stm3210b_eval.o
 .ARM.attributes
                0x0000054f       0x33 build\usb_hid\src\stm32_it.o
 .ARM.attributes
                0x00000582       0x33 build\usb_hid\src\usb_core.o
 .ARM.attributes
                0x000005b5       0x33 build\usb_hid\src\usb_desc.o
 .ARM.attributes
                0x000005e8       0x33 build\usb_hid\src\usb_endp.o
 .ARM.attributes
                0x0000061b       0x33 build\usb_hid\src\usb_init.o
 .ARM.attributes
                0x0000064e       0x33 build\usb_hid\src\usb_int.o
 .ARM.attributes
                0x00000681       0x33 build\usb_hid\src\usb_istr.o
 .ARM.attributes
                0x000006b4       0x33 build\usb_hid\src\usb_mem.o
 .ARM.attributes
                0x000006e7       0x33 build\usb_hid\src\usb_prop.o
 .ARM.attributes
                0x0000071a       0x33 build\usb_hid\src\usb_pwr.o
 .ARM.attributes
                0x0000074d       0x33 build\usb_hid\src\usb_regs.o
 .ARM.attributes
                0x00000780       0x33 build\usb_hid\src\usb_sil.o
 .ARM.attributes
                0x000007b3       0x33 build\src\clock.o
 .ARM.attributes
                0x000007e6       0x33 build\src\device.o
 .ARM.attributes
                0x00000819       0x33 build\src\idle.o
 .ARM.attributes
                0x0000084c       0x33 build\src\ipc.o
 .ARM.attributes
                0x0000087f       0x33 build\src\irq.o
 .ARM.attributes
                0x000008b2       0x33 build\src\kservice.o
 .ARM.attributes
                0x000008e5       0x33 build\src\mem.o
 .ARM.attributes
                0x00000918       0x33 build\src\object.o
 .ARM.attributes
                0x0000094b       0x33 build\src\scheduler.o
 .ARM.attributes
                0x0000097e       0x33 build\src\thread.o
 .ARM.attributes
                0x000009b1       0x33 build\src\timer.o
 .ARM.attributes
                0x000009e4       0x33 build\libcpu\arm\cortex-m3\cpuport.o
 .ARM.attributes
                0x00000a17       0x21 build\libcpu\arm\cortex-m3\context_gcc.o
 .ARM.attributes
                0x00000a38       0x33 build\components\drivers\serial\serial.o
 .ARM.attributes
                0x00000a6b       0x33 build\components\drivers\src\dataqueue.o
 .ARM.attributes
                0x00000a9e       0x33 build\components\libc\minilibc\stdlib.o
 .ARM.attributes
                0x00000ad1       0x33 build\components\libc\minilibc\string.o

.debug
 *(.debug)

.line
 *(.line)

.debug_srcinfo
 *(.debug_srcinfo)

.debug_sfnames
 *(.debug_sfnames)

.debug_aranges
 *(.debug_aranges)

.debug_pubnames
 *(.debug_pubnames)

.debug_info
 *(.debug_info .gnu.linkonce.wi.*)

.debug_abbrev
 *(.debug_abbrev)

.debug_line
 *(.debug_line)

.debug_frame
 *(.debug_frame)

.debug_str
 *(.debug_str)

.debug_loc
 *(.debug_loc)

.debug_macinfo
 *(.debug_macinfo)

.debug_weaknames
 *(.debug_weaknames)

.debug_funcnames
 *(.debug_funcnames)

.debug_typenames
 *(.debug_typenames)

.debug_varnames
 *(.debug_varnames)
OUTPUT(rtthread-stm32.elf elf32-littlearm)

Cross Reference Table

Symbol                                            File
ADC1ConvertedValue                                build\usb_hid\src\hw_config.o
ADC1ConvertedVoltage                              build\usb_hid\src\hw_config.o
ADC1_2_IRQHandler                                 build\Libraries\CMSIS\CM3\DeviceSupport\ST\STM32F10x\startup\gcc_ride7\startup_stm32f10x_md.o
ADC_AnalogWatchdogCmd                             build\Libraries\STM32F10x_StdPeriph_Driver\src\stm32f10x_adc.o
ADC_AnalogWatchdogSingleChannelConfig             build\Libraries\STM32F10x_StdPeriph_Driver\src\stm32f10x_adc.o
ADC_AnalogWatchdogThresholdsConfig                build\Libraries\STM32F10x_StdPeriph_Driver\src\stm32f10x_adc.o
ADC_AutoInjectedConvCmd                           build\Libraries\STM32F10x_StdPeriph_Driver\src\stm32f10x_adc.o
ADC_ClearFlag                                     build\Libraries\STM32F10x_StdPeriph_Driver\src\stm32f10x_adc.o
ADC_ClearITPendingBit                             build\Libraries\STM32F10x_StdPeriph_Driver\src\stm32f10x_adc.o
ADC_Cmd                                           build\Libraries\STM32F10x_StdPeriph_Driver\src\stm32f10x_adc.o
                                                  build\motor\src\adc.o
ADC_Configuration                                 build\usb_hid\src\hw_config.o
ADC_ConvertedValueX                               build\usb_hid\src\hw_config.o
ADC_ConvertedValueX_1                             build\usb_hid\src\hw_config.o
ADC_DMACmd                                        build\Libraries\STM32F10x_StdPeriph_Driver\src\stm32f10x_adc.o
                                                  build\motor\src\adc.o
ADC_DeInit                                        build\Libraries\STM32F10x_StdPeriph_Driver\src\stm32f10x_adc.o
                                                  build\motor\src\adc.o
ADC_DiscModeChannelCountConfig                    build\Libraries\STM32F10x_StdPeriph_Driver\src\stm32f10x_adc.o
ADC_DiscModeCmd                                   build\Libraries\STM32F10x_StdPeriph_Driver\src\stm32f10x_adc.o
ADC_ExternalTrigConvCmd                           build\Libraries\STM32F10x_StdPeriph_Driver\src\stm32f10x_adc.o
ADC_ExternalTrigInjectedConvCmd                   build\Libraries\STM32F10x_StdPeriph_Driver\src\stm32f10x_adc.o
ADC_ExternalTrigInjectedConvConfig                build\Libraries\STM32F10x_StdPeriph_Driver\src\stm32f10x_adc.o
ADC_GetCalibrationStatus                          build\Libraries\STM32F10x_StdPeriph_Driver\src\stm32f10x_adc.o
                                                  build\motor\src\adc.o
ADC_GetConversionValue                            build\Libraries\STM32F10x_StdPeriph_Driver\src\stm32f10x_adc.o
ADC_GetDualModeConversionValue                    build\Libraries\STM32F10x_StdPeriph_Driver\src\stm32f10x_adc.o
ADC_GetFlagStatus                                 build\Libraries\STM32F10x_StdPeriph_Driver\src\stm32f10x_adc.o
ADC_GetITStatus                                   build\Libraries\STM32F10x_StdPeriph_Driver\src\stm32f10x_adc.o
ADC_GetInjectedConversionValue                    build\Libraries\STM32F10x_StdPeriph_Driver\src\stm32f10x_adc.o
ADC_GetResetCalibrationStatus                     build\Libraries\STM32F10x_StdPeriph_Driver\src\stm32f10x_adc.o
                                                  build\motor\src\adc.o
ADC_GetSoftwareStartConvStatus                    build\Libraries\STM32F10x_StdPeriph_Driver\src\stm32f10x_adc.o
ADC_GetSoftwareStartInjectedConvCmdStatus         build\Libraries\STM32F10x_StdPeriph_Driver\src\stm32f10x_adc.o
ADC_ITConfig                                      build\Libraries\STM32F10x_StdPeriph_Driver\src\stm32f10x_adc.o
ADC_Init                                          build\Libraries\STM32F10x_StdPeriph_Driver\src\stm32f10x_adc.o
                                                  build\motor\src\adc.o
ADC_InjectedChannelConfig                         build\Libraries\STM32F10x_StdPeriph_Driver\src\stm32f10x_adc.o
ADC_InjectedDiscModeCmd                           build\Libraries\STM32F10x_StdPeriph_Driver\src\stm32f10x_adc.o
ADC_InjectedSequencerLengthConfig                 build\Libraries\STM32F10x_StdPeriph_Driver\src\stm32f10x_adc.o
ADC_RegularChannelConfig                          build\Libraries\STM32F10x_StdPeriph_Driver\src\stm32f10x_adc.o
                                                  build\motor\src\adc.o
ADC_ResetCalibration                              build\Libraries\STM32F10x_StdPeriph_Driver\src\stm32f10x_adc.o
                                                  build\motor\src\adc.o
ADC_SetInjectedOffset                             build\Libraries\STM32F10x_StdPeriph_Driver\src\stm32f10x_adc.o
ADC_SoftwareStartConvCmd                          build\Libraries\STM32F10x_StdPeriph_Driver\src\stm32f10x_adc.o
                                                  build\usb_hid\src\usb_prop.o
                                                  build\motor\src\adc.o
ADC_SoftwareStartInjectedConvCmd                  build\Libraries\STM32F10x_StdPeriph_Driver\src\stm32f10x_adc.o
ADC_StartCalibration                              build\Libraries\STM32F10x_StdPeriph_Driver\src\stm32f10x_adc.o
                                                  build\motor\src\adc.o
ADC_StructInit                                    build\Libraries\STM32F10x_StdPeriph_Driver\src\stm32f10x_adc.o
ADC_TempSensorVrefintCmd                          build\Libraries\STM32F10x_StdPeriph_Driver\src\stm32f10x_adc.o
AHBPrescTable                                     build\Libraries\CMSIS\CM3\DeviceSupport\ST\STM32F10x\system_stm32f10x.o
BKP_ClearFlag                                     build\Libraries\STM32F10x_StdPeriph_Driver\src\stm32f10x_bkp.o
BKP_ClearITPendingBit                             build\Libraries\STM32F10x_StdPeriph_Driver\src\stm32f10x_bkp.o
BKP_DeInit                                        build\Libraries\STM32F10x_StdPeriph_Driver\src\stm32f10x_bkp.o
BKP_GetFlagStatus                                 build\Libraries\STM32F10x_StdPeriph_Driver\src\stm32f10x_bkp.o
BKP_GetITStatus                                   build\Libraries\STM32F10x_StdPeriph_Driver\src\stm32f10x_bkp.o
BKP_ITConfig                                      build\Libraries\STM32F10x_StdPeriph_Driver\src\stm32f10x_bkp.o
BKP_RTCOutputConfig                               build\Libraries\STM32F10x_StdPeriph_Driver\src\stm32f10x_bkp.o
BKP_ReadBackupRegister                            build\Libraries\STM32F10x_StdPeriph_Driver\src\stm32f10x_bkp.o
BKP_SetRTCCalibrationValue                        build\Libraries\STM32F10x_StdPeriph_Driver\src\stm32f10x_bkp.o
BKP_TamperPinCmd                                  build\Libraries\STM32F10x_StdPeriph_Driver\src\stm32f10x_bkp.o
BKP_TamperPinLevelConfig                          build\Libraries\STM32F10x_StdPeriph_Driver\src\stm32f10x_bkp.o
BKP_WriteBackupRegister                           build\Libraries\STM32F10x_StdPeriph_Driver\src\stm32f10x_bkp.o
BUTTON_CLK                                        build\usb_hid\src\stm3210b_eval.o
BUTTON_EXTI_LINE                                  build\usb_hid\src\stm3210b_eval.o
BUTTON_IRQn                                       build\usb_hid\src\stm3210b_eval.o
BUTTON_PIN                                        build\usb_hid\src\stm3210b_eval.o
BUTTON_PIN_SOURCE                                 build\usb_hid\src\stm3210b_eval.o
BUTTON_PORT                                       build\usb_hid\src\stm3210b_eval.o
BUTTON_PORT_SOURCE                                build\usb_hid\src\stm3210b_eval.o
BusFault_Handler                                  build\drivers\stm32f10x_it.o
ByteSwap                                          build\usb_hid\src\usb_regs.o
                                                  build\usb_hid\src\usb_core.o
CAN1_RX1_IRQHandler                               build\Libraries\CMSIS\CM3\DeviceSupport\ST\STM32F10x\startup\gcc_ride7\startup_stm32f10x_md.o
CAN1_SCE_IRQHandler                               build\Libraries\CMSIS\CM3\DeviceSupport\ST\STM32F10x\startup\gcc_ride7\startup_stm32f10x_md.o
CAN_CancelTransmit                                build\Libraries\STM32F10x_StdPeriph_Driver\src\stm32f10x_can.o
CAN_ClearFlag                                     build\Libraries\STM32F10x_StdPeriph_Driver\src\stm32f10x_can.o
CAN_ClearITPendingBit                             build\Libraries\STM32F10x_StdPeriph_Driver\src\stm32f10x_can.o
CAN_DBGFreeze                                     build\Libraries\STM32F10x_StdPeriph_Driver\src\stm32f10x_can.o
CAN_DeInit                                        build\Libraries\STM32F10x_StdPeriph_Driver\src\stm32f10x_can.o
CAN_FIFORelease                                   build\Libraries\STM32F10x_StdPeriph_Driver\src\stm32f10x_can.o
CAN_FilterInit                                    build\Libraries\STM32F10x_StdPeriph_Driver\src\stm32f10x_can.o
CAN_GetFlagStatus                                 build\Libraries\STM32F10x_StdPeriph_Driver\src\stm32f10x_can.o
CAN_GetITStatus                                   build\Libraries\STM32F10x_StdPeriph_Driver\src\stm32f10x_can.o
CAN_GetLSBTransmitErrorCounter                    build\Libraries\STM32F10x_StdPeriph_Driver\src\stm32f10x_can.o
CAN_GetLastErrorCode                              build\Libraries\STM32F10x_StdPeriph_Driver\src\stm32f10x_can.o
CAN_GetReceiveErrorCounter                        build\Libraries\STM32F10x_StdPeriph_Driver\src\stm32f10x_can.o
CAN_ITConfig                                      build\Libraries\STM32F10x_StdPeriph_Driver\src\stm32f10x_can.o
CAN_Init                                          build\Libraries\STM32F10x_StdPeriph_Driver\src\stm32f10x_can.o
CAN_MessagePending                                build\Libraries\STM32F10x_StdPeriph_Driver\src\stm32f10x_can.o
CAN_OperatingModeRequest                          build\Libraries\STM32F10x_StdPeriph_Driver\src\stm32f10x_can.o
CAN_Receive                                       build\Libraries\STM32F10x_StdPeriph_Driver\src\stm32f10x_can.o
CAN_SlaveStartBank                                build\Libraries\STM32F10x_StdPeriph_Driver\src\stm32f10x_can.o
CAN_Sleep                                         build\Libraries\STM32F10x_StdPeriph_Driver\src\stm32f10x_can.o
CAN_StructInit                                    build\Libraries\STM32F10x_StdPeriph_Driver\src\stm32f10x_can.o
CAN_TTComModeCmd                                  build\Libraries\STM32F10x_StdPeriph_Driver\src\stm32f10x_can.o
CAN_Transmit                                      build\Libraries\STM32F10x_StdPeriph_Driver\src\stm32f10x_can.o
CAN_TransmitStatus                                build\Libraries\STM32F10x_StdPeriph_Driver\src\stm32f10x_can.o
CAN_WakeUp                                        build\Libraries\STM32F10x_StdPeriph_Driver\src\stm32f10x_can.o
CEC_ClearFlag                                     build\Libraries\STM32F10x_StdPeriph_Driver\src\stm32f10x_cec.o
CEC_ClearITPendingBit                             build\Libraries\STM32F10x_StdPeriph_Driver\src\stm32f10x_cec.o
CEC_Cmd                                           build\Libraries\STM32F10x_StdPeriph_Driver\src\stm32f10x_cec.o
CEC_DeInit                                        build\Libraries\STM32F10x_StdPeriph_Driver\src\stm32f10x_cec.o
CEC_EndOfMessageCmd                               build\Libraries\STM32F10x_StdPeriph_Driver\src\stm32f10x_cec.o
CEC_GetFlagStatus                                 build\Libraries\STM32F10x_StdPeriph_Driver\src\stm32f10x_cec.o
CEC_GetITStatus                                   build\Libraries\STM32F10x_StdPeriph_Driver\src\stm32f10x_cec.o
CEC_ITConfig                                      build\Libraries\STM32F10x_StdPeriph_Driver\src\stm32f10x_cec.o
CEC_Init                                          build\Libraries\STM32F10x_StdPeriph_Driver\src\stm32f10x_cec.o
CEC_OwnAddressConfig                              build\Libraries\STM32F10x_StdPeriph_Driver\src\stm32f10x_cec.o
CEC_ReceiveDataByte                               build\Libraries\STM32F10x_StdPeriph_Driver\src\stm32f10x_cec.o
CEC_SendDataByte                                  build\Libraries\STM32F10x_StdPeriph_Driver\src\stm32f10x_cec.o
CEC_SetPrescaler                                  build\Libraries\STM32F10x_StdPeriph_Driver\src\stm32f10x_cec.o
CEC_StartOfMessage                                build\Libraries\STM32F10x_StdPeriph_Driver\src\stm32f10x_cec.o
COM_RX_PIN                                        build\usb_hid\src\stm3210b_eval.o
COM_RX_PORT                                       build\usb_hid\src\stm3210b_eval.o
COM_RX_PORT_CLK                                   build\usb_hid\src\stm3210b_eval.o
COM_TX_PIN                                        build\usb_hid\src\stm3210b_eval.o
COM_TX_PORT                                       build\usb_hid\src\stm3210b_eval.o
COM_TX_PORT_CLK                                   build\usb_hid\src\stm3210b_eval.o
COM_USART                                         build\usb_hid\src\stm3210b_eval.o
COM_USART_CLK                                     build\usb_hid\src\stm3210b_eval.o
CRC_CalcBlockCRC                                  build\Libraries\STM32F10x_StdPeriph_Driver\src\stm32f10x_crc.o
CRC_CalcCRC                                       build\Libraries\STM32F10x_StdPeriph_Driver\src\stm32f10x_crc.o
CRC_GetCRC                                        build\Libraries\STM32F10x_StdPeriph_Driver\src\stm32f10x_crc.o
CRC_GetIDRegister                                 build\Libraries\STM32F10x_StdPeriph_Driver\src\stm32f10x_crc.o
CRC_ResetDR                                       build\Libraries\STM32F10x_StdPeriph_Driver\src\stm32f10x_crc.o
CRC_SetIDRegister                                 build\Libraries\STM32F10x_StdPeriph_Driver\src\stm32f10x_crc.o
CTR_HP                                            build\usb_hid\src\usb_int.o
CTR_LP                                            build\usb_hid\src\usb_int.o
                                                  build\usb_hid\src\usb_istr.o
ClearDTOG_RX                                      build\usb_hid\src\usb_regs.o
                                                  build\usb_hid\src\usb_core.o
ClearDTOG_TX                                      build\usb_hid\src\usb_regs.o
                                                  build\usb_hid\src\usb_core.o
ClearEPDoubleBuff                                 build\usb_hid\src\usb_regs.o
ClearEP_CTR_RX                                    build\usb_hid\src\usb_regs.o
ClearEP_CTR_TX                                    build\usb_hid\src\usb_regs.o
ClearEP_KIND                                      build\usb_hid\src\usb_regs.o
Clear_Status_Out                                  build\usb_hid\src\usb_regs.o
                                                  build\usb_hid\src\usb_prop.o
Config_Descriptor                                 build\usb_hid\src\usb_prop.o
CustomHID_ConfigDescriptor                        build\usb_hid\src\usb_desc.o
                                                  build\usb_hid\src\usb_prop.o
CustomHID_Data_Setup                              build\usb_hid\src\usb_prop.o
CustomHID_DeviceDescriptor                        build\usb_hid\src\usb_desc.o
                                                  build\usb_hid\src\usb_prop.o
CustomHID_GetConfigDescriptor                     build\usb_hid\src\usb_prop.o
CustomHID_GetDeviceDescriptor                     build\usb_hid\src\usb_prop.o
CustomHID_GetHIDDescriptor                        build\usb_hid\src\usb_prop.o
CustomHID_GetProtocolValue                        build\usb_hid\src\usb_prop.o
CustomHID_GetReportDescriptor                     build\usb_hid\src\usb_prop.o
CustomHID_GetStringDescriptor                     build\usb_hid\src\usb_prop.o
CustomHID_Get_Interface_Setting                   build\usb_hid\src\usb_prop.o
CustomHID_Hid_Descriptor                          build\usb_hid\src\usb_prop.o
CustomHID_NoData_Setup                            build\usb_hid\src\usb_prop.o
CustomHID_ReportDescriptor                        build\usb_hid\src\usb_desc.o
                                                  build\usb_hid\src\usb_prop.o
CustomHID_Report_Descriptor                       build\usb_hid\src\usb_prop.o
CustomHID_Reset                                   build\usb_hid\src\usb_prop.o
CustomHID_SetConfiguration                        build\usb_hid\src\usb_prop.o
CustomHID_SetDeviceAddress                        build\usb_hid\src\usb_prop.o
CustomHID_SetProtocol                             build\usb_hid\src\usb_prop.o
CustomHID_SetReport_Feature                       build\usb_hid\src\usb_prop.o
CustomHID_Status_In                               build\usb_hid\src\usb_prop.o
CustomHID_Status_Out                              build\usb_hid\src\usb_prop.o
CustomHID_StringLangID                            build\usb_hid\src\usb_desc.o
                                                  build\usb_hid\src\usb_prop.o
CustomHID_StringProduct                           build\usb_hid\src\usb_desc.o
                                                  build\usb_hid\src\usb_prop.o
CustomHID_StringSerial                            build\usb_hid\src\usb_desc.o
                                                  build\usb_hid\src\usb_prop.o
                                                  build\usb_hid\src\hw_config.o
CustomHID_StringVendor                            build\usb_hid\src\usb_desc.o
                                                  build\usb_hid\src\usb_prop.o
CustomHID_init                                    build\usb_hid\src\usb_prop.o
DAC_Cmd                                           build\Libraries\STM32F10x_StdPeriph_Driver\src\stm32f10x_dac.o
DAC_DMACmd                                        build\Libraries\STM32F10x_StdPeriph_Driver\src\stm32f10x_dac.o
DAC_DeInit                                        build\Libraries\STM32F10x_StdPeriph_Driver\src\stm32f10x_dac.o
DAC_DualSoftwareTriggerCmd                        build\Libraries\STM32F10x_StdPeriph_Driver\src\stm32f10x_dac.o
DAC_GetDataOutputValue                            build\Libraries\STM32F10x_StdPeriph_Driver\src\stm32f10x_dac.o
DAC_Init                                          build\Libraries\STM32F10x_StdPeriph_Driver\src\stm32f10x_dac.o
DAC_SetChannel1Data                               build\Libraries\STM32F10x_StdPeriph_Driver\src\stm32f10x_dac.o
DAC_SetChannel2Data                               build\Libraries\STM32F10x_StdPeriph_Driver\src\stm32f10x_dac.o
DAC_SetDualChannelData                            build\Libraries\STM32F10x_StdPeriph_Driver\src\stm32f10x_dac.o
DAC_SoftwareTriggerCmd                            build\Libraries\STM32F10x_StdPeriph_Driver\src\stm32f10x_dac.o
DAC_StructInit                                    build\Libraries\STM32F10x_StdPeriph_Driver\src\stm32f10x_dac.o
DAC_WaveGenerationCmd                             build\Libraries\STM32F10x_StdPeriph_Driver\src\stm32f10x_dac.o
DBGMCU_Config                                     build\Libraries\STM32F10x_StdPeriph_Driver\src\stm32f10x_dbgmcu.o
DBGMCU_GetDEVID                                   build\Libraries\STM32F10x_StdPeriph_Driver\src\stm32f10x_dbgmcu.o
DBGMCU_GetREVID                                   build\Libraries\STM32F10x_StdPeriph_Driver\src\stm32f10x_dbgmcu.o
DMA1_Channel1_IRQHandler                          build\Libraries\CMSIS\CM3\DeviceSupport\ST\STM32F10x\startup\gcc_ride7\startup_stm32f10x_md.o
DMA1_Channel2_IRQHandler                          build\Libraries\CMSIS\CM3\DeviceSupport\ST\STM32F10x\startup\gcc_ride7\startup_stm32f10x_md.o
DMA1_Channel3_IRQHandler                          build\Libraries\CMSIS\CM3\DeviceSupport\ST\STM32F10x\startup\gcc_ride7\startup_stm32f10x_md.o
DMA1_Channel4_IRQHandler                          build\Libraries\CMSIS\CM3\DeviceSupport\ST\STM32F10x\startup\gcc_ride7\startup_stm32f10x_md.o
DMA1_Channel5_IRQHandler                          build\Libraries\CMSIS\CM3\DeviceSupport\ST\STM32F10x\startup\gcc_ride7\startup_stm32f10x_md.o
DMA1_Channel6_IRQHandler                          build\Libraries\CMSIS\CM3\DeviceSupport\ST\STM32F10x\startup\gcc_ride7\startup_stm32f10x_md.o
DMA1_Channel7_IRQHandler                          build\Libraries\CMSIS\CM3\DeviceSupport\ST\STM32F10x\startup\gcc_ride7\startup_stm32f10x_md.o
DMA_ADC_init                                      build\motor\src\adc.o
DMA_ClearFlag                                     build\Libraries\STM32F10x_StdPeriph_Driver\src\stm32f10x_dma.o
DMA_ClearITPendingBit                             build\Libraries\STM32F10x_StdPeriph_Driver\src\stm32f10x_dma.o
DMA_Cmd                                           build\Libraries\STM32F10x_StdPeriph_Driver\src\stm32f10x_dma.o
                                                  build\motor\src\adc.o
DMA_DeInit                                        build\Libraries\STM32F10x_StdPeriph_Driver\src\stm32f10x_dma.o
                                                  build\motor\src\adc.o
DMA_GetCurrDataCounter                            build\Libraries\STM32F10x_StdPeriph_Driver\src\stm32f10x_dma.o
DMA_GetFlagStatus                                 build\Libraries\STM32F10x_StdPeriph_Driver\src\stm32f10x_dma.o
DMA_GetITStatus                                   build\Libraries\STM32F10x_StdPeriph_Driver\src\stm32f10x_dma.o
DMA_ITConfig                                      build\Libraries\STM32F10x_StdPeriph_Driver\src\stm32f10x_dma.o
DMA_Init                                          build\Libraries\STM32F10x_StdPeriph_Driver\src\stm32f10x_dma.o
                                                  build\motor\src\adc.o
DMA_SetCurrDataCounter                            build\Libraries\STM32F10x_StdPeriph_Driver\src\stm32f10x_dma.o
DMA_StructInit                                    build\Libraries\STM32F10x_StdPeriph_Driver\src\stm32f10x_dma.o
Data_Mul_MaxPacketSize                            build\usb_hid\src\usb_core.o
DebugMon_Handler                                  build\drivers\stm32f10x_it.o
Default_Handler                                   build\Libraries\CMSIS\CM3\DeviceSupport\ST\STM32F10x\startup\gcc_ride7\startup_stm32f10x_md.o
Delay                                             build\usb_hid\src\entry.o
                                                  build\usb_hid\src\usb_pwr.o
Device_Descriptor                                 build\usb_hid\src\usb_prop.o
Device_Info                                       build\usb_hid\src\usb_init.o
                                                  build\usb_hid\src\hw_config.o
Device_Property                                   build\usb_hid\src\usb_prop.o
                                                  build\usb_hid\src\usb_istr.o
                                                  build\usb_hid\src\usb_init.o
                                                  build\usb_hid\src\usb_core.o
Device_Table                                      build\usb_hid\src\usb_prop.o
                                                  build\usb_hid\src\usb_core.o
EP                                                build\usb_hid\src\usb_pwr.o
EP1_OUT_Callback                                  build\usb_hid\src\usb_endp.o
                                                  build\usb_hid\src\usb_istr.o
EP2_IN_Callback                                   build\usb_hid\src\usb_endp.o
                                                  build\usb_hid\src\usb_istr.o
EPindex                                           build\usb_hid\src\usb_int.o
                                                  build\usb_hid\src\usb_init.o
EXTI0_IRQHandler                                  build\Libraries\CMSIS\CM3\DeviceSupport\ST\STM32F10x\startup\gcc_ride7\startup_stm32f10x_md.o
EXTI15_10_IRQHandler                              build\motor\src\pwm.o
                                                  build\Libraries\CMSIS\CM3\DeviceSupport\ST\STM32F10x\startup\gcc_ride7\startup_stm32f10x_md.o
EXTI1_IRQHandler                                  build\Libraries\CMSIS\CM3\DeviceSupport\ST\STM32F10x\startup\gcc_ride7\startup_stm32f10x_md.o
EXTI2_IRQHandler                                  build\Libraries\CMSIS\CM3\DeviceSupport\ST\STM32F10x\startup\gcc_ride7\startup_stm32f10x_md.o
EXTI3_IRQHandler                                  build\Libraries\CMSIS\CM3\DeviceSupport\ST\STM32F10x\startup\gcc_ride7\startup_stm32f10x_md.o
EXTI4_IRQHandler                                  build\motor\src\pwm.o
                                                  build\Libraries\CMSIS\CM3\DeviceSupport\ST\STM32F10x\startup\gcc_ride7\startup_stm32f10x_md.o
EXTI9_5_IRQHandler                                build\Libraries\CMSIS\CM3\DeviceSupport\ST\STM32F10x\startup\gcc_ride7\startup_stm32f10x_md.o
EXTI_ClearFlag                                    build\Libraries\STM32F10x_StdPeriph_Driver\src\stm32f10x_exti.o
EXTI_ClearITPendingBit                            build\Libraries\STM32F10x_StdPeriph_Driver\src\stm32f10x_exti.o
                                                  build\usb_hid\src\stm32_it.o
EXTI_Configuration                                build\usb_hid\src\hw_config.o
EXTI_DeInit                                       build\Libraries\STM32F10x_StdPeriph_Driver\src\stm32f10x_exti.o
                                                  build\motor\src\pwm.o
EXTI_Enable                                       build\usb_hid\src\usb_prop.o
EXTI_GenerateSWInterrupt                          build\Libraries\STM32F10x_StdPeriph_Driver\src\stm32f10x_exti.o
EXTI_GetFlagStatus                                build\Libraries\STM32F10x_StdPeriph_Driver\src\stm32f10x_exti.o
EXTI_GetITStatus                                  build\Libraries\STM32F10x_StdPeriph_Driver\src\stm32f10x_exti.o
EXTI_Init                                         build\Libraries\STM32F10x_StdPeriph_Driver\src\stm32f10x_exti.o
EXTI_StructInit                                   build\Libraries\STM32F10x_StdPeriph_Driver\src\stm32f10x_exti.o
Enter_LowPowerMode                                build\usb_hid\src\hw_config.o
FLASH_ClearFlag                                   build\Libraries\STM32F10x_StdPeriph_Driver\src\stm32f10x_flash.o
FLASH_EnableWriteProtection                       build\Libraries\STM32F10x_StdPeriph_Driver\src\stm32f10x_flash.o
FLASH_EraseAllBank1Pages                          build\Libraries\STM32F10x_StdPeriph_Driver\src\stm32f10x_flash.o
FLASH_EraseAllPages                               build\Libraries\STM32F10x_StdPeriph_Driver\src\stm32f10x_flash.o
FLASH_EraseOptionBytes                            build\Libraries\STM32F10x_StdPeriph_Driver\src\stm32f10x_flash.o
FLASH_ErasePage                                   build\Libraries\STM32F10x_StdPeriph_Driver\src\stm32f10x_flash.o
FLASH_GetBank1Status                              build\Libraries\STM32F10x_StdPeriph_Driver\src\stm32f10x_flash.o
FLASH_GetFlagStatus                               build\Libraries\STM32F10x_StdPeriph_Driver\src\stm32f10x_flash.o
FLASH_GetPrefetchBufferStatus                     build\Libraries\STM32F10x_StdPeriph_Driver\src\stm32f10x_flash.o
FLASH_GetReadOutProtectionStatus                  build\Libraries\STM32F10x_StdPeriph_Driver\src\stm32f10x_flash.o
FLASH_GetStatus                                   build\Libraries\STM32F10x_StdPeriph_Driver\src\stm32f10x_flash.o
FLASH_GetUserOptionByte                           build\Libraries\STM32F10x_StdPeriph_Driver\src\stm32f10x_flash.o
FLASH_GetWriteProtectionOptionByte                build\Libraries\STM32F10x_StdPeriph_Driver\src\stm32f10x_flash.o
FLASH_HalfCycleAccessCmd                          build\Libraries\STM32F10x_StdPeriph_Driver\src\stm32f10x_flash.o
FLASH_IRQHandler                                  build\Libraries\CMSIS\CM3\DeviceSupport\ST\STM32F10x\startup\gcc_ride7\startup_stm32f10x_md.o
FLASH_ITConfig                                    build\Libraries\STM32F10x_StdPeriph_Driver\src\stm32f10x_flash.o
FLASH_Lock                                        build\Libraries\STM32F10x_StdPeriph_Driver\src\stm32f10x_flash.o
FLASH_LockBank1                                   build\Libraries\STM32F10x_StdPeriph_Driver\src\stm32f10x_flash.o
                                                  build\motor\src\flash.o
                                                  build\motor\src\cmd.o
FLASH_PrefetchBufferCmd                           build\Libraries\STM32F10x_StdPeriph_Driver\src\stm32f10x_flash.o
FLASH_ProgramHalfWord                             build\Libraries\STM32F10x_StdPeriph_Driver\src\stm32f10x_flash.o
FLASH_ProgramOptionByteData                       build\Libraries\STM32F10x_StdPeriph_Driver\src\stm32f10x_flash.o
FLASH_ProgramWord                                 build\Libraries\STM32F10x_StdPeriph_Driver\src\stm32f10x_flash.o
                                                  build\motor\src\flash.o
                                                  build\motor\src\cmd.o
FLASH_ReadOutProtection                           build\Libraries\STM32F10x_StdPeriph_Driver\src\stm32f10x_flash.o
FLASH_SetLatency                                  build\Libraries\STM32F10x_StdPeriph_Driver\src\stm32f10x_flash.o
FLASH_Unlock                                      build\Libraries\STM32F10x_StdPeriph_Driver\src\stm32f10x_flash.o
FLASH_UnlockBank1                                 build\Libraries\STM32F10x_StdPeriph_Driver\src\stm32f10x_flash.o
                                                  build\motor\src\flash.o
                                                  build\motor\src\cmd.o
FLASH_UserOptionByteConfig                        build\Libraries\STM32F10x_StdPeriph_Driver\src\stm32f10x_flash.o
FLASH_WaitForLastBank1Operation                   build\Libraries\STM32F10x_StdPeriph_Driver\src\stm32f10x_flash.o
FLASH_WaitForLastOperation                        build\Libraries\STM32F10x_StdPeriph_Driver\src\stm32f10x_flash.o
FLASH_read                                        build\motor\src\flash.o
FLASH_service                                     build\motor\src\flash.o
FLASH_write                                       build\motor\src\flash.o
FSMC_ClearFlag                                    build\Libraries\STM32F10x_StdPeriph_Driver\src\stm32f10x_fsmc.o
FSMC_ClearITPendingBit                            build\Libraries\STM32F10x_StdPeriph_Driver\src\stm32f10x_fsmc.o
FSMC_GetECC                                       build\Libraries\STM32F10x_StdPeriph_Driver\src\stm32f10x_fsmc.o
FSMC_GetFlagStatus                                build\Libraries\STM32F10x_StdPeriph_Driver\src\stm32f10x_fsmc.o
FSMC_GetITStatus                                  build\Libraries\STM32F10x_StdPeriph_Driver\src\stm32f10x_fsmc.o
FSMC_ITConfig                                     build\Libraries\STM32F10x_StdPeriph_Driver\src\stm32f10x_fsmc.o
FSMC_NANDCmd                                      build\Libraries\STM32F10x_StdPeriph_Driver\src\stm32f10x_fsmc.o
FSMC_NANDDeInit                                   build\Libraries\STM32F10x_StdPeriph_Driver\src\stm32f10x_fsmc.o
FSMC_NANDECCCmd                                   build\Libraries\STM32F10x_StdPeriph_Driver\src\stm32f10x_fsmc.o
FSMC_NANDInit                                     build\Libraries\STM32F10x_StdPeriph_Driver\src\stm32f10x_fsmc.o
FSMC_NANDStructInit                               build\Libraries\STM32F10x_StdPeriph_Driver\src\stm32f10x_fsmc.o
FSMC_NORSRAMCmd                                   build\Libraries\STM32F10x_StdPeriph_Driver\src\stm32f10x_fsmc.o
FSMC_NORSRAMDeInit                                build\Libraries\STM32F10x_StdPeriph_Driver\src\stm32f10x_fsmc.o
FSMC_NORSRAMInit                                  build\Libraries\STM32F10x_StdPeriph_Driver\src\stm32f10x_fsmc.o
FSMC_NORSRAMStructInit                            build\Libraries\STM32F10x_StdPeriph_Driver\src\stm32f10x_fsmc.o
FSMC_PCCARDCmd                                    build\Libraries\STM32F10x_StdPeriph_Driver\src\stm32f10x_fsmc.o
FSMC_PCCARDDeInit                                 build\Libraries\STM32F10x_StdPeriph_Driver\src\stm32f10x_fsmc.o
FSMC_PCCARDInit                                   build\Libraries\STM32F10x_StdPeriph_Driver\src\stm32f10x_fsmc.o
FSMC_PCCARDStructInit                             build\Libraries\STM32F10x_StdPeriph_Driver\src\stm32f10x_fsmc.o
Flash                                             build\motor\src\flash.o
FreeUserBuffer                                    build\usb_hid\src\usb_regs.o
GPIO_ADC_init                                     build\motor\src\adc.o
GPIO_AFIODeInit                                   build\Libraries\STM32F10x_StdPeriph_Driver\src\stm32f10x_gpio.o
GPIO_CLK                                          build\usb_hid\src\stm3210b_eval.o
GPIO_Configuration                                build\usb_hid\src\hw_config.o
GPIO_DeInit                                       build\Libraries\STM32F10x_StdPeriph_Driver\src\stm32f10x_gpio.o
GPIO_ETH_MediaInterfaceConfig                     build\Libraries\STM32F10x_StdPeriph_Driver\src\stm32f10x_gpio.o
GPIO_EXTILineConfig                               build\Libraries\STM32F10x_StdPeriph_Driver\src\stm32f10x_gpio.o
GPIO_EventOutputCmd                               build\Libraries\STM32F10x_StdPeriph_Driver\src\stm32f10x_gpio.o
GPIO_EventOutputConfig                            build\Libraries\STM32F10x_StdPeriph_Driver\src\stm32f10x_gpio.o
GPIO_Init                                         build\Libraries\STM32F10x_StdPeriph_Driver\src\stm32f10x_gpio.o
                                                  build\usb_hid\src\hw_config.o
                                                  build\motor\src\ds18b20.o
                                                  build\motor\src\pga.o
                                                  build\motor\src\vout.o
                                                  build\motor\src\pwm.o
                                                  build\motor\src\counter.o
                                                  build\motor\src\adc.o
                                                  build\drivers\usart.o
                                                  build\drivers\led.o
GPIO_PIN                                          build\usb_hid\src\stm3210b_eval.o
GPIO_PORT                                         build\usb_hid\src\stm3210b_eval.o
GPIO_PinLockConfig                                build\Libraries\STM32F10x_StdPeriph_Driver\src\stm32f10x_gpio.o
GPIO_PinRemapConfig                               build\Libraries\STM32F10x_StdPeriph_Driver\src\stm32f10x_gpio.o
                                                  build\motor\src\pwm.o
                                                  build\motor\src\counter.o
GPIO_ReadInputData                                build\Libraries\STM32F10x_StdPeriph_Driver\src\stm32f10x_gpio.o
GPIO_ReadInputDataBit                             build\Libraries\STM32F10x_StdPeriph_Driver\src\stm32f10x_gpio.o
                                                  build\usb_hid\src\stm3210b_eval.o
                                                  build\motor\src\ds18b20.o
                                                  build\motor\src\pwm.o
GPIO_ReadOutputData                               build\Libraries\STM32F10x_StdPeriph_Driver\src\stm32f10x_gpio.o
GPIO_ReadOutputDataBit                            build\Libraries\STM32F10x_StdPeriph_Driver\src\stm32f10x_gpio.o
GPIO_ResetBits                                    build\Libraries\STM32F10x_StdPeriph_Driver\src\stm32f10x_gpio.o
                                                  build\usb_hid\src\hw_config.o
                                                  build\motor\src\ds18b20.o
                                                  build\motor\src\pga.o
                                                  build\motor\src\pwm.o
                                                  build\motor\src\adc.o
                                                  build\drivers\led.o
GPIO_SetBits                                      build\Libraries\STM32F10x_StdPeriph_Driver\src\stm32f10x_gpio.o
                                                  build\usb_hid\src\hw_config.o
                                                  build\motor\src\ds18b20.o
                                                  build\motor\src\pga.o
                                                  build\motor\src\pwm.o
                                                  build\motor\src\adc.o
                                                  build\drivers\led.o
GPIO_StructInit                                   build\Libraries\STM32F10x_StdPeriph_Driver\src\stm32f10x_gpio.o
GPIO_Write                                        build\Libraries\STM32F10x_StdPeriph_Driver\src\stm32f10x_gpio.o
GPIO_WriteBit                                     build\Libraries\STM32F10x_StdPeriph_Driver\src\stm32f10x_gpio.o
GPIO_ds18b20_setup_in                             build\motor\src\ds18b20.o
GPIO_ds18b20_setup_out                            build\motor\src\ds18b20.o
GPIO_pga_init                                     build\motor\src\pga.o
GPIO_vout_init                                    build\motor\src\vout.o
GetBTABLE                                         build\usb_hid\src\usb_regs.o
GetCNTR                                           build\usb_hid\src\usb_regs.o
GetDADDR                                          build\usb_hid\src\usb_regs.o
GetENDPOINT                                       build\usb_hid\src\usb_regs.o
GetEPAddress                                      build\usb_hid\src\usb_regs.o
GetEPDblBuf0Addr                                  build\usb_hid\src\usb_regs.o
GetEPDblBuf0Count                                 build\usb_hid\src\usb_regs.o
GetEPDblBuf1Addr                                  build\usb_hid\src\usb_regs.o
GetEPDblBuf1Count                                 build\usb_hid\src\usb_regs.o
GetEPDblBufDir                                    build\usb_hid\src\usb_regs.o
GetEPRxAddr                                       build\usb_hid\src\usb_regs.o
                                                  build\usb_hid\src\usb_sil.o
                                                  build\usb_hid\src\usb_core.o
GetEPRxCount                                      build\usb_hid\src\usb_regs.o
                                                  build\usb_hid\src\usb_sil.o
GetEPRxStatus                                     build\usb_hid\src\usb_regs.o
GetEPTxAddr                                       build\usb_hid\src\usb_regs.o
                                                  build\usb_hid\src\usb_sil.o
                                                  build\usb_hid\src\usb_core.o
GetEPTxCount                                      build\usb_hid\src\usb_regs.o
GetEPTxStatus                                     build\usb_hid\src\usb_regs.o
GetEPType                                         build\usb_hid\src\usb_regs.o
GetFNR                                            build\usb_hid\src\usb_regs.o
GetISTR                                           build\usb_hid\src\usb_regs.o
GetRxStallStatus                                  build\usb_hid\src\usb_regs.o
GetTxStallStatus                                  build\usb_hid\src\usb_regs.o
Get_SerialNum                                     build\usb_hid\src\hw_config.o
                                                  build\usb_hid\src\usb_prop.o
HardFault_Handler                                 build\libcpu\arm\cortex-m3\context_gcc.o
                                                  build\Libraries\CMSIS\CM3\DeviceSupport\ST\STM32F10x\startup\gcc_ride7\startup_stm32f10x_md.o
I2C1_ER_IRQHandler                                build\Libraries\CMSIS\CM3\DeviceSupport\ST\STM32F10x\startup\gcc_ride7\startup_stm32f10x_md.o
I2C1_EV_IRQHandler                                build\Libraries\CMSIS\CM3\DeviceSupport\ST\STM32F10x\startup\gcc_ride7\startup_stm32f10x_md.o
I2C2_ER_IRQHandler                                build\Libraries\CMSIS\CM3\DeviceSupport\ST\STM32F10x\startup\gcc_ride7\startup_stm32f10x_md.o
I2C2_EV_IRQHandler                                build\Libraries\CMSIS\CM3\DeviceSupport\ST\STM32F10x\startup\gcc_ride7\startup_stm32f10x_md.o
I2C_ARPCmd                                        build\Libraries\STM32F10x_StdPeriph_Driver\src\stm32f10x_i2c.o
I2C_AcknowledgeConfig                             build\Libraries\STM32F10x_StdPeriph_Driver\src\stm32f10x_i2c.o
I2C_CalculatePEC                                  build\Libraries\STM32F10x_StdPeriph_Driver\src\stm32f10x_i2c.o
I2C_CheckEvent                                    build\Libraries\STM32F10x_StdPeriph_Driver\src\stm32f10x_i2c.o
I2C_ClearFlag                                     build\Libraries\STM32F10x_StdPeriph_Driver\src\stm32f10x_i2c.o
I2C_ClearITPendingBit                             build\Libraries\STM32F10x_StdPeriph_Driver\src\stm32f10x_i2c.o
I2C_Cmd                                           build\Libraries\STM32F10x_StdPeriph_Driver\src\stm32f10x_i2c.o
I2C_DMACmd                                        build\Libraries\STM32F10x_StdPeriph_Driver\src\stm32f10x_i2c.o
I2C_DMALastTransferCmd                            build\Libraries\STM32F10x_StdPeriph_Driver\src\stm32f10x_i2c.o
I2C_DeInit                                        build\Libraries\STM32F10x_StdPeriph_Driver\src\stm32f10x_i2c.o
I2C_DualAddressCmd                                build\Libraries\STM32F10x_StdPeriph_Driver\src\stm32f10x_i2c.o
I2C_FastModeDutyCycleConfig                       build\Libraries\STM32F10x_StdPeriph_Driver\src\stm32f10x_i2c.o
I2C_GeneralCallCmd                                build\Libraries\STM32F10x_StdPeriph_Driver\src\stm32f10x_i2c.o
I2C_GenerateSTART                                 build\Libraries\STM32F10x_StdPeriph_Driver\src\stm32f10x_i2c.o
I2C_GenerateSTOP                                  build\Libraries\STM32F10x_StdPeriph_Driver\src\stm32f10x_i2c.o
I2C_GetFlagStatus                                 build\Libraries\STM32F10x_StdPeriph_Driver\src\stm32f10x_i2c.o
I2C_GetITStatus                                   build\Libraries\STM32F10x_StdPeriph_Driver\src\stm32f10x_i2c.o
I2C_GetLastEvent                                  build\Libraries\STM32F10x_StdPeriph_Driver\src\stm32f10x_i2c.o
I2C_GetPEC                                        build\Libraries\STM32F10x_StdPeriph_Driver\src\stm32f10x_i2c.o
I2C_ITConfig                                      build\Libraries\STM32F10x_StdPeriph_Driver\src\stm32f10x_i2c.o
I2C_Init                                          build\Libraries\STM32F10x_StdPeriph_Driver\src\stm32f10x_i2c.o
I2C_NACKPositionConfig                            build\Libraries\STM32F10x_StdPeriph_Driver\src\stm32f10x_i2c.o
I2C_OwnAddress2Config                             build\Libraries\STM32F10x_StdPeriph_Driver\src\stm32f10x_i2c.o
I2C_PECPositionConfig                             build\Libraries\STM32F10x_StdPeriph_Driver\src\stm32f10x_i2c.o
I2C_ReadRegister                                  build\Libraries\STM32F10x_StdPeriph_Driver\src\stm32f10x_i2c.o
I2C_ReceiveData                                   build\Libraries\STM32F10x_StdPeriph_Driver\src\stm32f10x_i2c.o
I2C_SMBusAlertConfig                              build\Libraries\STM32F10x_StdPeriph_Driver\src\stm32f10x_i2c.o
I2C_Send7bitAddress                               build\Libraries\STM32F10x_StdPeriph_Driver\src\stm32f10x_i2c.o
I2C_SendData                                      build\Libraries\STM32F10x_StdPeriph_Driver\src\stm32f10x_i2c.o
I2C_SoftwareResetCmd                              build\Libraries\STM32F10x_StdPeriph_Driver\src\stm32f10x_i2c.o
I2C_StretchClockCmd                               build\Libraries\STM32F10x_StdPeriph_Driver\src\stm32f10x_i2c.o
I2C_StructInit                                    build\Libraries\STM32F10x_StdPeriph_Driver\src\stm32f10x_i2c.o
I2C_TransmitPEC                                   build\Libraries\STM32F10x_StdPeriph_Driver\src\stm32f10x_i2c.o
I2S_Cmd                                           build\Libraries\STM32F10x_StdPeriph_Driver\src\stm32f10x_spi.o
I2S_Init                                          build\Libraries\STM32F10x_StdPeriph_Driver\src\stm32f10x_spi.o
I2S_StructInit                                    build\Libraries\STM32F10x_StdPeriph_Driver\src\stm32f10x_spi.o
IWDG_Enable                                       build\Libraries\STM32F10x_StdPeriph_Driver\src\stm32f10x_iwdg.o
IWDG_GetFlagStatus                                build\Libraries\STM32F10x_StdPeriph_Driver\src\stm32f10x_iwdg.o
IWDG_ReloadCounter                                build\Libraries\STM32F10x_StdPeriph_Driver\src\stm32f10x_iwdg.o
IWDG_SetPrescaler                                 build\Libraries\STM32F10x_StdPeriph_Driver\src\stm32f10x_iwdg.o
IWDG_SetReload                                    build\Libraries\STM32F10x_StdPeriph_Driver\src\stm32f10x_iwdg.o
IWDG_WriteAccessCmd                               build\Libraries\STM32F10x_StdPeriph_Driver\src\stm32f10x_iwdg.o
In0_Process                                       build\usb_hid\src\usb_core.o
                                                  build\usb_hid\src\usb_int.o
LM75_LowLevel_DeInit                              build\usb_hid\src\stm3210b_eval.o
LM75_LowLevel_Init                                build\usb_hid\src\stm3210b_eval.o
Leave_LowPowerMode                                build\usb_hid\src\hw_config.o
                                                  build\usb_hid\src\usb_pwr.o
MemManage_Handler                                 build\drivers\stm32f10x_it.o
NMI_Handler                                       build\drivers\stm32f10x_it.o
NOP_Process                                       build\usb_hid\src\usb_core.o
                                                  build\usb_hid\src\usb_prop.o
                                                  build\usb_hid\src\usb_istr.o
NVIC_Configuration                                build\drivers\board.o
NVIC_Init                                         build\Libraries\STM32F10x_StdPeriph_Driver\src\misc.o
                                                  build\usb_hid\src\hw_config.o
                                                  build\motor\src\pwm.o
                                                  build\motor\src\counter.o
                                                  build\drivers\usart.o
NVIC_PriorityGroupConfig                          build\Libraries\STM32F10x_StdPeriph_Driver\src\misc.o
                                                  build\usb_hid\src\hw_config.o
                                                  build\motor\src\pwm.o
                                                  build\motor\src\counter.o
NVIC_SetVectorTable                               build\Libraries\STM32F10x_StdPeriph_Driver\src\misc.o
                                                  build\drivers\board.o
NVIC_SystemLPConfig                               build\Libraries\STM32F10x_StdPeriph_Driver\src\misc.o
Out0_Process                                      build\usb_hid\src\usb_core.o
                                                  build\usb_hid\src\usb_int.o
PMAToUserBufferCopy                               build\usb_hid\src\usb_mem.o
                                                  build\usb_hid\src\usb_sil.o
                                                  build\usb_hid\src\usb_core.o
PVD_IRQHandler                                    build\Libraries\CMSIS\CM3\DeviceSupport\ST\STM32F10x\startup\gcc_ride7\startup_stm32f10x_md.o
PWR_BackupAccessCmd                               build\Libraries\STM32F10x_StdPeriph_Driver\src\stm32f10x_pwr.o
PWR_ClearFlag                                     build\Libraries\STM32F10x_StdPeriph_Driver\src\stm32f10x_pwr.o
PWR_DeInit                                        build\Libraries\STM32F10x_StdPeriph_Driver\src\stm32f10x_pwr.o
PWR_EnterSTANDBYMode                              build\Libraries\STM32F10x_StdPeriph_Driver\src\stm32f10x_pwr.o
PWR_EnterSTOPMode                                 build\Libraries\STM32F10x_StdPeriph_Driver\src\stm32f10x_pwr.o
PWR_GetFlagStatus                                 build\Libraries\STM32F10x_StdPeriph_Driver\src\stm32f10x_pwr.o
PWR_PVDCmd                                        build\Libraries\STM32F10x_StdPeriph_Driver\src\stm32f10x_pwr.o
PWR_PVDLevelConfig                                build\Libraries\STM32F10x_StdPeriph_Driver\src\stm32f10x_pwr.o
PWR_WakeUpPinCmd                                  build\Libraries\STM32F10x_StdPeriph_Driver\src\stm32f10x_pwr.o
PendSV_Handler                                    build\libcpu\arm\cortex-m3\context_gcc.o
                                                  build\Libraries\CMSIS\CM3\DeviceSupport\ST\STM32F10x\startup\gcc_ride7\startup_stm32f10x_md.o
Post0_Process                                     build\usb_hid\src\usb_core.o
PowerOff                                          build\usb_hid\src\usb_pwr.o
PowerOn                                           build\usb_hid\src\usb_pwr.o
                                                  build\usb_hid\src\usb_prop.o
PrevXferComplete                                  build\usb_hid\src\entry.o
                                                  build\usb_hid\src\usb_endp.o
ProtocolValue                                     build\usb_hid\src\usb_prop.o
RCC_ADCCLKConfig                                  build\Libraries\STM32F10x_StdPeriph_Driver\src\stm32f10x_rcc.o
                                                  build\usb_hid\src\hw_config.o
                                                  build\motor\src\adc.o
RCC_ADC_init                                      build\motor\src\adc.o
RCC_AHBPeriphClockCmd                             build\Libraries\STM32F10x_StdPeriph_Driver\src\stm32f10x_rcc.o
                                                  build\motor\src\adc.o
RCC_APB1PeriphClockCmd                            build\Libraries\STM32F10x_StdPeriph_Driver\src\stm32f10x_rcc.o
                                                  build\usb_hid\src\hw_config.o
                                                  build\motor\src\pwm.o
                                                  build\motor\src\counter.o
                                                  build\drivers\usart.o
RCC_APB1PeriphResetCmd                            build\Libraries\STM32F10x_StdPeriph_Driver\src\stm32f10x_rcc.o
                                                  build\Libraries\STM32F10x_StdPeriph_Driver\src\stm32f10x_cec.o
                                                  build\Libraries\STM32F10x_StdPeriph_Driver\src\stm32f10x_can.o
                                                  build\Libraries\STM32F10x_StdPeriph_Driver\src\stm32f10x_usart.o
                                                  build\Libraries\STM32F10x_StdPeriph_Driver\src\stm32f10x_spi.o
                                                  build\Libraries\STM32F10x_StdPeriph_Driver\src\stm32f10x_tim.o
                                                  build\Libraries\STM32F10x_StdPeriph_Driver\src\stm32f10x_dac.o
                                                  build\Libraries\STM32F10x_StdPeriph_Driver\src\stm32f10x_i2c.o
                                                  build\Libraries\STM32F10x_StdPeriph_Driver\src\stm32f10x_pwr.o
                                                  build\Libraries\STM32F10x_StdPeriph_Driver\src\stm32f10x_wwdg.o
RCC_APB2PeriphClockCmd                            build\Libraries\STM32F10x_StdPeriph_Driver\src\stm32f10x_rcc.o
                                                  build\usb_hid\src\hw_config.o
                                                  build\motor\src\ds18b20.o
                                                  build\motor\src\pga.o
                                                  build\motor\src\vout.o
                                                  build\motor\src\pwm.o
                                                  build\motor\src\entry.o
                                                  build\motor\src\counter.o
                                                  build\motor\src\adc.o
                                                  build\drivers\usart.o
                                                  build\drivers\led.o
RCC_APB2PeriphResetCmd                            build\Libraries\STM32F10x_StdPeriph_Driver\src\stm32f10x_rcc.o
                                                  build\Libraries\STM32F10x_StdPeriph_Driver\src\stm32f10x_usart.o
                                                  build\Libraries\STM32F10x_StdPeriph_Driver\src\stm32f10x_gpio.o
                                                  build\Libraries\STM32F10x_StdPeriph_Driver\src\stm32f10x_spi.o
                                                  build\Libraries\STM32F10x_StdPeriph_Driver\src\stm32f10x_tim.o
                                                  build\Libraries\STM32F10x_StdPeriph_Driver\src\stm32f10x_adc.o
RCC_AdjustHSICalibrationValue                     build\Libraries\STM32F10x_StdPeriph_Driver\src\stm32f10x_rcc.o
RCC_BackupResetCmd                                build\Libraries\STM32F10x_StdPeriph_Driver\src\stm32f10x_rcc.o
                                                  build\Libraries\STM32F10x_StdPeriph_Driver\src\stm32f10x_bkp.o
RCC_ClearFlag                                     build\Libraries\STM32F10x_StdPeriph_Driver\src\stm32f10x_rcc.o
RCC_ClearITPendingBit                             build\Libraries\STM32F10x_StdPeriph_Driver\src\stm32f10x_rcc.o
RCC_ClockSecuritySystemCmd                        build\Libraries\STM32F10x_StdPeriph_Driver\src\stm32f10x_rcc.o
RCC_Configuration_motor                           build\motor\src\entry.o
RCC_DeInit                                        build\Libraries\STM32F10x_StdPeriph_Driver\src\stm32f10x_rcc.o
RCC_GetClocksFreq                                 build\Libraries\STM32F10x_StdPeriph_Driver\src\stm32f10x_rcc.o
                                                  build\Libraries\STM32F10x_StdPeriph_Driver\src\stm32f10x_usart.o
                                                  build\Libraries\STM32F10x_StdPeriph_Driver\src\stm32f10x_spi.o
                                                  build\Libraries\STM32F10x_StdPeriph_Driver\src\stm32f10x_i2c.o
RCC_GetFlagStatus                                 build\Libraries\STM32F10x_StdPeriph_Driver\src\stm32f10x_rcc.o
RCC_GetITStatus                                   build\Libraries\STM32F10x_StdPeriph_Driver\src\stm32f10x_rcc.o
RCC_GetSYSCLKSource                               build\Libraries\STM32F10x_StdPeriph_Driver\src\stm32f10x_rcc.o
RCC_HCLKConfig                                    build\Libraries\STM32F10x_StdPeriph_Driver\src\stm32f10x_rcc.o
RCC_HSEConfig                                     build\Libraries\STM32F10x_StdPeriph_Driver\src\stm32f10x_rcc.o
RCC_HSICmd                                        build\Libraries\STM32F10x_StdPeriph_Driver\src\stm32f10x_rcc.o
RCC_IRQHandler                                    build\Libraries\CMSIS\CM3\DeviceSupport\ST\STM32F10x\startup\gcc_ride7\startup_stm32f10x_md.o
RCC_ITConfig                                      build\Libraries\STM32F10x_StdPeriph_Driver\src\stm32f10x_rcc.o
RCC_LSEConfig                                     build\Libraries\STM32F10x_StdPeriph_Driver\src\stm32f10x_rcc.o
RCC_LSICmd                                        build\Libraries\STM32F10x_StdPeriph_Driver\src\stm32f10x_rcc.o
RCC_MCOConfig                                     build\Libraries\STM32F10x_StdPeriph_Driver\src\stm32f10x_rcc.o
RCC_PCLK1Config                                   build\Libraries\STM32F10x_StdPeriph_Driver\src\stm32f10x_rcc.o
RCC_PCLK2Config                                   build\Libraries\STM32F10x_StdPeriph_Driver\src\stm32f10x_rcc.o
RCC_PLLCmd                                        build\Libraries\STM32F10x_StdPeriph_Driver\src\stm32f10x_rcc.o
RCC_PLLConfig                                     build\Libraries\STM32F10x_StdPeriph_Driver\src\stm32f10x_rcc.o
RCC_RTCCLKCmd                                     build\Libraries\STM32F10x_StdPeriph_Driver\src\stm32f10x_rcc.o
RCC_RTCCLKConfig                                  build\Libraries\STM32F10x_StdPeriph_Driver\src\stm32f10x_rcc.o
RCC_SYSCLKConfig                                  build\Libraries\STM32F10x_StdPeriph_Driver\src\stm32f10x_rcc.o
RCC_USBCLKConfig                                  build\Libraries\STM32F10x_StdPeriph_Driver\src\stm32f10x_rcc.o
                                                  build\usb_hid\src\hw_config.o
RCC_WaitForHSEStartUp                             build\Libraries\STM32F10x_StdPeriph_Driver\src\stm32f10x_rcc.o
RCC_ds18b20_setup_out                             build\motor\src\ds18b20.o
RCC_pga_init                                      build\motor\src\pga.o
RCC_vout_init                                     build\motor\src\vout.o
RTCAlarm_IRQHandler                               build\Libraries\CMSIS\CM3\DeviceSupport\ST\STM32F10x\startup\gcc_ride7\startup_stm32f10x_md.o
RTC_ClearFlag                                     build\Libraries\STM32F10x_StdPeriph_Driver\src\stm32f10x_rtc.o
RTC_ClearITPendingBit                             build\Libraries\STM32F10x_StdPeriph_Driver\src\stm32f10x_rtc.o
RTC_EnterConfigMode                               build\Libraries\STM32F10x_StdPeriph_Driver\src\stm32f10x_rtc.o
RTC_ExitConfigMode                                build\Libraries\STM32F10x_StdPeriph_Driver\src\stm32f10x_rtc.o
RTC_GetCounter                                    build\Libraries\STM32F10x_StdPeriph_Driver\src\stm32f10x_rtc.o
RTC_GetDivider                                    build\Libraries\STM32F10x_StdPeriph_Driver\src\stm32f10x_rtc.o
RTC_GetFlagStatus                                 build\Libraries\STM32F10x_StdPeriph_Driver\src\stm32f10x_rtc.o
RTC_GetITStatus                                   build\Libraries\STM32F10x_StdPeriph_Driver\src\stm32f10x_rtc.o
RTC_IRQHandler                                    build\Libraries\CMSIS\CM3\DeviceSupport\ST\STM32F10x\startup\gcc_ride7\startup_stm32f10x_md.o
RTC_ITConfig                                      build\Libraries\STM32F10x_StdPeriph_Driver\src\stm32f10x_rtc.o
RTC_SetAlarm                                      build\Libraries\STM32F10x_StdPeriph_Driver\src\stm32f10x_rtc.o
RTC_SetCounter                                    build\Libraries\STM32F10x_StdPeriph_Driver\src\stm32f10x_rtc.o
RTC_SetPrescaler                                  build\Libraries\STM32F10x_StdPeriph_Driver\src\stm32f10x_rtc.o
RTC_WaitForLastTask                               build\Libraries\STM32F10x_StdPeriph_Driver\src\stm32f10x_rtc.o
RTC_WaitForSynchro                                build\Libraries\STM32F10x_StdPeriph_Driver\src\stm32f10x_rtc.o
Report_Buf                                        build\usb_hid\src\usb_prop.o
Request                                           build\usb_hid\src\usb_prop.o
Reset_Handler                                     build\Libraries\CMSIS\CM3\DeviceSupport\ST\STM32F10x\startup\gcc_ride7\startup_stm32f10x_md.o
Resume                                            build\usb_hid\src\usb_pwr.o
ResumeS                                           build\usb_hid\src\usb_pwr.o
Resume_Init                                       build\usb_hid\src\usb_pwr.o
SDIO_CEATAITCmd                                   build\Libraries\STM32F10x_StdPeriph_Driver\src\stm32f10x_sdio.o
SDIO_ClearFlag                                    build\Libraries\STM32F10x_StdPeriph_Driver\src\stm32f10x_sdio.o
SDIO_ClearITPendingBit                            build\Libraries\STM32F10x_StdPeriph_Driver\src\stm32f10x_sdio.o
SDIO_ClockCmd                                     build\Libraries\STM32F10x_StdPeriph_Driver\src\stm32f10x_sdio.o
SDIO_CmdStructInit                                build\Libraries\STM32F10x_StdPeriph_Driver\src\stm32f10x_sdio.o
SDIO_CommandCompletionCmd                         build\Libraries\STM32F10x_StdPeriph_Driver\src\stm32f10x_sdio.o
SDIO_DMACmd                                       build\Libraries\STM32F10x_StdPeriph_Driver\src\stm32f10x_sdio.o
SDIO_DataConfig                                   build\Libraries\STM32F10x_StdPeriph_Driver\src\stm32f10x_sdio.o
SDIO_DataStructInit                               build\Libraries\STM32F10x_StdPeriph_Driver\src\stm32f10x_sdio.o
SDIO_DeInit                                       build\Libraries\STM32F10x_StdPeriph_Driver\src\stm32f10x_sdio.o
SDIO_GetCommandResponse                           build\Libraries\STM32F10x_StdPeriph_Driver\src\stm32f10x_sdio.o
SDIO_GetDataCounter                               build\Libraries\STM32F10x_StdPeriph_Driver\src\stm32f10x_sdio.o
SDIO_GetFIFOCount                                 build\Libraries\STM32F10x_StdPeriph_Driver\src\stm32f10x_sdio.o
SDIO_GetFlagStatus                                build\Libraries\STM32F10x_StdPeriph_Driver\src\stm32f10x_sdio.o
SDIO_GetITStatus                                  build\Libraries\STM32F10x_StdPeriph_Driver\src\stm32f10x_sdio.o
SDIO_GetPowerState                                build\Libraries\STM32F10x_StdPeriph_Driver\src\stm32f10x_sdio.o
SDIO_GetResponse                                  build\Libraries\STM32F10x_StdPeriph_Driver\src\stm32f10x_sdio.o
SDIO_ITConfig                                     build\Libraries\STM32F10x_StdPeriph_Driver\src\stm32f10x_sdio.o
SDIO_Init                                         build\Libraries\STM32F10x_StdPeriph_Driver\src\stm32f10x_sdio.o
SDIO_ReadData                                     build\Libraries\STM32F10x_StdPeriph_Driver\src\stm32f10x_sdio.o
SDIO_SendCEATACmd                                 build\Libraries\STM32F10x_StdPeriph_Driver\src\stm32f10x_sdio.o
SDIO_SendCommand                                  build\Libraries\STM32F10x_StdPeriph_Driver\src\stm32f10x_sdio.o
SDIO_SendSDIOSuspendCmd                           build\Libraries\STM32F10x_StdPeriph_Driver\src\stm32f10x_sdio.o
SDIO_SetPowerState                                build\Libraries\STM32F10x_StdPeriph_Driver\src\stm32f10x_sdio.o
SDIO_SetSDIOOperation                             build\Libraries\STM32F10x_StdPeriph_Driver\src\stm32f10x_sdio.o
SDIO_SetSDIOReadWaitMode                          build\Libraries\STM32F10x_StdPeriph_Driver\src\stm32f10x_sdio.o
SDIO_StartSDIOReadWait                            build\Libraries\STM32F10x_StdPeriph_Driver\src\stm32f10x_sdio.o
SDIO_StopSDIOReadWait                             build\Libraries\STM32F10x_StdPeriph_Driver\src\stm32f10x_sdio.o
SDIO_StructInit                                   build\Libraries\STM32F10x_StdPeriph_Driver\src\stm32f10x_sdio.o
SDIO_WriteData                                    build\Libraries\STM32F10x_StdPeriph_Driver\src\stm32f10x_sdio.o
SD_LowLevel_DeInit                                build\usb_hid\src\stm3210b_eval.o
SD_LowLevel_Init                                  build\usb_hid\src\stm3210b_eval.o
SPI1_IRQHandler                                   build\Libraries\CMSIS\CM3\DeviceSupport\ST\STM32F10x\startup\gcc_ride7\startup_stm32f10x_md.o
SPI2_IRQHandler                                   build\Libraries\CMSIS\CM3\DeviceSupport\ST\STM32F10x\startup\gcc_ride7\startup_stm32f10x_md.o
SPI_BiDirectionalLineConfig                       build\Libraries\STM32F10x_StdPeriph_Driver\src\stm32f10x_spi.o
SPI_CalculateCRC                                  build\Libraries\STM32F10x_StdPeriph_Driver\src\stm32f10x_spi.o
SPI_Cmd                                           build\Libraries\STM32F10x_StdPeriph_Driver\src\stm32f10x_spi.o
SPI_DataSizeConfig                                build\Libraries\STM32F10x_StdPeriph_Driver\src\stm32f10x_spi.o
SPI_GetCRC                                        build\Libraries\STM32F10x_StdPeriph_Driver\src\stm32f10x_spi.o
SPI_GetCRCPolynomial                              build\Libraries\STM32F10x_StdPeriph_Driver\src\stm32f10x_spi.o
SPI_I2S_ClearFlag                                 build\Libraries\STM32F10x_StdPeriph_Driver\src\stm32f10x_spi.o
SPI_I2S_ClearITPendingBit                         build\Libraries\STM32F10x_StdPeriph_Driver\src\stm32f10x_spi.o
SPI_I2S_DMACmd                                    build\Libraries\STM32F10x_StdPeriph_Driver\src\stm32f10x_spi.o
SPI_I2S_DeInit                                    build\Libraries\STM32F10x_StdPeriph_Driver\src\stm32f10x_spi.o
SPI_I2S_GetFlagStatus                             build\Libraries\STM32F10x_StdPeriph_Driver\src\stm32f10x_spi.o
SPI_I2S_GetITStatus                               build\Libraries\STM32F10x_StdPeriph_Driver\src\stm32f10x_spi.o
SPI_I2S_ITConfig                                  build\Libraries\STM32F10x_StdPeriph_Driver\src\stm32f10x_spi.o
SPI_I2S_ReceiveData                               build\Libraries\STM32F10x_StdPeriph_Driver\src\stm32f10x_spi.o
SPI_I2S_SendData                                  build\Libraries\STM32F10x_StdPeriph_Driver\src\stm32f10x_spi.o
SPI_Init                                          build\Libraries\STM32F10x_StdPeriph_Driver\src\stm32f10x_spi.o
SPI_NSSInternalSoftwareConfig                     build\Libraries\STM32F10x_StdPeriph_Driver\src\stm32f10x_spi.o
SPI_SSOutputCmd                                   build\Libraries\STM32F10x_StdPeriph_Driver\src\stm32f10x_spi.o
SPI_StructInit                                    build\Libraries\STM32F10x_StdPeriph_Driver\src\stm32f10x_spi.o
SPI_TransmitCRC                                   build\Libraries\STM32F10x_StdPeriph_Driver\src\stm32f10x_spi.o
STM_EVAL_COMInit                                  build\usb_hid\src\stm3210b_eval.o
STM_EVAL_LEDInit                                  build\usb_hid\src\stm3210b_eval.o
STM_EVAL_LEDOff                                   build\usb_hid\src\stm3210b_eval.o
                                                  build\usb_hid\src\usb_prop.o
STM_EVAL_LEDOn                                    build\usb_hid\src\stm3210b_eval.o
                                                  build\usb_hid\src\usb_prop.o
STM_EVAL_LEDToggle                                build\usb_hid\src\stm3210b_eval.o
STM_EVAL_PBGetState                               build\usb_hid\src\stm3210b_eval.o
STM_EVAL_PBInit                                   build\usb_hid\src\stm3210b_eval.o
SVC_Handler                                       build\drivers\stm32f10x_it.o
SW_status                                         build\motor\src\adc.o
SaveRState                                        build\usb_hid\src\usb_int.o
                                                  build\usb_hid\src\usb_core.o
SaveState                                         build\usb_hid\src\usb_init.o
SaveTState                                        build\usb_hid\src\usb_int.o
                                                  build\usb_hid\src\usb_core.o
Send_Buffer                                       build\usb_hid\src\stm32_it.o
SetBTABLE                                         build\usb_hid\src\usb_regs.o
                                                  build\usb_hid\src\usb_prop.o
SetCNTR                                           build\usb_hid\src\usb_regs.o
SetDADDR                                          build\usb_hid\src\usb_regs.o
SetDeviceAddress                                  build\usb_hid\src\usb_core.o
                                                  build\usb_hid\src\usb_prop.o
SetDouBleBuffEPStall                              build\usb_hid\src\usb_regs.o
SetENDPOINT                                       build\usb_hid\src\usb_regs.o
SetEPAddress                                      build\usb_hid\src\usb_regs.o
SetEPCountRxReg                                   build\usb_hid\src\usb_regs.o
SetEPDblBuf0Addr                                  build\usb_hid\src\usb_regs.o
SetEPDblBuf0Count                                 build\usb_hid\src\usb_regs.o
SetEPDblBuf1Addr                                  build\usb_hid\src\usb_regs.o
SetEPDblBuf1Count                                 build\usb_hid\src\usb_regs.o
SetEPDblBuffAddr                                  build\usb_hid\src\usb_regs.o
SetEPDblBuffCount                                 build\usb_hid\src\usb_regs.o
SetEPDoubleBuff                                   build\usb_hid\src\usb_regs.o
SetEPRxAddr                                       build\usb_hid\src\usb_regs.o
                                                  build\usb_hid\src\usb_prop.o
SetEPRxCount                                      build\usb_hid\src\usb_regs.o
                                                  build\usb_hid\src\usb_prop.o
                                                  build\usb_hid\src\usb_core.o
SetEPRxStatus                                     build\usb_hid\src\usb_regs.o
                                                  build\usb_hid\src\usb_prop.o
                                                  build\usb_hid\src\usb_endp.o
SetEPRxValid                                      build\usb_hid\src\usb_regs.o
                                                  build\usb_hid\src\usb_prop.o
SetEPTxAddr                                       build\usb_hid\src\usb_regs.o
                                                  build\usb_hid\src\usb_prop.o
SetEPTxCount                                      build\usb_hid\src\usb_regs.o
                                                  build\usb_hid\src\usb_sil.o
                                                  build\usb_hid\src\usb_prop.o
                                                  build\usb_hid\src\usb_core.o
SetEPTxStatus                                     build\usb_hid\src\usb_regs.o
                                                  build\usb_hid\src\usb_prop.o
                                                  build\usb_hid\src\usb_core.o
SetEPTxValid                                      build\usb_hid\src\usb_regs.o
                                                  build\usb_hid\src\usb_endp.o
SetEPType                                         build\usb_hid\src\usb_regs.o
                                                  build\usb_hid\src\usb_prop.o
SetEP_KIND                                        build\usb_hid\src\usb_regs.o
SetISTR                                           build\usb_hid\src\usb_regs.o
Set_Status_Out                                    build\usb_hid\src\usb_regs.o
Set_System                                        build\usb_hid\src\hw_config.o
                                                  build\usb_hid\src\entry.o
Set_USBClock                                      build\usb_hid\src\hw_config.o
                                                  build\usb_hid\src\entry.o
Setup0_Process                                    build\usb_hid\src\usb_core.o
                                                  build\usb_hid\src\usb_int.o
Standard_ClearFeature                             build\usb_hid\src\usb_core.o
Standard_GetConfiguration                         build\usb_hid\src\usb_core.o
Standard_GetDescriptorData                        build\usb_hid\src\usb_core.o
                                                  build\usb_hid\src\usb_prop.o
Standard_GetInterface                             build\usb_hid\src\usb_core.o
Standard_GetStatus                                build\usb_hid\src\usb_core.o
Standard_SetConfiguration                         build\usb_hid\src\usb_core.o
Standard_SetDeviceFeature                         build\usb_hid\src\usb_core.o
Standard_SetEndPointFeature                       build\usb_hid\src\usb_core.o
Standard_SetInterface                             build\usb_hid\src\usb_core.o
StatusInfo                                        build\usb_hid\src\usb_core.o
String_Descriptor                                 build\usb_hid\src\usb_prop.o
Suspend                                           build\usb_hid\src\usb_pwr.o
SysTick_CLKSourceConfig                           build\Libraries\STM32F10x_StdPeriph_Driver\src\misc.o
SysTick_Handler                                   build\drivers\board.o
SysTick_Handler__                                 build\usb_hid\src\stm32_it.o
SystemCoreClock                                   build\Libraries\CMSIS\CM3\DeviceSupport\ST\STM32F10x\system_stm32f10x.o
                                                  build\drivers\board.o
SystemCoreClockUpdate                             build\Libraries\CMSIS\CM3\DeviceSupport\ST\STM32F10x\system_stm32f10x.o
SystemInit                                        build\Libraries\CMSIS\CM3\DeviceSupport\ST\STM32F10x\system_stm32f10x.o
                                                  build\usb_hid\src\hw_config.o
                                                  build\Libraries\CMSIS\CM3\DeviceSupport\ST\STM32F10x\startup\gcc_ride7\startup_stm32f10x_md.o
TAMPER_IRQHandler                                 build\Libraries\CMSIS\CM3\DeviceSupport\ST\STM32F10x\startup\gcc_ride7\startup_stm32f10x_md.o
TIM1_BRK_IRQHandler                               build\Libraries\CMSIS\CM3\DeviceSupport\ST\STM32F10x\startup\gcc_ride7\startup_stm32f10x_md.o
TIM1_CC_IRQHandler                                build\Libraries\CMSIS\CM3\DeviceSupport\ST\STM32F10x\startup\gcc_ride7\startup_stm32f10x_md.o
TIM1_TRG_COM_IRQHandler                           build\Libraries\CMSIS\CM3\DeviceSupport\ST\STM32F10x\startup\gcc_ride7\startup_stm32f10x_md.o
TIM1_UP_IRQHandler                                build\Libraries\CMSIS\CM3\DeviceSupport\ST\STM32F10x\startup\gcc_ride7\startup_stm32f10x_md.o
TIM2_IRQHandler                                   build\motor\src\counter.o
                                                  build\Libraries\CMSIS\CM3\DeviceSupport\ST\STM32F10x\startup\gcc_ride7\startup_stm32f10x_md.o
TIM3_IRQHandler                                   build\Libraries\CMSIS\CM3\DeviceSupport\ST\STM32F10x\startup\gcc_ride7\startup_stm32f10x_md.o
TIM4_IRQHandler                                   build\Libraries\CMSIS\CM3\DeviceSupport\ST\STM32F10x\startup\gcc_ride7\startup_stm32f10x_md.o
TIM_ARRPreloadConfig                              build\Libraries\STM32F10x_StdPeriph_Driver\src\stm32f10x_tim.o
                                                  build\motor\src\vout.o
                                                  build\motor\src\counter.o
TIM_BDTRConfig                                    build\Libraries\STM32F10x_StdPeriph_Driver\src\stm32f10x_tim.o
TIM_BDTRStructInit                                build\Libraries\STM32F10x_StdPeriph_Driver\src\stm32f10x_tim.o
TIM_CCPreloadControl                              build\Libraries\STM32F10x_StdPeriph_Driver\src\stm32f10x_tim.o
TIM_CCxCmd                                        build\Libraries\STM32F10x_StdPeriph_Driver\src\stm32f10x_tim.o
                                                  build\motor\src\vout.o
                                                  build\motor\src\pwm.o
TIM_CCxNCmd                                       build\Libraries\STM32F10x_StdPeriph_Driver\src\stm32f10x_tim.o
TIM_ClearFlag                                     build\Libraries\STM32F10x_StdPeriph_Driver\src\stm32f10x_tim.o
                                                  build\motor\src\pwm.o
                                                  build\motor\src\counter.o
TIM_ClearITPendingBit                             build\Libraries\STM32F10x_StdPeriph_Driver\src\stm32f10x_tim.o
                                                  build\motor\src\counter.o
TIM_ClearOC1Ref                                   build\Libraries\STM32F10x_StdPeriph_Driver\src\stm32f10x_tim.o
TIM_ClearOC2Ref                                   build\Libraries\STM32F10x_StdPeriph_Driver\src\stm32f10x_tim.o
TIM_ClearOC3Ref                                   build\Libraries\STM32F10x_StdPeriph_Driver\src\stm32f10x_tim.o
TIM_ClearOC4Ref                                   build\Libraries\STM32F10x_StdPeriph_Driver\src\stm32f10x_tim.o
TIM_Cmd                                           build\Libraries\STM32F10x_StdPeriph_Driver\src\stm32f10x_tim.o
                                                  build\motor\src\vout.o
                                                  build\motor\src\pwm.o
                                                  build\motor\src\counter.o
TIM_CounterModeConfig                             build\Libraries\STM32F10x_StdPeriph_Driver\src\stm32f10x_tim.o
TIM_CtrlPWMOutputs                                build\Libraries\STM32F10x_StdPeriph_Driver\src\stm32f10x_tim.o
                                                  build\motor\src\vout.o
TIM_DMACmd                                        build\Libraries\STM32F10x_StdPeriph_Driver\src\stm32f10x_tim.o
TIM_DMAConfig                                     build\Libraries\STM32F10x_StdPeriph_Driver\src\stm32f10x_tim.o
TIM_DeInit                                        build\Libraries\STM32F10x_StdPeriph_Driver\src\stm32f10x_tim.o
                                                  build\motor\src\vout.o
                                                  build\motor\src\pwm.o
                                                  build\motor\src\counter.o
TIM_ETRClockMode1Config                           build\Libraries\STM32F10x_StdPeriph_Driver\src\stm32f10x_tim.o
TIM_ETRClockMode2Config                           build\Libraries\STM32F10x_StdPeriph_Driver\src\stm32f10x_tim.o
                                                  build\motor\src\counter.o
TIM_ETRConfig                                     build\Libraries\STM32F10x_StdPeriph_Driver\src\stm32f10x_tim.o
TIM_EncoderInterfaceConfig                        build\Libraries\STM32F10x_StdPeriph_Driver\src\stm32f10x_tim.o
TIM_ForcedOC1Config                               build\Libraries\STM32F10x_StdPeriph_Driver\src\stm32f10x_tim.o
TIM_ForcedOC2Config                               build\Libraries\STM32F10x_StdPeriph_Driver\src\stm32f10x_tim.o
TIM_ForcedOC3Config                               build\Libraries\STM32F10x_StdPeriph_Driver\src\stm32f10x_tim.o
TIM_ForcedOC4Config                               build\Libraries\STM32F10x_StdPeriph_Driver\src\stm32f10x_tim.o
TIM_GenerateEvent                                 build\Libraries\STM32F10x_StdPeriph_Driver\src\stm32f10x_tim.o
TIM_GetCapture1                                   build\Libraries\STM32F10x_StdPeriph_Driver\src\stm32f10x_tim.o
TIM_GetCapture2                                   build\Libraries\STM32F10x_StdPeriph_Driver\src\stm32f10x_tim.o
TIM_GetCapture3                                   build\Libraries\STM32F10x_StdPeriph_Driver\src\stm32f10x_tim.o
TIM_GetCapture4                                   build\Libraries\STM32F10x_StdPeriph_Driver\src\stm32f10x_tim.o
TIM_GetCounter                                    build\Libraries\STM32F10x_StdPeriph_Driver\src\stm32f10x_tim.o
TIM_GetFlagStatus                                 build\Libraries\STM32F10x_StdPeriph_Driver\src\stm32f10x_tim.o
TIM_GetITStatus                                   build\Libraries\STM32F10x_StdPeriph_Driver\src\stm32f10x_tim.o
TIM_GetPrescaler                                  build\Libraries\STM32F10x_StdPeriph_Driver\src\stm32f10x_tim.o
TIM_ICInit                                        build\Libraries\STM32F10x_StdPeriph_Driver\src\stm32f10x_tim.o
TIM_ICStructInit                                  build\Libraries\STM32F10x_StdPeriph_Driver\src\stm32f10x_tim.o
TIM_ITConfig                                      build\Libraries\STM32F10x_StdPeriph_Driver\src\stm32f10x_tim.o
                                                  build\motor\src\counter.o
TIM_ITRxExternalClockConfig                       build\Libraries\STM32F10x_StdPeriph_Driver\src\stm32f10x_tim.o
TIM_InternalClockConfig                           build\Libraries\STM32F10x_StdPeriph_Driver\src\stm32f10x_tim.o
TIM_OC1FastConfig                                 build\Libraries\STM32F10x_StdPeriph_Driver\src\stm32f10x_tim.o
TIM_OC1Init                                       build\Libraries\STM32F10x_StdPeriph_Driver\src\stm32f10x_tim.o
                                                  build\motor\src\vout.o
TIM_OC1NPolarityConfig                            build\Libraries\STM32F10x_StdPeriph_Driver\src\stm32f10x_tim.o
TIM_OC1PolarityConfig                             build\Libraries\STM32F10x_StdPeriph_Driver\src\stm32f10x_tim.o
TIM_OC1PreloadConfig                              build\Libraries\STM32F10x_StdPeriph_Driver\src\stm32f10x_tim.o
TIM_OC2FastConfig                                 build\Libraries\STM32F10x_StdPeriph_Driver\src\stm32f10x_tim.o
TIM_OC2Init                                       build\Libraries\STM32F10x_StdPeriph_Driver\src\stm32f10x_tim.o
                                                  build\motor\src\pwm.o
TIM_OC2NPolarityConfig                            build\Libraries\STM32F10x_StdPeriph_Driver\src\stm32f10x_tim.o
                                                  build\motor\src\pwm.o
TIM_OC2PolarityConfig                             build\Libraries\STM32F10x_StdPeriph_Driver\src\stm32f10x_tim.o
TIM_OC2PreloadConfig                              build\Libraries\STM32F10x_StdPeriph_Driver\src\stm32f10x_tim.o
TIM_OC3FastConfig                                 build\Libraries\STM32F10x_StdPeriph_Driver\src\stm32f10x_tim.o
TIM_OC3Init                                       build\Libraries\STM32F10x_StdPeriph_Driver\src\stm32f10x_tim.o
TIM_OC3NPolarityConfig                            build\Libraries\STM32F10x_StdPeriph_Driver\src\stm32f10x_tim.o
TIM_OC3PolarityConfig                             build\Libraries\STM32F10x_StdPeriph_Driver\src\stm32f10x_tim.o
TIM_OC3PreloadConfig                              build\Libraries\STM32F10x_StdPeriph_Driver\src\stm32f10x_tim.o
TIM_OC4FastConfig                                 build\Libraries\STM32F10x_StdPeriph_Driver\src\stm32f10x_tim.o
TIM_OC4Init                                       build\Libraries\STM32F10x_StdPeriph_Driver\src\stm32f10x_tim.o
TIM_OC4PolarityConfig                             build\Libraries\STM32F10x_StdPeriph_Driver\src\stm32f10x_tim.o
TIM_OC4PreloadConfig                              build\Libraries\STM32F10x_StdPeriph_Driver\src\stm32f10x_tim.o
TIM_OCStructInit                                  build\Libraries\STM32F10x_StdPeriph_Driver\src\stm32f10x_tim.o
TIM_PWMIConfig                                    build\Libraries\STM32F10x_StdPeriph_Driver\src\stm32f10x_tim.o
TIM_PrescalerConfig                               build\Libraries\STM32F10x_StdPeriph_Driver\src\stm32f10x_tim.o
TIM_SelectCCDMA                                   build\Libraries\STM32F10x_StdPeriph_Driver\src\stm32f10x_tim.o
TIM_SelectCOM                                     build\Libraries\STM32F10x_StdPeriph_Driver\src\stm32f10x_tim.o
TIM_SelectHallSensor                              build\Libraries\STM32F10x_StdPeriph_Driver\src\stm32f10x_tim.o
TIM_SelectInputTrigger                            build\Libraries\STM32F10x_StdPeriph_Driver\src\stm32f10x_tim.o
TIM_SelectMasterSlaveMode                         build\Libraries\STM32F10x_StdPeriph_Driver\src\stm32f10x_tim.o
TIM_SelectOCxM                                    build\Libraries\STM32F10x_StdPeriph_Driver\src\stm32f10x_tim.o
TIM_SelectOnePulseMode                            build\Libraries\STM32F10x_StdPeriph_Driver\src\stm32f10x_tim.o
TIM_SelectOutputTrigger                           build\Libraries\STM32F10x_StdPeriph_Driver\src\stm32f10x_tim.o
TIM_SelectSlaveMode                               build\Libraries\STM32F10x_StdPeriph_Driver\src\stm32f10x_tim.o
TIM_SetAutoreload                                 build\Libraries\STM32F10x_StdPeriph_Driver\src\stm32f10x_tim.o
                                                  build\motor\src\pwm.o
TIM_SetClockDivision                              build\Libraries\STM32F10x_StdPeriph_Driver\src\stm32f10x_tim.o
TIM_SetCompare1                                   build\Libraries\STM32F10x_StdPeriph_Driver\src\stm32f10x_tim.o
                                                  build\motor\src\vout.o
TIM_SetCompare2                                   build\Libraries\STM32F10x_StdPeriph_Driver\src\stm32f10x_tim.o
                                                  build\motor\src\pwm.o
TIM_SetCompare3                                   build\Libraries\STM32F10x_StdPeriph_Driver\src\stm32f10x_tim.o
TIM_SetCompare4                                   build\Libraries\STM32F10x_StdPeriph_Driver\src\stm32f10x_tim.o
TIM_SetCounter                                    build\Libraries\STM32F10x_StdPeriph_Driver\src\stm32f10x_tim.o
                                                  build\motor\src\counter.o
                                                  build\motor\src\adc.o
TIM_SetIC1Prescaler                               build\Libraries\STM32F10x_StdPeriph_Driver\src\stm32f10x_tim.o
TIM_SetIC2Prescaler                               build\Libraries\STM32F10x_StdPeriph_Driver\src\stm32f10x_tim.o
TIM_SetIC3Prescaler                               build\Libraries\STM32F10x_StdPeriph_Driver\src\stm32f10x_tim.o
TIM_SetIC4Prescaler                               build\Libraries\STM32F10x_StdPeriph_Driver\src\stm32f10x_tim.o
TIM_TIxExternalClockConfig                        build\Libraries\STM32F10x_StdPeriph_Driver\src\stm32f10x_tim.o
TIM_TimeBaseInit                                  build\Libraries\STM32F10x_StdPeriph_Driver\src\stm32f10x_tim.o
                                                  build\motor\src\vout.o
                                                  build\motor\src\pwm.o
                                                  build\motor\src\counter.o
TIM_TimeBaseStructInit                            build\Libraries\STM32F10x_StdPeriph_Driver\src\stm32f10x_tim.o
TIM_UpdateDisableConfig                           build\Libraries\STM32F10x_StdPeriph_Driver\src\stm32f10x_tim.o
TIM_UpdateRequestConfig                           build\Libraries\STM32F10x_StdPeriph_Driver\src\stm32f10x_tim.o
TimingDelay                                       build\usb_hid\src\entry.o
                                                  build\usb_hid\src\stm32_it.o
ToWord                                            build\usb_hid\src\usb_regs.o
ToggleDTOG_RX                                     build\usb_hid\src\usb_regs.o
ToggleDTOG_TX                                     build\usb_hid\src\usb_regs.o
USART1_IRQHandler                                 build\drivers\usart.o
USART2_IRQHandler                                 build\drivers\usart.o
USART3_IRQHandler                                 build\drivers\usart.o
USART_ClearFlag                                   build\Libraries\STM32F10x_StdPeriph_Driver\src\stm32f10x_usart.o
USART_ClearITPendingBit                           build\Libraries\STM32F10x_StdPeriph_Driver\src\stm32f10x_usart.o
                                                  build\drivers\usart.o
USART_ClockInit                                   build\Libraries\STM32F10x_StdPeriph_Driver\src\stm32f10x_usart.o
USART_ClockStructInit                             build\Libraries\STM32F10x_StdPeriph_Driver\src\stm32f10x_usart.o
USART_Cmd                                         build\Libraries\STM32F10x_StdPeriph_Driver\src\stm32f10x_usart.o
                                                  build\drivers\usart.o
USART_DMACmd                                      build\Libraries\STM32F10x_StdPeriph_Driver\src\stm32f10x_usart.o
USART_DeInit                                      build\Libraries\STM32F10x_StdPeriph_Driver\src\stm32f10x_usart.o
USART_GetFlagStatus                               build\Libraries\STM32F10x_StdPeriph_Driver\src\stm32f10x_usart.o
USART_GetITStatus                                 build\Libraries\STM32F10x_StdPeriph_Driver\src\stm32f10x_usart.o
                                                  build\drivers\usart.o
USART_HalfDuplexCmd                               build\Libraries\STM32F10x_StdPeriph_Driver\src\stm32f10x_usart.o
USART_ITConfig                                    build\Libraries\STM32F10x_StdPeriph_Driver\src\stm32f10x_usart.o
                                                  build\drivers\usart.o
USART_Init                                        build\Libraries\STM32F10x_StdPeriph_Driver\src\stm32f10x_usart.o
                                                  build\drivers\usart.o
USART_IrDACmd                                     build\Libraries\STM32F10x_StdPeriph_Driver\src\stm32f10x_usart.o
USART_IrDAConfig                                  build\Libraries\STM32F10x_StdPeriph_Driver\src\stm32f10x_usart.o
USART_LINBreakDetectLengthConfig                  build\Libraries\STM32F10x_StdPeriph_Driver\src\stm32f10x_usart.o
USART_LINCmd                                      build\Libraries\STM32F10x_StdPeriph_Driver\src\stm32f10x_usart.o
USART_OneBitMethodCmd                             build\Libraries\STM32F10x_StdPeriph_Driver\src\stm32f10x_usart.o
USART_OverSampling8Cmd                            build\Libraries\STM32F10x_StdPeriph_Driver\src\stm32f10x_usart.o
USART_ReceiveData                                 build\Libraries\STM32F10x_StdPeriph_Driver\src\stm32f10x_usart.o
USART_ReceiverWakeUpCmd                           build\Libraries\STM32F10x_StdPeriph_Driver\src\stm32f10x_usart.o
USART_SendBreak                                   build\Libraries\STM32F10x_StdPeriph_Driver\src\stm32f10x_usart.o
USART_SendData                                    build\Libraries\STM32F10x_StdPeriph_Driver\src\stm32f10x_usart.o
USART_SetAddress                                  build\Libraries\STM32F10x_StdPeriph_Driver\src\stm32f10x_usart.o
USART_SetGuardTime                                build\Libraries\STM32F10x_StdPeriph_Driver\src\stm32f10x_usart.o
USART_SetPrescaler                                build\Libraries\STM32F10x_StdPeriph_Driver\src\stm32f10x_usart.o
USART_SmartCardCmd                                build\Libraries\STM32F10x_StdPeriph_Driver\src\stm32f10x_usart.o
USART_SmartCardNACKCmd                            build\Libraries\STM32F10x_StdPeriph_Driver\src\stm32f10x_usart.o
USART_StructInit                                  build\Libraries\STM32F10x_StdPeriph_Driver\src\stm32f10x_usart.o
USART_WakeUpConfig                                build\Libraries\STM32F10x_StdPeriph_Driver\src\stm32f10x_usart.o
USBWakeUp_IRQHandler                              build\usb_hid\src\stm32_it.o
                                                  build\Libraries\CMSIS\CM3\DeviceSupport\ST\STM32F10x\startup\gcc_ride7\startup_stm32f10x_md.o
USB_Cable_Config                                  build\usb_hid\src\hw_config.o
                                                  build\usb_hid\src\usb_pwr.o
USB_HP_CAN1_TX_IRQHandler                         build\Libraries\CMSIS\CM3\DeviceSupport\ST\STM32F10x\startup\gcc_ride7\startup_stm32f10x_md.o
USB_Init                                          build\usb_hid\src\usb_init.o
                                                  build\usb_hid\src\entry.o
USB_Interrupts_Config                             build\usb_hid\src\hw_config.o
                                                  build\usb_hid\src\entry.o
USB_Istr                                          build\usb_hid\src\usb_istr.o
                                                  build\usb_hid\src\stm32_it.o
USB_LP_CAN1_RX0_IRQHandler                        build\usb_hid\src\stm32_it.o
                                                  build\Libraries\CMSIS\CM3\DeviceSupport\ST\STM32F10x\startup\gcc_ride7\startup_stm32f10x_md.o
USB_SIL_Init                                      build\usb_hid\src\usb_sil.o
                                                  build\usb_hid\src\usb_prop.o
USB_SIL_Read                                      build\usb_hid\src\usb_sil.o
                                                  build\usb_hid\src\usb_endp.o
USB_SIL_Write                                     build\usb_hid\src\usb_sil.o
UsageFault_Handler                                build\drivers\stm32f10x_it.o
UserToPMABufferCopy                               build\usb_hid\src\usb_mem.o
                                                  build\usb_hid\src\usb_sil.o
                                                  build\usb_hid\src\usb_endp.o
                                                  build\usb_hid\src\usb_core.o
User_Standard_Requests                            build\usb_hid\src\usb_prop.o
                                                  build\usb_hid\src\usb_init.o
Vout_Value                                        build\motor\src\vout.o
WWDG_ClearFlag                                    build\Libraries\STM32F10x_StdPeriph_Driver\src\stm32f10x_wwdg.o
WWDG_DeInit                                       build\Libraries\STM32F10x_StdPeriph_Driver\src\stm32f10x_wwdg.o
WWDG_Enable                                       build\Libraries\STM32F10x_StdPeriph_Driver\src\stm32f10x_wwdg.o
WWDG_EnableIT                                     build\Libraries\STM32F10x_StdPeriph_Driver\src\stm32f10x_wwdg.o
WWDG_GetFlagStatus                                build\Libraries\STM32F10x_StdPeriph_Driver\src\stm32f10x_wwdg.o
WWDG_IRQHandler                                   build\Libraries\CMSIS\CM3\DeviceSupport\ST\STM32F10x\startup\gcc_ride7\startup_stm32f10x_md.o
WWDG_SetCounter                                   build\Libraries\STM32F10x_StdPeriph_Driver\src\stm32f10x_wwdg.o
WWDG_SetPrescaler                                 build\Libraries\STM32F10x_StdPeriph_Driver\src\stm32f10x_wwdg.o
WWDG_SetWindowValue                               build\Libraries\STM32F10x_StdPeriph_Driver\src\stm32f10x_wwdg.o
_Jv_RegisterClasses                               c:/gcc-arm/bin/../lib/gcc/arm-none-eabi/4.7.3/armv7-m/crtbegin.o
__adddf3                                          c:/gcc-arm/bin/../lib/gcc/arm-none-eabi/4.7.3/armv7-m\libgcc.a(_arm_addsubdf3.o)
__aeabi_d2iz                                      c:/gcc-arm/bin/../lib/gcc/arm-none-eabi/4.7.3/armv7-m\libgcc.a(_arm_fixdfsi.o)
                                                  build\components\libc\minilibc\math.o
__aeabi_dadd                                      c:/gcc-arm/bin/../lib/gcc/arm-none-eabi/4.7.3/armv7-m\libgcc.a(_arm_addsubdf3.o)
                                                  build\components\libc\minilibc\math.o
__aeabi_ddiv                                      c:/gcc-arm/bin/../lib/gcc/arm-none-eabi/4.7.3/armv7-m\libgcc.a(_arm_muldivdf3.o)
__aeabi_dmul                                      c:/gcc-arm/bin/../lib/gcc/arm-none-eabi/4.7.3/armv7-m\libgcc.a(_arm_muldivdf3.o)
                                                  build\components\libc\minilibc\math.o
__aeabi_drsub                                     c:/gcc-arm/bin/../lib/gcc/arm-none-eabi/4.7.3/armv7-m\libgcc.a(_arm_addsubdf3.o)
__aeabi_dsub                                      c:/gcc-arm/bin/../lib/gcc/arm-none-eabi/4.7.3/armv7-m\libgcc.a(_arm_addsubdf3.o)
                                                  build\components\libc\minilibc\math.o
__aeabi_f2d                                       c:/gcc-arm/bin/../lib/gcc/arm-none-eabi/4.7.3/armv7-m\libgcc.a(_arm_addsubdf3.o)
__aeabi_i2d                                       c:/gcc-arm/bin/../lib/gcc/arm-none-eabi/4.7.3/armv7-m\libgcc.a(_arm_addsubdf3.o)
                                                  build\components\libc\minilibc\math.o
__aeabi_l2d                                       c:/gcc-arm/bin/../lib/gcc/arm-none-eabi/4.7.3/armv7-m\libgcc.a(_arm_addsubdf3.o)
__aeabi_ui2d                                      c:/gcc-arm/bin/../lib/gcc/arm-none-eabi/4.7.3/armv7-m\libgcc.a(_arm_addsubdf3.o)
__aeabi_ul2d                                      c:/gcc-arm/bin/../lib/gcc/arm-none-eabi/4.7.3/armv7-m\libgcc.a(_arm_addsubdf3.o)
__bss_end                                         build\applications\startup.o
__bss_end__                                       c:/gcc-arm/bin/../lib/gcc/arm-none-eabi/4.7.3/../../../../arm-none-eabi/lib/armv7-m/crt0.o
__bss_start__                                     c:/gcc-arm/bin/../lib/gcc/arm-none-eabi/4.7.3/../../../../arm-none-eabi/lib/armv7-m/crt0.o
__call_exitprocs                                  c:/gcc-arm/bin/../lib/gcc/arm-none-eabi/4.7.3/../../../../arm-none-eabi/lib/armv7-m\libc.a(lib_a-__call_atexit.o)
                                                  c:/gcc-arm/bin/../lib/gcc/arm-none-eabi/4.7.3/../../../../arm-none-eabi/lib/armv7-m\libc.a(lib_a-exit.o)
__deregister_frame_info                           c:/gcc-arm/bin/../lib/gcc/arm-none-eabi/4.7.3/armv7-m/crtbegin.o
__div0                                            build\libcpu\arm\common\div0.o
__divdf3                                          c:/gcc-arm/bin/../lib/gcc/arm-none-eabi/4.7.3/armv7-m\libgcc.a(_arm_muldivdf3.o)
__dso_handle                                      c:/gcc-arm/bin/../lib/gcc/arm-none-eabi/4.7.3/armv7-m/crtbegin.o
__extendsfdf2                                     c:/gcc-arm/bin/../lib/gcc/arm-none-eabi/4.7.3/armv7-m\libgcc.a(_arm_addsubdf3.o)
__fini_array_end                                  c:/gcc-arm/bin/../lib/gcc/arm-none-eabi/4.7.3/../../../../arm-none-eabi/lib/armv7-m\libc.a(lib_a-fini.o)
__fini_array_start                                c:/gcc-arm/bin/../lib/gcc/arm-none-eabi/4.7.3/../../../../arm-none-eabi/lib/armv7-m\libc.a(lib_a-fini.o)
__fixdfsi                                         c:/gcc-arm/bin/../lib/gcc/arm-none-eabi/4.7.3/armv7-m\libgcc.a(_arm_fixdfsi.o)
__floatdidf                                       c:/gcc-arm/bin/../lib/gcc/arm-none-eabi/4.7.3/armv7-m\libgcc.a(_arm_addsubdf3.o)
__floatsidf                                       c:/gcc-arm/bin/../lib/gcc/arm-none-eabi/4.7.3/armv7-m\libgcc.a(_arm_addsubdf3.o)
__floatundidf                                     c:/gcc-arm/bin/../lib/gcc/arm-none-eabi/4.7.3/armv7-m\libgcc.a(_arm_addsubdf3.o)
__floatunsidf                                     c:/gcc-arm/bin/../lib/gcc/arm-none-eabi/4.7.3/armv7-m\libgcc.a(_arm_addsubdf3.o)
__init_array_end                                  c:/gcc-arm/bin/../lib/gcc/arm-none-eabi/4.7.3/../../../../arm-none-eabi/lib/armv7-m\libc.a(lib_a-init.o)
__init_array_start                                c:/gcc-arm/bin/../lib/gcc/arm-none-eabi/4.7.3/../../../../arm-none-eabi/lib/armv7-m\libc.a(lib_a-init.o)
__isleap                                          build\components\libc\minilibc\time.o
__libc_fini                                       c:/gcc-arm/bin/../lib/gcc/arm-none-eabi/4.7.3/../../../../arm-none-eabi/lib/armv7-m\libc.a(lib_a-__call_atexit.o)
__libc_fini_array                                 c:/gcc-arm/bin/../lib/gcc/arm-none-eabi/4.7.3/../../../../arm-none-eabi/lib/armv7-m\libc.a(lib_a-fini.o)
                                                  c:/gcc-arm/bin/../lib/gcc/arm-none-eabi/4.7.3/../../../../arm-none-eabi/lib/armv7-m\libc.a(lib_a-__call_atexit.o)
                                                  c:/gcc-arm/bin/../lib/gcc/arm-none-eabi/4.7.3/../../../../arm-none-eabi/lib/armv7-m/crt0.o
__libc_init_array                                 c:/gcc-arm/bin/../lib/gcc/arm-none-eabi/4.7.3/../../../../arm-none-eabi/lib/armv7-m\libc.a(lib_a-init.o)
                                                  c:/gcc-arm/bin/../lib/gcc/arm-none-eabi/4.7.3/../../../../arm-none-eabi/lib/armv7-m/crt0.o
__muldf3                                          c:/gcc-arm/bin/../lib/gcc/arm-none-eabi/4.7.3/armv7-m\libgcc.a(_arm_muldivdf3.o)
__preinit_array_end                               c:/gcc-arm/bin/../lib/gcc/arm-none-eabi/4.7.3/../../../../arm-none-eabi/lib/armv7-m\libc.a(lib_a-init.o)
__preinit_array_start                             c:/gcc-arm/bin/../lib/gcc/arm-none-eabi/4.7.3/../../../../arm-none-eabi/lib/armv7-m\libc.a(lib_a-init.o)
__register_exitproc                               c:/gcc-arm/bin/../lib/gcc/arm-none-eabi/4.7.3/../../../../arm-none-eabi/lib/armv7-m\libc.a(lib_a-__atexit.o)
                                                  c:/gcc-arm/bin/../lib/gcc/arm-none-eabi/4.7.3/../../../../arm-none-eabi/lib/armv7-m\libc.a(lib_a-atexit.o)
                                                  c:/gcc-arm/bin/../lib/gcc/arm-none-eabi/4.7.3/../../../../arm-none-eabi/lib/armv7-m/crt0.o
__register_frame_info                             c:/gcc-arm/bin/../lib/gcc/arm-none-eabi/4.7.3/armv7-m/crtbegin.o
__spm                                             build\components\libc\minilibc\time.o
__stack                                           c:/gcc-arm/bin/../lib/gcc/arm-none-eabi/4.7.3/../../../../arm-none-eabi/lib/armv7-m/crt0.o
__subdf3                                          c:/gcc-arm/bin/../lib/gcc/arm-none-eabi/4.7.3/armv7-m\libgcc.a(_arm_addsubdf3.o)
_ctype                                            build\components\libc\minilibc\string.o
_ebss                                             build\Libraries\CMSIS\CM3\DeviceSupport\ST\STM32F10x\startup\gcc_ride7\startup_stm32f10x_md.o
_edata                                            build\Libraries\CMSIS\CM3\DeviceSupport\ST\STM32F10x\startup\gcc_ride7\startup_stm32f10x_md.o
_estack                                           build\Libraries\CMSIS\CM3\DeviceSupport\ST\STM32F10x\startup\gcc_ride7\startup_stm32f10x_md.o
_exit                                             c:/gcc-arm/bin/../lib/gcc/arm-none-eabi/4.7.3/../../../../arm-none-eabi/lib/armv7-m\libc.a(lib_a-exit.o)
_fini                                             c:/gcc-arm/bin/../lib/gcc/arm-none-eabi/4.7.3/armv7-m/crti.o
                                                  c:/gcc-arm/bin/../lib/gcc/arm-none-eabi/4.7.3/../../../../arm-none-eabi/lib/armv7-m\libc.a(lib_a-fini.o)
_global_impure_ptr                                c:/gcc-arm/bin/../lib/gcc/arm-none-eabi/4.7.3/../../../../arm-none-eabi/lib/armv7-m\libc.a(lib_a-impure.o)
                                                  c:/gcc-arm/bin/../lib/gcc/arm-none-eabi/4.7.3/../../../../arm-none-eabi/lib/armv7-m\libc.a(lib_a-__call_atexit.o)
                                                  c:/gcc-arm/bin/../lib/gcc/arm-none-eabi/4.7.3/../../../../arm-none-eabi/lib/armv7-m\libc.a(lib_a-exit.o)
                                                  c:/gcc-arm/bin/../lib/gcc/arm-none-eabi/4.7.3/../../../../arm-none-eabi/lib/armv7-m\libc.a(lib_a-__atexit.o)
_impure_ptr                                       c:/gcc-arm/bin/../lib/gcc/arm-none-eabi/4.7.3/../../../../arm-none-eabi/lib/armv7-m\libc.a(lib_a-impure.o)
_init                                             c:/gcc-arm/bin/../lib/gcc/arm-none-eabi/4.7.3/armv7-m/crti.o
                                                  c:/gcc-arm/bin/../lib/gcc/arm-none-eabi/4.7.3/../../../../arm-none-eabi/lib/armv7-m\libc.a(lib_a-init.o)
_mainCRTStartup                                   c:/gcc-arm/bin/../lib/gcc/arm-none-eabi/4.7.3/../../../../arm-none-eabi/lib/armv7-m/crt0.o
_pipe                                             build\components\drivers\src\pipe.o
_rt_errno                                         build\src\kservice.o
_sbss                                             build\Libraries\CMSIS\CM3\DeviceSupport\ST\STM32F10x\startup\gcc_ride7\startup_stm32f10x_md.o
_sdata                                            build\Libraries\CMSIS\CM3\DeviceSupport\ST\STM32F10x\startup\gcc_ride7\startup_stm32f10x_md.o
_sidata                                           build\Libraries\CMSIS\CM3\DeviceSupport\ST\STM32F10x\startup\gcc_ride7\startup_stm32f10x_md.o
_start                                            c:/gcc-arm/bin/../lib/gcc/arm-none-eabi/4.7.3/../../../../arm-none-eabi/lib/armv7-m/crt0.o
ad_sample_stack                                   build\motor\src\adc.o
                                                  build\applications\application.o
ad_sample_thread                                  build\motor\src\adc.o
                                                  build\applications\application.o
ad_sample_thread_entry                            build\motor\src\adc.o
                                                  build\applications\application.o
adc_config                                        build\motor\src\adc.o
                                                  build\motor\src\entry.o
adc_srv                                           build\motor\src\cmd.o
append_                                           build\motor\src\cmd.o
asctime                                           build\components\libc\minilibc\time.o
asctime_r                                         build\components\libc\minilibc\time.o
assert_failed                                     build\applications\startup.o
                                                  build\Libraries\STM32F10x_StdPeriph_Driver\src\misc.o
                                                  build\Libraries\STM32F10x_StdPeriph_Driver\src\stm32f10x_cec.o
                                                  build\Libraries\STM32F10x_StdPeriph_Driver\src\stm32f10x_can.o
                                                  build\Libraries\STM32F10x_StdPeriph_Driver\src\stm32f10x_dma.o
                                                  build\Libraries\STM32F10x_StdPeriph_Driver\src\stm32f10x_dbgmcu.o
                                                  build\Libraries\STM32F10x_StdPeriph_Driver\src\stm32f10x_usart.o
                                                  build\Libraries\STM32F10x_StdPeriph_Driver\src\stm32f10x_gpio.o
                                                  build\Libraries\STM32F10x_StdPeriph_Driver\src\stm32f10x_sdio.o
                                                  build\Libraries\STM32F10x_StdPeriph_Driver\src\stm32f10x_flash.o
                                                  build\Libraries\STM32F10x_StdPeriph_Driver\src\stm32f10x_spi.o
                                                  build\Libraries\STM32F10x_StdPeriph_Driver\src\stm32f10x_iwdg.o
                                                  build\Libraries\STM32F10x_StdPeriph_Driver\src\stm32f10x_tim.o
                                                  build\Libraries\STM32F10x_StdPeriph_Driver\src\stm32f10x_fsmc.o
                                                  build\Libraries\STM32F10x_StdPeriph_Driver\src\stm32f10x_rtc.o
                                                  build\Libraries\STM32F10x_StdPeriph_Driver\src\stm32f10x_dac.o
                                                  build\Libraries\STM32F10x_StdPeriph_Driver\src\stm32f10x_adc.o
                                                  build\Libraries\STM32F10x_StdPeriph_Driver\src\stm32f10x_i2c.o
                                                  build\Libraries\STM32F10x_StdPeriph_Driver\src\stm32f10x_bkp.o
                                                  build\Libraries\STM32F10x_StdPeriph_Driver\src\stm32f10x_exti.o
                                                  build\Libraries\STM32F10x_StdPeriph_Driver\src\stm32f10x_pwr.o
                                                  build\Libraries\STM32F10x_StdPeriph_Driver\src\stm32f10x_wwdg.o
                                                  build\Libraries\STM32F10x_StdPeriph_Driver\src\stm32f10x_rcc.o
atexit                                            c:/gcc-arm/bin/../lib/gcc/arm-none-eabi/4.7.3/../../../../arm-none-eabi/lib/armv7-m\libc.a(lib_a-atexit.o)
                                                  c:/gcc-arm/bin/../lib/gcc/arm-none-eabi/4.7.3/../../../../arm-none-eabi/lib/armv7-m\libc.a(lib_a-__call_atexit.o)
atoi                                              build\components\libc\minilibc\stdlib.o
                                                  build\motor\src\pga.o
                                                  build\motor\src\vout.o
                                                  build\motor\src\pwm.o
                                                  build\motor\src\adc.o
atol                                              build\components\libc\minilibc\stdlib.o
bDeviceState                                      build\usb_hid\src\usb_pwr.o
                                                  build\usb_hid\src\usb_prop.o
                                                  build\usb_hid\src\hw_config.o
bIntPackSOF                                       build\usb_hid\src\usb_istr.o
calib_srv                                         build\motor\src\cmd.o
calibration_value                                 build\usb_hid\src\hw_config.o
calloc                                            build\components\libc\minilibc\stdlib.o
cmd_dealer_init                                   build\motor\src\cmd.o
cmd_stack                                         build\motor\src\cmd.o
                                                  build\applications\application.o
cmd_thread                                        build\motor\src\cmd.o
                                                  build\applications\application.o
cmd_thread_entry                                  build\motor\src\cmd.o
                                                  build\applications\application.o
console_srv                                       build\motor\src\cmd.o
cos                                               build\components\libc\minilibc\math.o
ctime                                             build\components\libc\minilibc\time.o
data_t_cfg                                        build\motor\src\adc.o
data_t_format                                     build\motor\src\adc.o
data_t_init                                       build\motor\src\adc.o
data_t_reset                                      build\motor\src\adc.o
data_t_run                                        build\motor\src\adc.o
data_t_sample                                     build\motor\src\adc.o
data_t_service                                    build\motor\src\adc.o
data_t_set_channel                                build\motor\src\adc.o
data_t_set_interval                               build\motor\src\adc.o
data_t_set_manual                                 build\motor\src\adc.o
data_t_stop                                       build\motor\src\adc.o
data_t_upload                                     build\motor\src\adc.o
deal_cmd_                                         build\motor\src\cmd.o
deal_cmd__                                        build\motor\src\cmd.o
                                                  build\motor\src\adc.o
delay                                             build\motor\src\pga.o
delay_loop                                        build\motor\src\adc.o
                                                  build\motor\src\ds18b20.o
ds18b20                                           build\motor\src\ds18b20.o
ds18b20_init                                      build\motor\src\ds18b20.o
ds18b20_reset                                     build\motor\src\ds18b20.o
esof_counter                                      build\usb_hid\src\usb_istr.o
event_stack                                       build\motor\src\pwm.o
                                                  build\applications\application.o
event_thread                                      build\motor\src\pwm.o
                                                  build\applications\application.o
event_thread_entry                                build\motor\src\pwm.o
                                                  build\applications\application.o
exit                                              c:/gcc-arm/bin/../lib/gcc/arm-none-eabi/4.7.3/../../../../arm-none-eabi/lib/armv7-m\libc.a(lib_a-exit.o)
                                                  c:/gcc-arm/bin/../lib/gcc/arm-none-eabi/4.7.3/../../../../arm-none-eabi/lib/armv7-m/crt0.o
exti_init                                         build\motor\src\pwm.o
fSuspendEnabled                                   build\usb_hid\src\usb_pwr.o
filter_buffer                                     build\motor\src\adc.o
flash                                             build\motor\src\cmd.o
free                                              build\components\libc\minilibc\stdlib.o
                                                  c:/gcc-arm/bin/../lib/gcc/arm-none-eabi/4.7.3/../../../../arm-none-eabi/lib/armv7-m\libc.a(lib_a-__call_atexit.o)
gAdc                                              build\motor\src\adc.o
                                                  build\motor\src\cmd.o
gAdc_cfg                                          build\motor\src\adc.o
gCalibr                                           build\motor\src\cmd.o
gCmd_dealer                                       build\usb_hid\src\usb_endp.o
                                                  build\motor\src\pwm.o
                                                  build\motor\src\cmd.o
gConsole                                          build\motor\src\cmd.o
gCounter_DirPin                                   build\motor\src\counter.o
gCounter_Pin                                      build\motor\src\counter.o
gData                                             build\motor\src\pwm.o
                                                  build\motor\src\counter.o
                                                  build\motor\src\cmd.o
                                                  build\motor\src\adc.o
gF103                                             build\motor\src\cmd.o
gMotor                                            build\motor\src\pwm.o
                                                  build\motor\src\cmd.o
gPGA_ports                                        build\motor\src\pga.o
                                                  build\motor\src\adc.o
gPWM1                                             build\motor\src\pwm.o
                                                  build\motor\src\counter.o
gSW                                               build\motor\src\adc.o
gSW_status                                        build\motor\src\adc.o
gThermo_flag                                      build\motor\src\adc.o
gVout                                             build\motor\src\vout.o
                                                  build\motor\src\cmd.o
g_pfnVectors                                      build\Libraries\CMSIS\CM3\DeviceSupport\ST\STM32F10x\startup\gcc_ride7\startup_stm32f10x_md.o
get_calibr                                        build\motor\src\cmd.o
get_temp                                          build\motor\src\adc.o
get_temp_                                         build\motor\src\ds18b20.o
gettimeofday                                      build\components\libc\minilibc\time.o
gmtime_r                                          build\components\libc\minilibc\time.o
hardware_init                                     build\motor\src\entry.o
                                                  build\motor\src\cmd.o
hardware_init_hook                                c:/gcc-arm/bin/../lib/gcc/arm-none-eabi/4.7.3/../../../../arm-none-eabi/lib/armv7-m/crt0.o
has_cmd_                                          build\motor\src\cmd.o
isalpha                                           build\components\libc\minilibc\ctype.o
isdigit                                           build\components\libc\minilibc\ctype.o
isprint                                           build\components\libc\minilibc\ctype.o
isspace                                           build\components\libc\minilibc\ctype.o
localtime                                         build\components\libc\minilibc\time.o
localtime_r                                       build\components\libc\minilibc\time.o
main                                              build\applications\startup.o
                                                  build\Libraries\CMSIS\CM3\DeviceSupport\ST\STM32F10x\startup\gcc_ride7\startup_stm32f10x_md.o
                                                  c:/gcc-arm/bin/../lib/gcc/arm-none-eabi/4.7.3/../../../../arm-none-eabi/lib/armv7-m/crt0.o
malloc                                            build\components\libc\minilibc\stdlib.o
                                                  c:/gcc-arm/bin/../lib/gcc/arm-none-eabi/4.7.3/../../../../arm-none-eabi/lib/armv7-m\libc.a(lib_a-__atexit.o)
memcmp                                            build\src\kservice.o
memcpy                                            build\src\kservice.o
                                                  build\components\drivers\src\ringbuffer.o
memmove                                           build\src\kservice.o
memset                                            build\src\kservice.o
                                                  build\usb_hid\src\usb_endp.o
                                                  build\motor\src\cmd.o
                                                  c:/gcc-arm/bin/../lib/gcc/arm-none-eabi/4.7.3/../../../../arm-none-eabi/lib/armv7-m/crt0.o
middle_N_led                                      build\motor\src\pwm.o
middle_Y_led                                      build\motor\src\pwm.o
middle_status_update                              build\motor\src\pwm.o
mktime                                            build\components\libc\minilibc\time.o
motor_accl                                        build\motor\src\pwm.o
motor_delay                                       build\motor\src\pwm.o
motor_move                                        build\motor\src\pwm.o
motor_run                                         build\motor\src\pwm.o
motor_set_auto                                    build\motor\src\pwm.o
motor_setup                                       build\motor\src\pwm.o
motor_srv                                         build\motor\src\cmd.o
motor_stop                                        build\motor\src\pwm.o
my_atoi                                           build\motor\src\flash.o
my_sprintf                                        build\motor\src\flash.o
my_strchr                                         build\motor\src\flash.o
my_strcmp                                         build\motor\src\flash.o
pEpInt_IN                                         build\usb_hid\src\usb_istr.o
                                                  build\usb_hid\src\usb_int.o
pEpInt_OUT                                        build\usb_hid\src\usb_istr.o
                                                  build\usb_hid\src\usb_int.o
pInformation                                      build\usb_hid\src\usb_prop.o
                                                  build\usb_hid\src\usb_init.o
                                                  build\usb_hid\src\usb_core.o
pProperty                                         build\usb_hid\src\usb_init.o
                                                  build\usb_hid\src\usb_core.o
pUser_Standard_Requests                           build\usb_hid\src\usb_init.o
                                                  build\usb_hid\src\usb_core.o
pga_init                                          build\motor\src\pga.o
                                                  build\motor\src\adc.o
pga_set                                           build\motor\src\pga.o
                                                  build\motor\src\adc.o
pollar_flag                                       build\motor\src\pwm.o
pollar_service                                    build\motor\src\pwm.o
print2usb                                         build\usb_hid\src\usb_endp.o
                                                  build\motor\src\cmd.o
                                                  build\motor\src\adc.o
printf_                                           build\motor\src\flash.o
printf_hex                                        build\motor\src\flash.o
pwm_accl                                          build\motor\src\pwm.o
pwm_dccl                                          build\motor\src\pwm.o
pwm_init                                          build\motor\src\pwm.o
pwm_init_                                         build\motor\src\pwm.o
pwm_run                                           build\motor\src\pwm.o
pwm_set_auto_false                                build\motor\src\pwm.o
pwm_set_auto_true                                 build\motor\src\pwm.o
pwm_set_backward                                  build\motor\src\pwm.o
pwm_set_forward                                   build\motor\src\pwm.o
pwm_setup_min                                     build\motor\src\pwm.o
pwm_stop                                          build\motor\src\pwm.o
qsort                                             build\components\libc\minilibc\qsort.o
rand                                              build\components\libc\minilibc\rand.o
rand_r                                            build\components\libc\minilibc\rand.o
random                                            build\components\libc\minilibc\rand.o
read_bit                                          build\motor\src\ds18b20.o
realloc                                           build\components\libc\minilibc\stdlib.o
remotewakeupon                                    build\usb_hid\src\usb_pwr.o
rt_application_init                               build\applications\application.o
                                                  build\applications\startup.o
rt_calloc                                         build\src\mem.o
                                                  build\components\libc\minilibc\stdlib.o
                                                  build\components\drivers\src\pipe.o
rt_completion_done                                build\components\drivers\src\completion.o
rt_completion_init                                build\components\drivers\src\completion.o
rt_completion_wait                                build\components\drivers\src\completion.o
rt_console_get_device                             build\src\kservice.o
rt_console_set_device                             build\src\kservice.o
                                                  build\drivers\board.o
rt_current_priority                               build\src\scheduler.o
rt_current_thread                                 build\src\thread.o
                                                  build\src\scheduler.o
rt_data_queue_init                                build\components\drivers\src\dataqueue.o
                                                  build\components\drivers\serial\serial.o
rt_data_queue_peak                                build\components\drivers\src\dataqueue.o
rt_data_queue_pop                                 build\components\drivers\src\dataqueue.o
                                                  build\components\drivers\serial\serial.o
rt_data_queue_push                                build\components\drivers\src\dataqueue.o
                                                  build\components\drivers\serial\serial.o
rt_data_queue_reset                               build\components\drivers\src\dataqueue.o
rt_device_close                                   build\src\device.o
                                                  build\src\kservice.o
rt_device_control                                 build\src\device.o
                                                  build\components\libc\minilibc\time.o
rt_device_find                                    build\src\device.o
                                                  build\components\libc\minilibc\time.o
                                                  build\src\kservice.o
rt_device_init                                    build\src\device.o
rt_device_init_all                                build\src\device.o
rt_device_open                                    build\src\device.o
                                                  build\src\kservice.o
rt_device_read                                    build\src\device.o
rt_device_register                                build\src\device.o
                                                  build\components\drivers\src\pipe.o
                                                  build\components\drivers\serial\serial.o
rt_device_set_rx_indicate                         build\src\device.o
rt_device_set_tx_complete                         build\src\device.o
rt_device_unregister                              build\src\device.o
                                                  build\components\drivers\src\pipe.o
rt_device_write                                   build\src\device.o
                                                  build\src\kservice.o
rt_enter_critical                                 build\src\scheduler.o
                                                  build\components\drivers\src\dataqueue.o
                                                  build\src\thread.o
                                                  build\src\object.o
                                                  build\src\device.o
rt_exit_critical                                  build\src\scheduler.o
                                                  build\components\drivers\src\dataqueue.o
                                                  build\src\thread.o
                                                  build\src\object.o
                                                  build\src\device.o
rt_free                                           build\src\mem.o
                                                  build\components\libc\minilibc\stdlib.o
                                                  build\components\drivers\src\pipe.o
                                                  build\src\object.o
                                                  build\src\mempool.o
                                                  build\src\kservice.o
                                                  build\src\idle.o
rt_free_align                                     build\src\kservice.o
rt_free_sethook                                   build\src\mem.o
rt_get_errno                                      build\src\kservice.o
rt_hw_backtrace                                   build\libcpu\arm\common\backtrace.o
rt_hw_board_init                                  build\drivers\board.o
                                                  build\applications\startup.o
rt_hw_console_output                              build\src\kservice.o
rt_hw_context_switch                              build\libcpu\arm\cortex-m3\context_gcc.o
                                                  build\src\scheduler.o
rt_hw_context_switch_interrupt                    build\libcpu\arm\cortex-m3\context_gcc.o
                                                  build\src\scheduler.o
rt_hw_context_switch_to                           build\libcpu\arm\cortex-m3\context_gcc.o
                                                  build\src\scheduler.o
rt_hw_cpu_shutdown                                build\libcpu\arm\cortex-m3\cpuport.o
rt_hw_exception_install                           build\libcpu\arm\cortex-m3\cpuport.o
rt_hw_hard_fault_exception                        build\libcpu\arm\cortex-m3\cpuport.o
                                                  build\libcpu\arm\cortex-m3\context_gcc.o
rt_hw_interrupt_check                             build\libcpu\arm\cortex-m3\context_gcc.o
rt_hw_interrupt_disable                           build\libcpu\arm\cortex-m3\context_gcc.o
                                                  build\components\drivers\src\pipe.o
                                                  build\components\drivers\src\dataqueue.o
                                                  build\components\drivers\src\completion.o
                                                  build\components\drivers\serial\serial.o
                                                  build\src\timer.o
                                                  build\src\thread.o
                                                  build\src\scheduler.o
                                                  build\src\object.o
                                                  build\src\mempool.o
                                                  build\src\mem.o
                                                  build\src\irq.o
                                                  build\src\ipc.o
                                                  build\src\idle.o
                                                  build\src\clock.o
                                                  build\applications\startup.o
rt_hw_interrupt_enable                            build\libcpu\arm\cortex-m3\context_gcc.o
                                                  build\components\drivers\src\pipe.o
                                                  build\components\drivers\src\dataqueue.o
                                                  build\components\drivers\src\completion.o
                                                  build\components\drivers\serial\serial.o
                                                  build\src\timer.o
                                                  build\src\thread.o
                                                  build\src\scheduler.o
                                                  build\src\object.o
                                                  build\src\mempool.o
                                                  build\src\mem.o
                                                  build\src\irq.o
                                                  build\src\ipc.o
                                                  build\src\idle.o
                                                  build\src\clock.o
rt_hw_interrupt_thread_switch                     build\libcpu\arm\cortex-m3\context_gcc.o
rt_hw_led_init                                    build\drivers\led.o
                                                  build\applications\application.o
rt_hw_led_off                                     build\drivers\led.o
                                                  build\motor\src\pwm.o
                                                  build\motor\src\counter.o
                                                  build\applications\application.o
rt_hw_led_on                                      build\drivers\led.o
                                                  build\motor\src\pwm.o
                                                  build\motor\src\counter.o
                                                  build\applications\application.o
rt_hw_serial_dma_tx_isr                           build\components\drivers\serial\serial.o
rt_hw_serial_isr                                  build\components\drivers\serial\serial.o
                                                  build\drivers\usart.o
rt_hw_serial_register                             build\components\drivers\serial\serial.o
                                                  build\drivers\usart.o
rt_hw_show_memory                                 build\libcpu\arm\common\showmem.o
rt_hw_stack_init                                  build\libcpu\arm\cortex-m3\cpuport.o
                                                  build\src\thread.o
rt_hw_usart_init                                  build\drivers\usart.o
                                                  build\drivers\board.o
rt_init_thread_entry                              build\applications\application.o
rt_interrupt_enter                                build\src\irq.o
                                                  build\drivers\usart.o
                                                  build\drivers\board.o
rt_interrupt_from_thread                          build\libcpu\arm\cortex-m3\context_gcc.o
                                                  build\libcpu\arm\cortex-m3\cpuport.o
rt_interrupt_get_nest                             build\src\irq.o
                                                  build\components\drivers\src\pipe.o
                                                  build\components\drivers\src\dataqueue.o
                                                  build\components\drivers\src\completion.o
                                                  build\src\object.o
                                                  build\src\mempool.o
                                                  build\src\mem.o
                                                  build\src\kservice.o
                                                  build\src\ipc.o
                                                  build\src\idle.o
rt_interrupt_leave                                build\src\irq.o
                                                  build\drivers\usart.o
                                                  build\drivers\board.o
rt_interrupt_nest                                 build\src\scheduler.o
                                                  build\src\object.o
                                                  build\src\irq.o
rt_interrupt_to_thread                            build\libcpu\arm\cortex-m3\context_gcc.o
                                                  build\libcpu\arm\cortex-m3\cpuport.o
rt_kprintf                                        build\src\kservice.o
                                                  build\components\drivers\src\ringbuffer.o
                                                  build\components\drivers\src\pipe.o
                                                  build\components\drivers\src\dataqueue.o
                                                  build\components\drivers\src\completion.o
                                                  build\components\drivers\serial\serial.o
                                                  build\libcpu\arm\common\showmem.o
                                                  build\libcpu\arm\common\backtrace.o
                                                  build\libcpu\arm\cortex-m3\cpuport.o
                                                  build\src\timer.o
                                                  build\src\thread.o
                                                  build\src\scheduler.o
                                                  build\src\object.o
                                                  build\src\mempool.o
                                                  build\src\mem.o
                                                  build\src\ipc.o
                                                  build\src\idle.o
                                                  build\src\device.o
                                                  build\motor\src\pga.o
                                                  build\motor\src\vout.o
                                                  build\motor\src\pwm.o
                                                  build\motor\src\entry.o
                                                  build\motor\src\cmd.o
                                                  build\motor\src\adc.o
                                                  build\drivers\usart.o
                                                  build\applications\startup.o
rt_lowest_bitmap                                  build\src\scheduler.o
rt_malloc                                         build\src\mem.o
                                                  build\components\libc\minilibc\stdlib.o
                                                  build\components\drivers\src\pipe.o
                                                  build\components\drivers\src\dataqueue.o
                                                  build\src\thread.o
                                                  build\src\object.o
                                                  build\src\mempool.o
                                                  build\src\kservice.o
rt_malloc_align                                   build\src\kservice.o
rt_malloc_sethook                                 build\src\mem.o
rt_memcmp                                         build\src\kservice.o
rt_memcpy                                         build\src\kservice.o
                                                  build\src\mem.o
rt_memmove                                        build\src\kservice.o
rt_memory_info                                    build\src\mem.o
rt_memset                                         build\src\kservice.o
                                                  build\components\drivers\serial\serial.o
                                                  build\src\thread.o
                                                  build\src\mem.o
rt_mp_alloc                                       build\src\mempool.o
rt_mp_alloc_sethook                               build\src\mempool.o
rt_mp_create                                      build\src\mempool.o
rt_mp_delete                                      build\src\mempool.o
rt_mp_detach                                      build\src\mempool.o
rt_mp_free                                        build\src\mempool.o
rt_mp_free_sethook                                build\src\mempool.o
rt_mp_init                                        build\src\mempool.o
rt_object_allocate                                build\src\object.o
                                                  build\src\timer.o
                                                  build\src\thread.o
                                                  build\src\mempool.o
                                                  build\src\ipc.o
rt_object_attach_sethook                          build\src\object.o
rt_object_container                               build\src\object.o
                                                  build\src\thread.o
                                                  build\src\device.o
rt_object_delete                                  build\src\object.o
                                                  build\src\timer.o
                                                  build\src\thread.o
                                                  build\src\mempool.o
                                                  build\src\ipc.o
                                                  build\src\idle.o
rt_object_detach                                  build\src\object.o
                                                  build\src\timer.o
                                                  build\src\thread.o
                                                  build\src\mempool.o
                                                  build\src\ipc.o
                                                  build\src\device.o
rt_object_detach_sethook                          build\src\object.o
rt_object_find                                    build\src\object.o
rt_object_get_information                         build\src\object.o
rt_object_init                                    build\src\object.o
                                                  build\src\timer.o
                                                  build\src\thread.o
                                                  build\src\mempool.o
                                                  build\src\ipc.o
                                                  build\src\device.o
rt_object_is_systemobject                         build\src\object.o
                                                  build\src\thread.o
                                                  build\src\idle.o
rt_object_put_hook                                build\src\timer.o
                                                  build\src\object.o
                                                  build\src\ipc.o
rt_object_put_sethook                             build\src\object.o
rt_object_take_hook                               build\src\timer.o
                                                  build\src\object.o
                                                  build\src\ipc.o
rt_object_take_sethook                            build\src\object.o
rt_object_trytake_hook                            build\src\object.o
                                                  build\src\ipc.o
rt_object_trytake_sethook                         build\src\object.o
rt_pipe_create                                    build\components\drivers\src\pipe.o
rt_pipe_destroy                                   build\components\drivers\src\pipe.o
rt_realloc                                        build\src\mem.o
                                                  build\components\libc\minilibc\stdlib.o
rt_ringbuffer_get                                 build\components\drivers\src\ringbuffer.o
                                                  build\components\drivers\src\pipe.o
rt_ringbuffer_getchar                             build\components\drivers\src\ringbuffer.o
rt_ringbuffer_init                                build\components\drivers\src\ringbuffer.o
                                                  build\components\drivers\src\pipe.o
rt_ringbuffer_put                                 build\components\drivers\src\ringbuffer.o
                                                  build\components\drivers\src\pipe.o
rt_ringbuffer_putchar                             build\components\drivers\src\ringbuffer.o
rt_schedule                                       build\src\scheduler.o
                                                  build\components\drivers\src\pipe.o
                                                  build\components\drivers\src\dataqueue.o
                                                  build\components\drivers\src\completion.o
                                                  build\src\thread.o
                                                  build\src\mempool.o
                                                  build\src\ipc.o
rt_schedule_insert_thread                         build\src\scheduler.o
                                                  build\src\thread.o
rt_schedule_remove_thread                         build\src\scheduler.o
                                                  build\src\thread.o
rt_scheduler_sethook                              build\src\scheduler.o
rt_sem_control                                    build\src\ipc.o
rt_sem_create                                     build\src\ipc.o
                                                  build\usb_hid\src\entry.o
rt_sem_delete                                     build\src\ipc.o
rt_sem_detach                                     build\src\ipc.o
rt_sem_init                                       build\src\ipc.o
                                                  build\src\mem.o
rt_sem_release                                    build\src\ipc.o
                                                  build\src\mem.o
                                                  build\usb_hid\src\usb_endp.o
rt_sem_take                                       build\src\ipc.o
                                                  build\src\mem.o
                                                  build\usb_hid\src\usb_endp.o
rt_sem_trytake                                    build\src\ipc.o
rt_set_errno                                      build\src\kservice.o
                                                  build\components\drivers\serial\serial.o
                                                  build\src\device.o
rt_show_version                                   build\src\kservice.o
                                                  build\applications\startup.o
rt_snprintf                                       build\src\kservice.o
rt_sprintf                                        build\src\kservice.o
rt_strcasecmp                                     build\src\kservice.o
rt_strcmp                                         build\src\kservice.o
rt_strdup                                         build\src\kservice.o
rt_strlen                                         build\src\kservice.o
                                                  build\components\libc\minilibc\string.o
rt_strncmp                                        build\src\kservice.o
                                                  build\src\thread.o
                                                  build\src\object.o
                                                  build\src\device.o
rt_strncpy                                        build\src\kservice.o
                                                  build\components\libc\minilibc\string.o
                                                  build\src\object.o
rt_strstr                                         build\src\kservice.o
rt_system_heap_init                               build\src\mem.o
                                                  build\applications\startup.o
rt_system_object_init                             build\src\object.o
rt_system_scheduler_init                          build\src\scheduler.o
                                                  build\applications\startup.o
rt_system_scheduler_start                         build\src\scheduler.o
                                                  build\applications\startup.o
rt_system_tick_init                               build\src\clock.o
rt_system_timer_init                              build\src\timer.o
                                                  build\applications\startup.o
rt_system_timer_thread_init                       build\src\timer.o
                                                  build\applications\startup.o
rt_thread_control                                 build\src\thread.o
rt_thread_create                                  build\src\thread.o
                                                  build\applications\application.o
rt_thread_defunct                                 build\src\thread.o
                                                  build\src\scheduler.o
                                                  build\src\idle.o
rt_thread_delay                                   build\src\thread.o
                                                  build\motor\src\pwm.o
                                                  build\motor\src\cmd.o
                                                  build\motor\src\adc.o
                                                  build\applications\application.o
rt_thread_delete                                  build\src\thread.o
rt_thread_detach                                  build\src\thread.o
rt_thread_find                                    build\src\thread.o
rt_thread_idle_excute                             build\src\idle.o
rt_thread_idle_init                               build\src\idle.o
                                                  build\applications\startup.o
rt_thread_idle_sethook                            build\src\idle.o
rt_thread_init                                    build\src\thread.o
                                                  build\src\idle.o
                                                  build\applications\application.o
rt_thread_priority_table                          build\src\thread.o
                                                  build\src\scheduler.o
rt_thread_ready_priority_group                    build\src\scheduler.o
rt_thread_resume                                  build\src\thread.o
                                                  build\components\drivers\src\pipe.o
                                                  build\components\drivers\src\dataqueue.o
                                                  build\components\drivers\src\completion.o
                                                  build\src\mempool.o
                                                  build\src\ipc.o
rt_thread_self                                    build\src\thread.o
                                                  build\components\drivers\src\pipe.o
                                                  build\components\drivers\src\dataqueue.o
                                                  build\components\drivers\src\completion.o
                                                  build\libcpu\arm\cortex-m3\cpuport.o
                                                  build\src\scheduler.o
                                                  build\src\mempool.o
                                                  build\src\kservice.o
                                                  build\src\ipc.o
                                                  build\src\device.o
                                                  build\src\clock.o
rt_thread_sleep                                   build\src\thread.o
rt_thread_startup                                 build\src\thread.o
                                                  build\src\idle.o
                                                  build\applications\application.o
rt_thread_suspend                                 build\src\thread.o
                                                  build\components\drivers\src\pipe.o
                                                  build\components\drivers\src\dataqueue.o
                                                  build\components\drivers\src\completion.o
                                                  build\src\mempool.o
                                                  build\src\ipc.o
rt_thread_switch_interrupt_flag                   build\libcpu\arm\cortex-m3\context_gcc.o
                                                  build\libcpu\arm\cortex-m3\cpuport.o
rt_thread_timeout                                 build\src\thread.o
rt_thread_yield                                   build\src\thread.o
                                                  build\src\clock.o
                                                  build\motor\src\pwm.o
                                                  build\motor\src\cmd.o
rt_tick_from_millisecond                          build\src\clock.o
rt_tick_get                                       build\src\clock.o
                                                  build\src\timer.o
rt_tick_increase                                  build\src\clock.o
                                                  build\drivers\board.o
rt_tick_set                                       build\src\clock.o
rt_timer_check                                    build\src\timer.o
                                                  build\src\clock.o
rt_timer_control                                  build\src\timer.o
                                                  build\components\drivers\src\dataqueue.o
                                                  build\components\drivers\src\completion.o
                                                  build\src\thread.o
                                                  build\src\mempool.o
                                                  build\src\ipc.o
rt_timer_create                                   build\src\timer.o
rt_timer_delete                                   build\src\timer.o
rt_timer_detach                                   build\src\timer.o
                                                  build\src\thread.o
rt_timer_init                                     build\src\timer.o
                                                  build\src\thread.o
rt_timer_next_timeout_tick                        build\src\timer.o
rt_timer_start                                    build\src\timer.o
                                                  build\components\drivers\src\dataqueue.o
                                                  build\components\drivers\src\completion.o
                                                  build\src\thread.o
                                                  build\src\mempool.o
                                                  build\src\ipc.o
rt_timer_stop                                     build\src\timer.o
rt_timer_timeout_sethook                          build\src\timer.o
rt_vsprintf                                       build\src\kservice.o
rtthread_startup                                  build\applications\startup.o
sFLASH_LowLevel_DeInit                            build\usb_hid\src\stm3210b_eval.o
sFLASH_LowLevel_Init                              build\usb_hid\src\stm3210b_eval.o
sample_temp                                       build\motor\src\adc.o
sem_printf                                        build\usb_hid\src\usb_endp.o
                                                  build\usb_hid\src\entry.o
serial1                                           build\drivers\usart.o
serial2                                           build\drivers\usart.o
serial3                                           build\drivers\usart.o
set_SW                                            build\motor\src\adc.o
set_calibr                                        build\motor\src\cmd.o
simple_strtol                                     build\components\libc\minilibc\string.o
simple_strtoll                                    build\components\libc\minilibc\string.o
simple_strtoul                                    build\components\libc\minilibc\string.o
simple_strtoull                                   build\components\libc\minilibc\string.o
sin                                               build\components\libc\minilibc\math.o
snprintf                                          build\src\kservice.o
software_init_hook                                c:/gcc-arm/bin/../lib/gcc/arm-none-eabi/4.7.3/../../../../arm-none-eabi/lib/armv7-m/crt0.o
sprintf                                           build\src\kservice.o
                                                  build\motor\src\cmd.o
                                                  build\motor\src\adc.o
srand                                             build\components\libc\minilibc\rand.o
srandom                                           build\components\libc\minilibc\rand.o
sscanf                                            build\components\libc\minilibc\string.o
stable_time                                       build\motor\src\pga.o
start                                             c:/gcc-arm/bin/../lib/gcc/arm-none-eabi/4.7.3/../../../../arm-none-eabi/lib/armv7-m/crt0.o
status_init                                       build\motor\src\adc.o
status_tim3                                       build\motor\src\counter.o
strcasecmp                                        build\src\kservice.o
strcat                                            build\components\libc\minilibc\string.o
strchr                                            build\components\libc\minilibc\string.o
                                                  build\motor\src\cmd.o
strcmp                                            build\components\libc\minilibc\string.o
                                                  build\motor\src\cmd.o
strcpy                                            build\components\libc\minilibc\string.o
strcspn                                           build\components\libc\minilibc\string.o
strdup                                            build\src\kservice.o
strlcpy                                           build\components\libc\minilibc\string.o
strlen                                            build\src\kservice.o
                                                  build\components\libc\minilibc\string.o
                                                  build\motor\src\cmd.o
strncasecmp                                       build\components\libc\minilibc\string.o
strncat                                           build\components\libc\minilibc\string.o
strncmp                                           build\components\libc\minilibc\string.o
                                                  build\src\kservice.o
                                                  build\motor\src\cmd.o
strncpy                                           build\components\libc\minilibc\string.o
                                                  build\src\kservice.o
                                                  build\motor\src\cmd.o
strrchr                                           build\components\libc\minilibc\string.o
strspn                                            build\components\libc\minilibc\string.o
strstr                                            build\src\kservice.o
strtok                                            build\components\libc\minilibc\string.o
strtok_r                                          build\components\libc\minilibc\string.o
swR_init                                          build\motor\src\adc.o
switch_232                                        build\motor\src\adc.o
switch_485                                        build\motor\src\adc.o
switch_CAN                                        build\motor\src\adc.o
switch_NTC                                        build\motor\src\adc.o
switch_R                                          build\motor\src\adc.o
switch_RAT                                        build\motor\src\adc.o
switch_UI                                         build\motor\src\adc.o
t1c1_init                                         build\motor\src\vout.o
temp_read_byte                                    build\motor\src\ds18b20.o
temp_trig                                         build\motor\src\ds18b20.o
temp_write_byte                                   build\motor\src\ds18b20.o
tim2_IRQ_init                                     build\motor\src\counter.o
tim2_init                                         build\motor\src\counter.o
                                                  build\motor\src\entry.o
tim2_init_                                        build\motor\src\counter.o
tolower                                           build\components\libc\minilibc\string.o
toupper                                           build\components\libc\minilibc\string.o
uart1                                             build\drivers\usart.o
uart1_int_rx                                      build\drivers\usart.o
uart2                                             build\drivers\usart.o
uart2_int_rx                                      build\drivers\usart.o
uart3                                             build\drivers\usart.o
uart3_int_rx                                      build\drivers\usart.o
usb_init                                          build\usb_hid\src\entry.o
                                                  build\motor\src\entry.o
vout                                              build\motor\src\vout.o
vout_adj                                          build\motor\src\vout.o
vout_decrease                                     build\motor\src\vout.o
vout_increase                                     build\motor\src\vout.o
vout_init                                         build\motor\src\vout.o
                                                  build\motor\src\entry.o
vout_set                                          build\motor\src\vout.o
vout_srv                                          build\motor\src\cmd.o
vsprintf                                          build\src\kservice.o
vsscanf                                           build\components\libc\minilibc\string.o
wCNTR                                             build\usb_hid\src\usb_istr.o
wInterrupt_Mask                                   build\usb_hid\src\usb_sil.o
                                                  build\usb_hid\src\usb_pwr.o
                                                  build\usb_hid\src\usb_istr.o
                                                  build\usb_hid\src\usb_init.o
wIstr                                             build\usb_hid\src\usb_istr.o
                                                  build\usb_hid\src\usb_int.o
write_sport                                       build\motor\src\pga.o
                                                  build\motor\src\adc.o
zero_flag                                         build\motor\src\pwm.o
