
rtthread-stm32.elf:     file format elf32-littlearm


Disassembly of section .text:

08000000 <_stext>:
 8000000:	20000714 	.word	0x20000714
 8000004:	080028a1 	.word	0x080028a1
 8000008:	08000435 	.word	0x08000435
 800000c:	080001b1 	.word	0x080001b1
 8000010:	08000439 	.word	0x08000439
 8000014:	0800043d 	.word	0x0800043d
 8000018:	08000441 	.word	0x08000441
	...
 800002c:	08000445 	.word	0x08000445
 8000030:	08000449 	.word	0x08000449
 8000034:	00000000 	.word	0x00000000
 8000038:	0800013b 	.word	0x0800013b
 800003c:	080003cd 	.word	0x080003cd
 8000040:	080028ed 	.word	0x080028ed
 8000044:	080028ed 	.word	0x080028ed
 8000048:	080028ed 	.word	0x080028ed
 800004c:	080028ed 	.word	0x080028ed
 8000050:	080028ed 	.word	0x080028ed
 8000054:	080028ed 	.word	0x080028ed
 8000058:	080028ed 	.word	0x080028ed
 800005c:	080028ed 	.word	0x080028ed
 8000060:	080028ed 	.word	0x080028ed
 8000064:	080028ed 	.word	0x080028ed
 8000068:	080033b9 	.word	0x080033b9
 800006c:	080028ed 	.word	0x080028ed
 8000070:	080028ed 	.word	0x080028ed
 8000074:	080028ed 	.word	0x080028ed
 8000078:	080028ed 	.word	0x080028ed
 800007c:	080028ed 	.word	0x080028ed
 8000080:	080028ed 	.word	0x080028ed
 8000084:	080028ed 	.word	0x080028ed
 8000088:	080028ed 	.word	0x080028ed
 800008c:	080028ed 	.word	0x080028ed
 8000090:	08004505 	.word	0x08004505
 8000094:	080028ed 	.word	0x080028ed
 8000098:	080028ed 	.word	0x080028ed
 800009c:	080028ed 	.word	0x080028ed
 80000a0:	080028ed 	.word	0x080028ed
 80000a4:	080028ed 	.word	0x080028ed
 80000a8:	080028ed 	.word	0x080028ed
 80000ac:	080028ed 	.word	0x080028ed
 80000b0:	080028ed 	.word	0x080028ed
 80000b4:	08003245 	.word	0x08003245
 80000b8:	080028ed 	.word	0x080028ed
 80000bc:	080028ed 	.word	0x080028ed
 80000c0:	080028ed 	.word	0x080028ed
 80000c4:	080028ed 	.word	0x080028ed
 80000c8:	080028ed 	.word	0x080028ed
 80000cc:	080028ed 	.word	0x080028ed
 80000d0:	080028ed 	.word	0x080028ed
 80000d4:	080006c9 	.word	0x080006c9
 80000d8:	08000719 	.word	0x08000719
 80000dc:	08000769 	.word	0x08000769
 80000e0:	08003381 	.word	0x08003381
 80000e4:	080028ed 	.word	0x080028ed
 80000e8:	08004509 	.word	0x08004509
	...
 8000108:	f108f85f 	.word	0xf108f85f

0800010c <rt_hw_interrupt_disable>:
 800010c:	f3ef 8010 	mrs	r0, PRIMASK
 8000110:	b672      	cpsid	i
 8000112:	4770      	bx	lr

08000114 <rt_hw_interrupt_enable>:
 8000114:	f380 8810 	msr	PRIMASK, r0
 8000118:	4770      	bx	lr

0800011a <rt_hw_context_switch>:
 800011a:	4a34      	ldr	r2, [pc, #208]	; (80001ec <rt_hw_interrupt_check+0x8>)
 800011c:	6813      	ldr	r3, [r2, #0]
 800011e:	2b01      	cmp	r3, #1
 8000120:	f000 8005 	beq.w	800012e <_reswitch>
 8000124:	f04f 0301 	mov.w	r3, #1
 8000128:	6013      	str	r3, [r2, #0]
 800012a:	4a31      	ldr	r2, [pc, #196]	; (80001f0 <rt_hw_interrupt_check+0xc>)
 800012c:	6010      	str	r0, [r2, #0]

0800012e <_reswitch>:
 800012e:	4a31      	ldr	r2, [pc, #196]	; (80001f4 <rt_hw_interrupt_check+0x10>)
 8000130:	6011      	str	r1, [r2, #0]
 8000132:	4831      	ldr	r0, [pc, #196]	; (80001f8 <rt_hw_interrupt_check+0x14>)
 8000134:	4931      	ldr	r1, [pc, #196]	; (80001fc <rt_hw_interrupt_check+0x18>)
 8000136:	6001      	str	r1, [r0, #0]
 8000138:	4770      	bx	lr

0800013a <PendSV_Handler>:
 800013a:	f3ef 8210 	mrs	r2, PRIMASK
 800013e:	b672      	cpsid	i
 8000140:	482a      	ldr	r0, [pc, #168]	; (80001ec <rt_hw_interrupt_check+0x8>)
 8000142:	6801      	ldr	r1, [r0, #0]
 8000144:	b191      	cbz	r1, 800016c <pendsv_exit>
 8000146:	f04f 0100 	mov.w	r1, #0
 800014a:	6001      	str	r1, [r0, #0]
 800014c:	4828      	ldr	r0, [pc, #160]	; (80001f0 <rt_hw_interrupt_check+0xc>)
 800014e:	6801      	ldr	r1, [r0, #0]
 8000150:	b129      	cbz	r1, 800015e <swtich_to_thread>
 8000152:	f3ef 8109 	mrs	r1, PSP
 8000156:	e921 0ff0 	stmdb	r1!, {r4, r5, r6, r7, r8, r9, sl, fp}
 800015a:	6800      	ldr	r0, [r0, #0]
 800015c:	6001      	str	r1, [r0, #0]

0800015e <swtich_to_thread>:
 800015e:	4925      	ldr	r1, [pc, #148]	; (80001f4 <rt_hw_interrupt_check+0x10>)
 8000160:	6809      	ldr	r1, [r1, #0]
 8000162:	6809      	ldr	r1, [r1, #0]
 8000164:	e8b1 0ff0 	ldmia.w	r1!, {r4, r5, r6, r7, r8, r9, sl, fp}
 8000168:	f381 8809 	msr	PSP, r1

0800016c <pendsv_exit>:
 800016c:	f382 8810 	msr	PRIMASK, r2
 8000170:	f04e 0e04 	orr.w	lr, lr, #4
 8000174:	4770      	bx	lr

08000176 <rt_hw_context_switch_to>:
 8000176:	491f      	ldr	r1, [pc, #124]	; (80001f4 <rt_hw_interrupt_check+0x10>)
 8000178:	6008      	str	r0, [r1, #0]
 800017a:	491d      	ldr	r1, [pc, #116]	; (80001f0 <rt_hw_interrupt_check+0xc>)
 800017c:	f04f 0000 	mov.w	r0, #0
 8000180:	6008      	str	r0, [r1, #0]
 8000182:	491a      	ldr	r1, [pc, #104]	; (80001ec <rt_hw_interrupt_check+0x8>)
 8000184:	f04f 0001 	mov.w	r0, #1
 8000188:	6008      	str	r0, [r1, #0]
 800018a:	481d      	ldr	r0, [pc, #116]	; (8000200 <rt_hw_interrupt_check+0x1c>)
 800018c:	491d      	ldr	r1, [pc, #116]	; (8000204 <rt_hw_interrupt_check+0x20>)
 800018e:	f8d0 2000 	ldr.w	r2, [r0]
 8000192:	ea41 0102 	orr.w	r1, r1, r2
 8000196:	6001      	str	r1, [r0, #0]
 8000198:	4817      	ldr	r0, [pc, #92]	; (80001f8 <rt_hw_interrupt_check+0x14>)
 800019a:	4918      	ldr	r1, [pc, #96]	; (80001fc <rt_hw_interrupt_check+0x18>)
 800019c:	6001      	str	r1, [r0, #0]
 800019e:	481a      	ldr	r0, [pc, #104]	; (8000208 <rt_hw_interrupt_check+0x24>)
 80001a0:	6800      	ldr	r0, [r0, #0]
 80001a2:	6800      	ldr	r0, [r0, #0]
 80001a4:	bf00      	nop
 80001a6:	f380 8808 	msr	MSP, r0
 80001aa:	b662      	cpsie	i

080001ac <rt_hw_interrupt_thread_switch>:
 80001ac:	4770      	bx	lr
 80001ae:	bf00      	nop

080001b0 <HardFault_Handler>:
 80001b0:	f3ef 8008 	mrs	r0, MSP
 80001b4:	f01e 0f04 	tst.w	lr, #4
 80001b8:	f000 8002 	beq.w	80001c0 <_get_sp_done>
 80001bc:	f3ef 8009 	mrs	r0, PSP

080001c0 <_get_sp_done>:
 80001c0:	e920 0ff0 	stmdb	r0!, {r4, r5, r6, r7, r8, r9, sl, fp}
 80001c4:	f840 ed04 	str.w	lr, [r0, #-4]!
 80001c8:	f01e 0f04 	tst.w	lr, #4
 80001cc:	f000 b802 	b.w	80001d4 <_update_done>

080001d0 <_update_msp>:
 80001d0:	f380 8808 	msr	MSP, r0

080001d4 <_update_done>:
 80001d4:	b500      	push	{lr}
 80001d6:	f007 fc87 	bl	8007ae8 <rt_hw_hard_fault_exception>
 80001da:	f85d eb04 	ldr.w	lr, [sp], #4
 80001de:	f04e 0e04 	orr.w	lr, lr, #4
 80001e2:	4770      	bx	lr

080001e4 <rt_hw_interrupt_check>:
 80001e4:	f3ef 8005 	mrs	r0, IPSR
 80001e8:	4770      	bx	lr
 80001ea:	0000      	.short	0x0000
 80001ec:	20001de4 	.word	0x20001de4
 80001f0:	20001de0 	.word	0x20001de0
 80001f4:	20001ddc 	.word	0x20001ddc
 80001f8:	e000ed04 	.word	0xe000ed04
 80001fc:	10000000 	.word	0x10000000
 8000200:	e000ed20 	.word	0xe000ed20
 8000204:	00ff0000 	.word	0x00ff0000
 8000208:	e000ed08 	.word	0xe000ed08

0800020c <rt_init_thread_entry>:
 800020c:	4770      	bx	lr
 800020e:	bf00      	nop

08000210 <led_thread_entry>:
 8000210:	b508      	push	{r3, lr}
 8000212:	f000 f91b 	bl	800044c <rt_hw_led_init>
 8000216:	2000      	movs	r0, #0
 8000218:	f000 f93c 	bl	8000494 <rt_hw_led_on>
 800021c:	f240 50dc 	movw	r0, #1500	; 0x5dc
 8000220:	f007 fa2c 	bl	800767c <rt_thread_delay>
 8000224:	2000      	movs	r0, #0
 8000226:	f000 f949 	bl	80004bc <rt_hw_led_off>
 800022a:	f240 50dc 	movw	r0, #1500	; 0x5dc
 800022e:	f007 fa25 	bl	800767c <rt_thread_delay>
 8000232:	e7f0      	b.n	8000216 <led_thread_entry+0x6>

08000234 <rt_application_init>:
 8000234:	b500      	push	{lr}
 8000236:	4b31      	ldr	r3, [pc, #196]	; (80002fc <rt_application_init+0xc8>)
 8000238:	b085      	sub	sp, #20
 800023a:	f44f 7000 	mov.w	r0, #512	; 0x200
 800023e:	2114      	movs	r1, #20
 8000240:	2205      	movs	r2, #5
 8000242:	9300      	str	r3, [sp, #0]
 8000244:	9001      	str	r0, [sp, #4]
 8000246:	9102      	str	r1, [sp, #8]
 8000248:	9203      	str	r2, [sp, #12]
 800024a:	482d      	ldr	r0, [pc, #180]	; (8000300 <rt_application_init+0xcc>)
 800024c:	492d      	ldr	r1, [pc, #180]	; (8000304 <rt_application_init+0xd0>)
 800024e:	4a2e      	ldr	r2, [pc, #184]	; (8000308 <rt_application_init+0xd4>)
 8000250:	2300      	movs	r3, #0
 8000252:	f007 f90d 	bl	8007470 <rt_thread_init>
 8000256:	2800      	cmp	r0, #0
 8000258:	d040      	beq.n	80002dc <rt_application_init+0xa8>
 800025a:	4b2c      	ldr	r3, [pc, #176]	; (800030c <rt_application_init+0xd8>)
 800025c:	f44f 7000 	mov.w	r0, #512	; 0x200
 8000260:	2114      	movs	r1, #20
 8000262:	2205      	movs	r2, #5
 8000264:	9300      	str	r3, [sp, #0]
 8000266:	9001      	str	r0, [sp, #4]
 8000268:	9102      	str	r1, [sp, #8]
 800026a:	9203      	str	r2, [sp, #12]
 800026c:	4828      	ldr	r0, [pc, #160]	; (8000310 <rt_application_init+0xdc>)
 800026e:	4929      	ldr	r1, [pc, #164]	; (8000314 <rt_application_init+0xe0>)
 8000270:	4a29      	ldr	r2, [pc, #164]	; (8000318 <rt_application_init+0xe4>)
 8000272:	2300      	movs	r3, #0
 8000274:	f007 f8fc 	bl	8007470 <rt_thread_init>
 8000278:	2800      	cmp	r0, #0
 800027a:	d03b      	beq.n	80002f4 <rt_application_init+0xc0>
 800027c:	4827      	ldr	r0, [pc, #156]	; (800031c <rt_application_init+0xe8>)
 800027e:	2305      	movs	r3, #5
 8000280:	f44f 7100 	mov.w	r1, #512	; 0x200
 8000284:	9000      	str	r0, [sp, #0]
 8000286:	9101      	str	r1, [sp, #4]
 8000288:	9302      	str	r3, [sp, #8]
 800028a:	9303      	str	r3, [sp, #12]
 800028c:	4824      	ldr	r0, [pc, #144]	; (8000320 <rt_application_init+0xec>)
 800028e:	4925      	ldr	r1, [pc, #148]	; (8000324 <rt_application_init+0xf0>)
 8000290:	4a25      	ldr	r2, [pc, #148]	; (8000328 <rt_application_init+0xf4>)
 8000292:	2300      	movs	r3, #0
 8000294:	f007 f8ec 	bl	8007470 <rt_thread_init>
 8000298:	2800      	cmp	r0, #0
 800029a:	d027      	beq.n	80002ec <rt_application_init+0xb8>
 800029c:	4a23      	ldr	r2, [pc, #140]	; (800032c <rt_application_init+0xf8>)
 800029e:	2305      	movs	r3, #5
 80002a0:	f44f 7000 	mov.w	r0, #512	; 0x200
 80002a4:	9200      	str	r2, [sp, #0]
 80002a6:	9001      	str	r0, [sp, #4]
 80002a8:	9302      	str	r3, [sp, #8]
 80002aa:	9303      	str	r3, [sp, #12]
 80002ac:	4820      	ldr	r0, [pc, #128]	; (8000330 <rt_application_init+0xfc>)
 80002ae:	4921      	ldr	r1, [pc, #132]	; (8000334 <rt_application_init+0x100>)
 80002b0:	4a21      	ldr	r2, [pc, #132]	; (8000338 <rt_application_init+0x104>)
 80002b2:	2300      	movs	r3, #0
 80002b4:	f007 f8dc 	bl	8007470 <rt_thread_init>
 80002b8:	b1a0      	cbz	r0, 80002e4 <rt_application_init+0xb0>
 80002ba:	2208      	movs	r2, #8
 80002bc:	2314      	movs	r3, #20
 80002be:	e88d 000c 	stmia.w	sp, {r2, r3}
 80002c2:	481e      	ldr	r0, [pc, #120]	; (800033c <rt_application_init+0x108>)
 80002c4:	491e      	ldr	r1, [pc, #120]	; (8000340 <rt_application_init+0x10c>)
 80002c6:	2200      	movs	r2, #0
 80002c8:	f44f 6300 	mov.w	r3, #2048	; 0x800
 80002cc:	f007 f91a 	bl	8007504 <rt_thread_create>
 80002d0:	b108      	cbz	r0, 80002d6 <rt_application_init+0xa2>
 80002d2:	f007 fa0d 	bl	80076f0 <rt_thread_startup>
 80002d6:	2000      	movs	r0, #0
 80002d8:	b005      	add	sp, #20
 80002da:	bd00      	pop	{pc}
 80002dc:	4808      	ldr	r0, [pc, #32]	; (8000300 <rt_application_init+0xcc>)
 80002de:	f007 fa07 	bl	80076f0 <rt_thread_startup>
 80002e2:	e7ba      	b.n	800025a <rt_application_init+0x26>
 80002e4:	4812      	ldr	r0, [pc, #72]	; (8000330 <rt_application_init+0xfc>)
 80002e6:	f007 fa03 	bl	80076f0 <rt_thread_startup>
 80002ea:	e7e6      	b.n	80002ba <rt_application_init+0x86>
 80002ec:	480c      	ldr	r0, [pc, #48]	; (8000320 <rt_application_init+0xec>)
 80002ee:	f007 f9ff 	bl	80076f0 <rt_thread_startup>
 80002f2:	e7d3      	b.n	800029c <rt_application_init+0x68>
 80002f4:	4806      	ldr	r0, [pc, #24]	; (8000310 <rt_application_init+0xdc>)
 80002f6:	f007 f9fb 	bl	80076f0 <rt_thread_startup>
 80002fa:	e7bf      	b.n	800027c <rt_application_init+0x48>
 80002fc:	20000714 	.word	0x20000714
 8000300:	20000914 	.word	0x20000914
 8000304:	080085bc 	.word	0x080085bc
 8000308:	08000211 	.word	0x08000211
 800030c:	20001a34 	.word	0x20001a34
 8000310:	200019bc 	.word	0x200019bc
 8000314:	080085c0 	.word	0x080085c0
 8000318:	08003561 	.word	0x08003561
 800031c:	200017bc 	.word	0x200017bc
 8000320:	20001320 	.word	0x20001320
 8000324:	080085c8 	.word	0x080085c8
 8000328:	0800320d 	.word	0x0800320d
 800032c:	20000f88 	.word	0x20000f88
 8000330:	20000f10 	.word	0x20000f10
 8000334:	080085d0 	.word	0x080085d0
 8000338:	08002eb5 	.word	0x08002eb5
 800033c:	080085d8 	.word	0x080085d8
 8000340:	0800020d 	.word	0x0800020d

08000344 <assert_failed>:
 8000344:	b508      	push	{r3, lr}
 8000346:	4605      	mov	r5, r0
 8000348:	4806      	ldr	r0, [pc, #24]	; (8000364 <assert_failed+0x20>)
 800034a:	460c      	mov	r4, r1
 800034c:	f006 fa5a 	bl	8006804 <rt_kprintf>
 8000350:	4805      	ldr	r0, [pc, #20]	; (8000368 <assert_failed+0x24>)
 8000352:	4629      	mov	r1, r5
 8000354:	f006 fa56 	bl	8006804 <rt_kprintf>
 8000358:	4804      	ldr	r0, [pc, #16]	; (800036c <assert_failed+0x28>)
 800035a:	4621      	mov	r1, r4
 800035c:	f006 fa52 	bl	8006804 <rt_kprintf>
 8000360:	e7fe      	b.n	8000360 <assert_failed+0x1c>
 8000362:	bf00      	nop
 8000364:	080085e0 	.word	0x080085e0
 8000368:	08008608 	.word	0x08008608
 800036c:	0800861c 	.word	0x0800861c

08000370 <rtthread_startup>:
 8000370:	b508      	push	{r3, lr}
 8000372:	f000 f835 	bl	80003e0 <rt_hw_board_init>
 8000376:	f003 ffbb 	bl	80042f0 <usb_init>
 800037a:	f006 fa6f 	bl	800685c <rt_show_version>
 800037e:	f44f 41a0 	mov.w	r1, #20480	; 0x5000
 8000382:	f641 50e8 	movw	r0, #7656	; 0x1de8
 8000386:	f2c2 0100 	movt	r1, #8192	; 0x2000
 800038a:	f2c2 0000 	movt	r0, #8192	; 0x2000
 800038e:	f006 fb1d 	bl	80069cc <rt_system_heap_init>
 8000392:	f006 fe5b 	bl	800704c <rt_system_scheduler_init>
 8000396:	f007 fb6d 	bl	8007a74 <rt_system_timer_init>
 800039a:	f007 fb73 	bl	8007a84 <rt_system_timer_thread_init>
 800039e:	f7ff ff49 	bl	8000234 <rt_application_init>
 80003a2:	f005 fbcd 	bl	8005b40 <rt_thread_idle_init>
 80003a6:	e8bd 4008 	ldmia.w	sp!, {r3, lr}
 80003aa:	f006 be7b 	b.w	80070a4 <rt_system_scheduler_start>
 80003ae:	bf00      	nop

080003b0 <main>:
 80003b0:	b508      	push	{r3, lr}
 80003b2:	f7ff feab 	bl	800010c <rt_hw_interrupt_disable>
 80003b6:	f7ff ffdb 	bl	8000370 <rtthread_startup>
 80003ba:	2000      	movs	r0, #0
 80003bc:	bd08      	pop	{r3, pc}
 80003be:	bf00      	nop

080003c0 <NVIC_Configuration>:
 80003c0:	f04f 6000 	mov.w	r0, #134217728	; 0x8000000
 80003c4:	2100      	movs	r1, #0
 80003c6:	f002 ba47 	b.w	8002858 <NVIC_SetVectorTable>
 80003ca:	bf00      	nop

080003cc <SysTick_Handler>:
 80003cc:	b508      	push	{r3, lr}
 80003ce:	f005 fd2d 	bl	8005e2c <rt_interrupt_enter>
 80003d2:	f005 fa31 	bl	8005838 <rt_tick_increase>
 80003d6:	e8bd 4008 	ldmia.w	sp!, {r3, lr}
 80003da:	f005 bd37 	b.w	8005e4c <rt_interrupt_leave>
 80003de:	bf00      	nop

080003e0 <rt_hw_board_init>:
 80003e0:	b508      	push	{r3, lr}
 80003e2:	f7ff ffed 	bl	80003c0 <NVIC_Configuration>
 80003e6:	f240 0318 	movw	r3, #24
 80003ea:	f2c2 0300 	movt	r3, #8192	; 0x2000
 80003ee:	6819      	ldr	r1, [r3, #0]
 80003f0:	f641 10f1 	movw	r0, #6641	; 0x19f1
 80003f4:	f2c0 5076 	movt	r0, #1398	; 0x576
 80003f8:	fba0 2101 	umull	r2, r1, r0, r1
 80003fc:	f24e 0310 	movw	r3, #57360	; 0xe010
 8000400:	0988      	lsrs	r0, r1, #6
 8000402:	f44f 426d 	mov.w	r2, #60672	; 0xed00
 8000406:	f2ce 0300 	movt	r3, #57344	; 0xe000
 800040a:	1e41      	subs	r1, r0, #1
 800040c:	f2ce 0200 	movt	r2, #57344	; 0xe000
 8000410:	20f0      	movs	r0, #240	; 0xf0
 8000412:	6059      	str	r1, [r3, #4]
 8000414:	f882 0023 	strb.w	r0, [r2, #35]	; 0x23
 8000418:	2107      	movs	r1, #7
 800041a:	2200      	movs	r2, #0
 800041c:	609a      	str	r2, [r3, #8]
 800041e:	6019      	str	r1, [r3, #0]
 8000420:	f000 f9ca 	bl	80007b8 <rt_hw_usart_init>
 8000424:	f248 6030 	movw	r0, #34352	; 0x8630
 8000428:	f6c0 0000 	movt	r0, #2048	; 0x800
 800042c:	e8bd 4008 	ldmia.w	sp!, {r3, lr}
 8000430:	f006 b9d2 	b.w	80067d8 <rt_console_set_device>

08000434 <NMI_Handler>:
 8000434:	4770      	bx	lr
 8000436:	bf00      	nop

08000438 <MemManage_Handler>:
 8000438:	e7fe      	b.n	8000438 <MemManage_Handler>
 800043a:	bf00      	nop

0800043c <BusFault_Handler>:
 800043c:	e7fe      	b.n	800043c <BusFault_Handler>
 800043e:	bf00      	nop

08000440 <UsageFault_Handler>:
 8000440:	e7fe      	b.n	8000440 <UsageFault_Handler>
 8000442:	bf00      	nop

08000444 <SVC_Handler>:
 8000444:	4770      	bx	lr
 8000446:	bf00      	nop

08000448 <DebugMon_Handler>:
 8000448:	4770      	bx	lr
 800044a:	bf00      	nop

0800044c <rt_hw_led_init>:
 800044c:	b510      	push	{r4, lr}
 800044e:	2018      	movs	r0, #24
 8000450:	b082      	sub	sp, #8
 8000452:	2101      	movs	r1, #1
 8000454:	f000 fbce 	bl	8000bf4 <RCC_APB2PeriphClockCmd>
 8000458:	ac02      	add	r4, sp, #8
 800045a:	2380      	movs	r3, #128	; 0x80
 800045c:	f824 3d04 	strh.w	r3, [r4, #-4]!
 8000460:	f44f 6040 	mov.w	r0, #3072	; 0xc00
 8000464:	2210      	movs	r2, #16
 8000466:	4621      	mov	r1, r4
 8000468:	2303      	movs	r3, #3
 800046a:	f2c4 0001 	movt	r0, #16385	; 0x4001
 800046e:	f88d 2007 	strb.w	r2, [sp, #7]
 8000472:	f88d 3006 	strb.w	r3, [sp, #6]
 8000476:	f001 f8cb 	bl	8001610 <GPIO_Init>
 800047a:	f44f 5080 	mov.w	r0, #4096	; 0x1000
 800047e:	f44f 4280 	mov.w	r2, #16384	; 0x4000
 8000482:	f2c4 0001 	movt	r0, #16385	; 0x4001
 8000486:	4621      	mov	r1, r4
 8000488:	f8ad 2004 	strh.w	r2, [sp, #4]
 800048c:	f001 f8c0 	bl	8001610 <GPIO_Init>
 8000490:	b002      	add	sp, #8
 8000492:	bd10      	pop	{r4, pc}

08000494 <rt_hw_led_on>:
 8000494:	b930      	cbnz	r0, 80004a4 <rt_hw_led_on+0x10>
 8000496:	f44f 6040 	mov.w	r0, #3072	; 0xc00
 800049a:	f2c4 0001 	movt	r0, #16385	; 0x4001
 800049e:	2180      	movs	r1, #128	; 0x80
 80004a0:	f001 bab8 	b.w	8001a14 <GPIO_SetBits>
 80004a4:	2801      	cmp	r0, #1
 80004a6:	d000      	beq.n	80004aa <rt_hw_led_on+0x16>
 80004a8:	4770      	bx	lr
 80004aa:	f44f 5080 	mov.w	r0, #4096	; 0x1000
 80004ae:	f2c4 0001 	movt	r0, #16385	; 0x4001
 80004b2:	f44f 4180 	mov.w	r1, #16384	; 0x4000
 80004b6:	f001 baad 	b.w	8001a14 <GPIO_SetBits>
 80004ba:	bf00      	nop

080004bc <rt_hw_led_off>:
 80004bc:	b930      	cbnz	r0, 80004cc <rt_hw_led_off+0x10>
 80004be:	f44f 6040 	mov.w	r0, #3072	; 0xc00
 80004c2:	f2c4 0001 	movt	r0, #16385	; 0x4001
 80004c6:	2180      	movs	r1, #128	; 0x80
 80004c8:	f001 bae0 	b.w	8001a8c <GPIO_ResetBits>
 80004cc:	2801      	cmp	r0, #1
 80004ce:	d000      	beq.n	80004d2 <rt_hw_led_off+0x16>
 80004d0:	4770      	bx	lr
 80004d2:	f44f 5080 	mov.w	r0, #4096	; 0x1000
 80004d6:	f2c4 0001 	movt	r0, #16385	; 0x4001
 80004da:	f44f 4180 	mov.w	r1, #16384	; 0x4000
 80004de:	f001 bad5 	b.w	8001a8c <GPIO_ResetBits>
 80004e2:	bf00      	nop

080004e4 <stm32_getc>:
 80004e4:	b510      	push	{r4, lr}
 80004e6:	4604      	mov	r4, r0
 80004e8:	b082      	sub	sp, #8
 80004ea:	b160      	cbz	r0, 8000506 <stm32_getc+0x22>
 80004ec:	6be0      	ldr	r0, [r4, #60]	; 0x3c
 80004ee:	6801      	ldr	r1, [r0, #0]
 80004f0:	f04f 30ff 	mov.w	r0, #4294967295
 80004f4:	880a      	ldrh	r2, [r1, #0]
 80004f6:	f002 0320 	and.w	r3, r2, #32
 80004fa:	b29a      	uxth	r2, r3
 80004fc:	b10a      	cbz	r2, 8000502 <stm32_getc+0x1e>
 80004fe:	8888      	ldrh	r0, [r1, #4]
 8000500:	b2c0      	uxtb	r0, r0
 8000502:	b002      	add	sp, #8
 8000504:	bd10      	pop	{r4, pc}
 8000506:	4806      	ldr	r0, [pc, #24]	; (8000520 <stm32_getc+0x3c>)
 8000508:	4906      	ldr	r1, [pc, #24]	; (8000524 <stm32_getc+0x40>)
 800050a:	4a07      	ldr	r2, [pc, #28]	; (8000528 <stm32_getc+0x44>)
 800050c:	2376      	movs	r3, #118	; 0x76
 800050e:	f88d 4007 	strb.w	r4, [sp, #7]
 8000512:	f006 f977 	bl	8006804 <rt_kprintf>
 8000516:	f89d 3007 	ldrb.w	r3, [sp, #7]
 800051a:	2b00      	cmp	r3, #0
 800051c:	d0fb      	beq.n	8000516 <stm32_getc+0x32>
 800051e:	e7e5      	b.n	80004ec <stm32_getc+0x8>
 8000520:	08008674 	.word	0x08008674
 8000524:	08008694 	.word	0x08008694
 8000528:	08008654 	.word	0x08008654

0800052c <stm32_putc>:
 800052c:	b530      	push	{r4, r5, lr}
 800052e:	4604      	mov	r4, r0
 8000530:	b083      	sub	sp, #12
 8000532:	460d      	mov	r5, r1
 8000534:	b158      	cbz	r0, 800054e <stm32_putc+0x22>
 8000536:	6be0      	ldr	r0, [r4, #60]	; 0x3c
 8000538:	6802      	ldr	r2, [r0, #0]
 800053a:	8811      	ldrh	r1, [r2, #0]
 800053c:	f001 0380 	and.w	r3, r1, #128	; 0x80
 8000540:	b298      	uxth	r0, r3
 8000542:	2800      	cmp	r0, #0
 8000544:	d0f9      	beq.n	800053a <stm32_putc+0xe>
 8000546:	8095      	strh	r5, [r2, #4]
 8000548:	2001      	movs	r0, #1
 800054a:	b003      	add	sp, #12
 800054c:	bd30      	pop	{r4, r5, pc}
 800054e:	4806      	ldr	r0, [pc, #24]	; (8000568 <stm32_putc+0x3c>)
 8000550:	4906      	ldr	r1, [pc, #24]	; (800056c <stm32_putc+0x40>)
 8000552:	4a07      	ldr	r2, [pc, #28]	; (8000570 <stm32_putc+0x44>)
 8000554:	2368      	movs	r3, #104	; 0x68
 8000556:	f88d 4007 	strb.w	r4, [sp, #7]
 800055a:	f006 f953 	bl	8006804 <rt_kprintf>
 800055e:	f89d 3007 	ldrb.w	r3, [sp, #7]
 8000562:	2b00      	cmp	r3, #0
 8000564:	d0fb      	beq.n	800055e <stm32_putc+0x32>
 8000566:	e7e6      	b.n	8000536 <stm32_putc+0xa>
 8000568:	08008674 	.word	0x08008674
 800056c:	08008694 	.word	0x08008694
 8000570:	08008648 	.word	0x08008648

08000574 <stm32_control>:
 8000574:	b530      	push	{r4, r5, lr}
 8000576:	4604      	mov	r4, r0
 8000578:	b083      	sub	sp, #12
 800057a:	460d      	mov	r5, r1
 800057c:	b328      	cbz	r0, 80005ca <stm32_control+0x56>
 800057e:	2d10      	cmp	r5, #16
 8000580:	6be0      	ldr	r0, [r4, #60]	; 0x3c
 8000582:	d013      	beq.n	80005ac <stm32_control+0x38>
 8000584:	2d11      	cmp	r5, #17
 8000586:	d10e      	bne.n	80005a6 <stm32_control+0x32>
 8000588:	7903      	ldrb	r3, [r0, #4]
 800058a:	2101      	movs	r1, #1
 800058c:	f003 021f 	and.w	r2, r3, #31
 8000590:	fa01 f102 	lsl.w	r1, r1, r2
 8000594:	b258      	sxtb	r0, r3
 8000596:	0942      	lsrs	r2, r0, #5
 8000598:	f44f 4361 	mov.w	r3, #57600	; 0xe100
 800059c:	f2ce 0300 	movt	r3, #57344	; 0xe000
 80005a0:	3220      	adds	r2, #32
 80005a2:	f843 1022 	str.w	r1, [r3, r2, lsl #2]
 80005a6:	2000      	movs	r0, #0
 80005a8:	b003      	add	sp, #12
 80005aa:	bd30      	pop	{r4, r5, pc}
 80005ac:	7900      	ldrb	r0, [r0, #4]
 80005ae:	2101      	movs	r1, #1
 80005b0:	f000 021f 	and.w	r2, r0, #31
 80005b4:	fa01 f102 	lsl.w	r1, r1, r2
 80005b8:	b240      	sxtb	r0, r0
 80005ba:	f44f 4361 	mov.w	r3, #57600	; 0xe100
 80005be:	0942      	lsrs	r2, r0, #5
 80005c0:	f2ce 0300 	movt	r3, #57344	; 0xe000
 80005c4:	f843 1022 	str.w	r1, [r3, r2, lsl #2]
 80005c8:	e7ed      	b.n	80005a6 <stm32_control+0x32>
 80005ca:	4806      	ldr	r0, [pc, #24]	; (80005e4 <stm32_control+0x70>)
 80005cc:	4906      	ldr	r1, [pc, #24]	; (80005e8 <stm32_control+0x74>)
 80005ce:	4a07      	ldr	r2, [pc, #28]	; (80005ec <stm32_control+0x78>)
 80005d0:	2352      	movs	r3, #82	; 0x52
 80005d2:	f88d 4007 	strb.w	r4, [sp, #7]
 80005d6:	f006 f915 	bl	8006804 <rt_kprintf>
 80005da:	f89d 3007 	ldrb.w	r3, [sp, #7]
 80005de:	2b00      	cmp	r3, #0
 80005e0:	d0fb      	beq.n	80005da <stm32_control+0x66>
 80005e2:	e7cc      	b.n	800057e <stm32_control+0xa>
 80005e4:	08008674 	.word	0x08008674
 80005e8:	08008694 	.word	0x08008694
 80005ec:	08008638 	.word	0x08008638

080005f0 <stm32_configure>:
 80005f0:	b530      	push	{r4, r5, lr}
 80005f2:	4605      	mov	r5, r0
 80005f4:	b087      	sub	sp, #28
 80005f6:	460c      	mov	r4, r1
 80005f8:	2800      	cmp	r0, #0
 80005fa:	d030      	beq.n	800065e <stm32_configure+0x6e>
 80005fc:	2c00      	cmp	r4, #0
 80005fe:	d03b      	beq.n	8000678 <stm32_configure+0x88>
 8000600:	7923      	ldrb	r3, [r4, #4]
 8000602:	6822      	ldr	r2, [r4, #0]
 8000604:	f003 010f 	and.w	r1, r3, #15
 8000608:	2908      	cmp	r1, #8
 800060a:	9202      	str	r2, [sp, #8]
 800060c:	6bed      	ldr	r5, [r5, #60]	; 0x3c
 800060e:	d022      	beq.n	8000656 <stm32_configure+0x66>
 8000610:	f013 0030 	ands.w	r0, r3, #48	; 0x30
 8000614:	d01c      	beq.n	8000650 <stm32_configure+0x60>
 8000616:	2810      	cmp	r0, #16
 8000618:	d018      	beq.n	800064c <stm32_configure+0x5c>
 800061a:	6828      	ldr	r0, [r5, #0]
 800061c:	230c      	movs	r3, #12
 800061e:	2400      	movs	r4, #0
 8000620:	a902      	add	r1, sp, #8
 8000622:	f8ad 3012 	strh.w	r3, [sp, #18]
 8000626:	f8ad 4010 	strh.w	r4, [sp, #16]
 800062a:	f8ad 4014 	strh.w	r4, [sp, #20]
 800062e:	f001 fb99 	bl	8001d64 <USART_Init>
 8000632:	6828      	ldr	r0, [r5, #0]
 8000634:	2101      	movs	r1, #1
 8000636:	f001 fc89 	bl	8001f4c <USART_Cmd>
 800063a:	6828      	ldr	r0, [r5, #0]
 800063c:	f240 5125 	movw	r1, #1317	; 0x525
 8000640:	2201      	movs	r2, #1
 8000642:	f001 fcc1 	bl	8001fc8 <USART_ITConfig>
 8000646:	4620      	mov	r0, r4
 8000648:	b007      	add	sp, #28
 800064a:	bd30      	pop	{r4, r5, pc}
 800064c:	f44f 5000 	mov.w	r0, #8192	; 0x2000
 8000650:	f8ad 000e 	strh.w	r0, [sp, #14]
 8000654:	e7e1      	b.n	800061a <stm32_configure+0x2a>
 8000656:	2400      	movs	r4, #0
 8000658:	f8ad 400c 	strh.w	r4, [sp, #12]
 800065c:	e7d8      	b.n	8000610 <stm32_configure+0x20>
 800065e:	480d      	ldr	r0, [pc, #52]	; (8000694 <stm32_configure+0xa4>)
 8000660:	490d      	ldr	r1, [pc, #52]	; (8000698 <stm32_configure+0xa8>)
 8000662:	4a0e      	ldr	r2, [pc, #56]	; (800069c <stm32_configure+0xac>)
 8000664:	2332      	movs	r3, #50	; 0x32
 8000666:	f88d 5006 	strb.w	r5, [sp, #6]
 800066a:	f006 f8cb 	bl	8006804 <rt_kprintf>
 800066e:	f89d 3006 	ldrb.w	r3, [sp, #6]
 8000672:	2b00      	cmp	r3, #0
 8000674:	d0fb      	beq.n	800066e <stm32_configure+0x7e>
 8000676:	e7c1      	b.n	80005fc <stm32_configure+0xc>
 8000678:	4806      	ldr	r0, [pc, #24]	; (8000694 <stm32_configure+0xa4>)
 800067a:	4909      	ldr	r1, [pc, #36]	; (80006a0 <stm32_configure+0xb0>)
 800067c:	4a07      	ldr	r2, [pc, #28]	; (800069c <stm32_configure+0xac>)
 800067e:	2333      	movs	r3, #51	; 0x33
 8000680:	f88d 4007 	strb.w	r4, [sp, #7]
 8000684:	f006 f8be 	bl	8006804 <rt_kprintf>
 8000688:	f89d 0007 	ldrb.w	r0, [sp, #7]
 800068c:	2800      	cmp	r0, #0
 800068e:	d0fb      	beq.n	8000688 <stm32_configure+0x98>
 8000690:	e7b6      	b.n	8000600 <stm32_configure+0x10>
 8000692:	bf00      	nop
 8000694:	08008674 	.word	0x08008674
 8000698:	08008694 	.word	0x08008694
 800069c:	080086c8 	.word	0x080086c8
 80006a0:	080086a8 	.word	0x080086a8

080006a4 <NVIC_Configuration.isra.0>:
 80006a4:	b500      	push	{lr}
 80006a6:	b083      	sub	sp, #12
 80006a8:	2300      	movs	r3, #0
 80006aa:	f88d 0004 	strb.w	r0, [sp, #4]
 80006ae:	2101      	movs	r1, #1
 80006b0:	a801      	add	r0, sp, #4
 80006b2:	f88d 3005 	strb.w	r3, [sp, #5]
 80006b6:	f88d 3006 	strb.w	r3, [sp, #6]
 80006ba:	f88d 1007 	strb.w	r1, [sp, #7]
 80006be:	f002 f873 	bl	80027a8 <NVIC_Init>
 80006c2:	b003      	add	sp, #12
 80006c4:	bd00      	pop	{pc}
 80006c6:	bf00      	nop

080006c8 <USART1_IRQHandler>:
 80006c8:	b510      	push	{r4, lr}
 80006ca:	4c11      	ldr	r4, [pc, #68]	; (8000710 <USART1_IRQHandler+0x48>)
 80006cc:	f005 fbae 	bl	8005e2c <rt_interrupt_enter>
 80006d0:	6820      	ldr	r0, [r4, #0]
 80006d2:	f240 5125 	movw	r1, #1317	; 0x525
 80006d6:	f001 fd03 	bl	80020e0 <USART_GetITStatus>
 80006da:	b978      	cbnz	r0, 80006fc <USART1_IRQHandler+0x34>
 80006dc:	6820      	ldr	r0, [r4, #0]
 80006de:	f240 6126 	movw	r1, #1574	; 0x626
 80006e2:	f001 fcfd 	bl	80020e0 <USART_GetITStatus>
 80006e6:	b128      	cbz	r0, 80006f4 <USART1_IRQHandler+0x2c>
 80006e8:	4b09      	ldr	r3, [pc, #36]	; (8000710 <USART1_IRQHandler+0x48>)
 80006ea:	f240 6126 	movw	r1, #1574	; 0x626
 80006ee:	6818      	ldr	r0, [r3, #0]
 80006f0:	f001 fd98 	bl	8002224 <USART_ClearITPendingBit>
 80006f4:	e8bd 4010 	ldmia.w	sp!, {r4, lr}
 80006f8:	f005 bba8 	b.w	8005e4c <rt_interrupt_leave>
 80006fc:	4805      	ldr	r0, [pc, #20]	; (8000714 <USART1_IRQHandler+0x4c>)
 80006fe:	f007 fd8f 	bl	8008220 <rt_hw_serial_isr>
 8000702:	6820      	ldr	r0, [r4, #0]
 8000704:	f240 5125 	movw	r1, #1317	; 0x525
 8000708:	f001 fd8c 	bl	8002224 <USART_ClearITPendingBit>
 800070c:	e7e6      	b.n	80006dc <USART1_IRQHandler+0x14>
 800070e:	bf00      	nop
 8000710:	20000010 	.word	0x20000010
 8000714:	20000c58 	.word	0x20000c58

08000718 <USART2_IRQHandler>:
 8000718:	b510      	push	{r4, lr}
 800071a:	4c11      	ldr	r4, [pc, #68]	; (8000760 <USART2_IRQHandler+0x48>)
 800071c:	f005 fb86 	bl	8005e2c <rt_interrupt_enter>
 8000720:	6820      	ldr	r0, [r4, #0]
 8000722:	f240 5125 	movw	r1, #1317	; 0x525
 8000726:	f001 fcdb 	bl	80020e0 <USART_GetITStatus>
 800072a:	b978      	cbnz	r0, 800074c <USART2_IRQHandler+0x34>
 800072c:	6820      	ldr	r0, [r4, #0]
 800072e:	f240 6126 	movw	r1, #1574	; 0x626
 8000732:	f001 fcd5 	bl	80020e0 <USART_GetITStatus>
 8000736:	b128      	cbz	r0, 8000744 <USART2_IRQHandler+0x2c>
 8000738:	4b09      	ldr	r3, [pc, #36]	; (8000760 <USART2_IRQHandler+0x48>)
 800073a:	f240 6126 	movw	r1, #1574	; 0x626
 800073e:	6818      	ldr	r0, [r3, #0]
 8000740:	f001 fd70 	bl	8002224 <USART_ClearITPendingBit>
 8000744:	e8bd 4010 	ldmia.w	sp!, {r4, lr}
 8000748:	f005 bb80 	b.w	8005e4c <rt_interrupt_leave>
 800074c:	4805      	ldr	r0, [pc, #20]	; (8000764 <USART2_IRQHandler+0x4c>)
 800074e:	f007 fd67 	bl	8008220 <rt_hw_serial_isr>
 8000752:	6820      	ldr	r0, [r4, #0]
 8000754:	f240 5125 	movw	r1, #1317	; 0x525
 8000758:	f001 fd64 	bl	8002224 <USART_ClearITPendingBit>
 800075c:	e7e6      	b.n	800072c <USART2_IRQHandler+0x14>
 800075e:	bf00      	nop
 8000760:	20000000 	.word	0x20000000
 8000764:	20000dd8 	.word	0x20000dd8

08000768 <USART3_IRQHandler>:
 8000768:	b510      	push	{r4, lr}
 800076a:	4c11      	ldr	r4, [pc, #68]	; (80007b0 <USART3_IRQHandler+0x48>)
 800076c:	f005 fb5e 	bl	8005e2c <rt_interrupt_enter>
 8000770:	6820      	ldr	r0, [r4, #0]
 8000772:	f240 5125 	movw	r1, #1317	; 0x525
 8000776:	f001 fcb3 	bl	80020e0 <USART_GetITStatus>
 800077a:	b978      	cbnz	r0, 800079c <USART3_IRQHandler+0x34>
 800077c:	6820      	ldr	r0, [r4, #0]
 800077e:	f240 6126 	movw	r1, #1574	; 0x626
 8000782:	f001 fcad 	bl	80020e0 <USART_GetITStatus>
 8000786:	b128      	cbz	r0, 8000794 <USART3_IRQHandler+0x2c>
 8000788:	4b09      	ldr	r3, [pc, #36]	; (80007b0 <USART3_IRQHandler+0x48>)
 800078a:	f240 6126 	movw	r1, #1574	; 0x626
 800078e:	6818      	ldr	r0, [r3, #0]
 8000790:	f001 fd48 	bl	8002224 <USART_ClearITPendingBit>
 8000794:	e8bd 4010 	ldmia.w	sp!, {r4, lr}
 8000798:	f005 bb58 	b.w	8005e4c <rt_interrupt_leave>
 800079c:	4805      	ldr	r0, [pc, #20]	; (80007b4 <USART3_IRQHandler+0x4c>)
 800079e:	f007 fd3f 	bl	8008220 <rt_hw_serial_isr>
 80007a2:	6820      	ldr	r0, [r4, #0]
 80007a4:	f240 5125 	movw	r1, #1317	; 0x525
 80007a8:	f001 fd3c 	bl	8002224 <USART_ClearITPendingBit>
 80007ac:	e7e6      	b.n	800077c <USART3_IRQHandler+0x14>
 80007ae:	bf00      	nop
 80007b0:	20000008 	.word	0x20000008
 80007b4:	20000d18 	.word	0x20000d18

080007b8 <rt_hw_usart_init>:
 80007b8:	e92d 47f0 	stmdb	sp!, {r4, r5, r6, r7, r8, r9, sl, lr}
 80007bc:	f248 538c 	movw	r3, #34188	; 0x858c
 80007c0:	b084      	sub	sp, #16
 80007c2:	f6c0 0300 	movt	r3, #2048	; 0x800
 80007c6:	ac02      	add	r4, sp, #8
 80007c8:	e893 0003 	ldmia.w	r3, {r0, r1}
 80007cc:	e884 0003 	stmia.w	r4, {r0, r1}
 80007d0:	2004      	movs	r0, #4
 80007d2:	2101      	movs	r1, #1
 80007d4:	f000 fa0e 	bl	8000bf4 <RCC_APB2PeriphClockCmd>
 80007d8:	2101      	movs	r1, #1
 80007da:	f44f 4080 	mov.w	r0, #16384	; 0x4000
 80007de:	f000 fa09 	bl	8000bf4 <RCC_APB2PeriphClockCmd>
 80007e2:	2004      	movs	r0, #4
 80007e4:	2101      	movs	r1, #1
 80007e6:	f000 fa05 	bl	8000bf4 <RCC_APB2PeriphClockCmd>
 80007ea:	2101      	movs	r1, #1
 80007ec:	f44f 3000 	mov.w	r0, #131072	; 0x20000
 80007f0:	f000 fa2c 	bl	8000c4c <RCC_APB1PeriphClockCmd>
 80007f4:	2008      	movs	r0, #8
 80007f6:	2101      	movs	r1, #1
 80007f8:	ad04      	add	r5, sp, #16
 80007fa:	f000 f9fb 	bl	8000bf4 <RCC_APB2PeriphClockCmd>
 80007fe:	f44f 6a80 	mov.w	sl, #1024	; 0x400
 8000802:	2101      	movs	r1, #1
 8000804:	f44f 2080 	mov.w	r0, #262144	; 0x40000
 8000808:	f44f 6600 	mov.w	r6, #2048	; 0x800
 800080c:	f000 fa1e 	bl	8000c4c <RCC_APB1PeriphClockCmd>
 8000810:	f2c4 0601 	movt	r6, #16385	; 0x4001
 8000814:	f825 ad0c 	strh.w	sl, [r5, #-12]!
 8000818:	2704      	movs	r7, #4
 800081a:	2202      	movs	r2, #2
 800081c:	4630      	mov	r0, r6
 800081e:	4629      	mov	r1, r5
 8000820:	f04f 0818 	mov.w	r8, #24
 8000824:	f88d 2006 	strb.w	r2, [sp, #6]
 8000828:	f88d 7007 	strb.w	r7, [sp, #7]
 800082c:	f000 fef0 	bl	8001610 <GPIO_Init>
 8000830:	f44f 7300 	mov.w	r3, #512	; 0x200
 8000834:	4630      	mov	r0, r6
 8000836:	4629      	mov	r1, r5
 8000838:	f8ad 3004 	strh.w	r3, [sp, #4]
 800083c:	f88d 8007 	strb.w	r8, [sp, #7]
 8000840:	f44f 6940 	mov.w	r9, #3072	; 0xc00
 8000844:	f000 fee4 	bl	8001610 <GPIO_Init>
 8000848:	2208      	movs	r2, #8
 800084a:	4630      	mov	r0, r6
 800084c:	4629      	mov	r1, r5
 800084e:	f8ad 2004 	strh.w	r2, [sp, #4]
 8000852:	f2c4 0901 	movt	r9, #16385	; 0x4001
 8000856:	f88d 7007 	strb.w	r7, [sp, #7]
 800085a:	f000 fed9 	bl	8001610 <GPIO_Init>
 800085e:	4630      	mov	r0, r6
 8000860:	4629      	mov	r1, r5
 8000862:	f88d 8007 	strb.w	r8, [sp, #7]
 8000866:	f8ad 7004 	strh.w	r7, [sp, #4]
 800086a:	f44f 6600 	mov.w	r6, #2048	; 0x800
 800086e:	f000 fecf 	bl	8001610 <GPIO_Init>
 8000872:	4648      	mov	r0, r9
 8000874:	4629      	mov	r1, r5
 8000876:	f88d 7007 	strb.w	r7, [sp, #7]
 800087a:	f8ad 6004 	strh.w	r6, [sp, #4]
 800087e:	f640 4758 	movw	r7, #3160	; 0xc58
 8000882:	f000 fec5 	bl	8001610 <GPIO_Init>
 8000886:	4648      	mov	r0, r9
 8000888:	4629      	mov	r1, r5
 800088a:	f2c2 0700 	movt	r7, #8192	; 0x2000
 800088e:	f88d 8007 	strb.w	r8, [sp, #7]
 8000892:	f8ad a004 	strh.w	sl, [sp, #4]
 8000896:	f000 febb 	bl	8001610 <GPIO_Init>
 800089a:	f44f 30e1 	mov.w	r0, #115200	; 0x1c200
 800089e:	f107 0344 	add.w	r3, r7, #68	; 0x44
 80008a2:	9002      	str	r0, [sp, #8]
 80008a4:	f240 0510 	movw	r5, #16
 80008a8:	e894 0003 	ldmia.w	r4, {r0, r1}
 80008ac:	f2c2 0500 	movt	r5, #8192	; 0x2000
 80008b0:	e883 0003 	stmia.w	r3, {r0, r1}
 80008b4:	f248 6860 	movw	r8, #34400	; 0x8660
 80008b8:	f640 5194 	movw	r1, #3476	; 0xd94
 80008bc:	f6c0 0800 	movt	r8, #2048	; 0x800
 80008c0:	f995 0004 	ldrsb.w	r0, [r5, #4]
 80008c4:	f2c2 0100 	movt	r1, #8192	; 0x2000
 80008c8:	f8c7 8040 	str.w	r8, [r7, #64]	; 0x40
 80008cc:	64f9      	str	r1, [r7, #76]	; 0x4c
 80008ce:	f640 56d8 	movw	r6, #3544	; 0xdd8
 80008d2:	f7ff fee7 	bl	80006a4 <NVIC_Configuration.isra.0>
 80008d6:	f248 6130 	movw	r1, #34352	; 0x8630
 80008da:	f2c2 0600 	movt	r6, #8192	; 0x2000
 80008de:	462b      	mov	r3, r5
 80008e0:	f240 1243 	movw	r2, #323	; 0x143
 80008e4:	f6c0 0100 	movt	r1, #2048	; 0x800
 80008e8:	4638      	mov	r0, r7
 80008ea:	f240 0700 	movw	r7, #0
 80008ee:	f007 fc57 	bl	80081a0 <rt_hw_serial_register>
 80008f2:	e894 0003 	ldmia.w	r4, {r0, r1}
 80008f6:	f106 0244 	add.w	r2, r6, #68	; 0x44
 80008fa:	f2c2 0700 	movt	r7, #8192	; 0x2000
 80008fe:	f640 45d4 	movw	r5, #3284	; 0xcd4
 8000902:	e882 0003 	stmia.w	r2, {r0, r1}
 8000906:	f2c2 0500 	movt	r5, #8192	; 0x2000
 800090a:	f997 0004 	ldrsb.w	r0, [r7, #4]
 800090e:	f8c6 8040 	str.w	r8, [r6, #64]	; 0x40
 8000912:	64f5      	str	r5, [r6, #76]	; 0x4c
 8000914:	f7ff fec6 	bl	80006a4 <NVIC_Configuration.isra.0>
 8000918:	f640 5518 	movw	r5, #3352	; 0xd18
 800091c:	f248 61b8 	movw	r1, #34488	; 0x86b8
 8000920:	f2c2 0500 	movt	r5, #8192	; 0x2000
 8000924:	f240 1203 	movw	r2, #259	; 0x103
 8000928:	463b      	mov	r3, r7
 800092a:	f6c0 0100 	movt	r1, #2048	; 0x800
 800092e:	4630      	mov	r0, r6
 8000930:	f007 fc36 	bl	80081a0 <rt_hw_serial_register>
 8000934:	e894 0003 	ldmia.w	r4, {r0, r1}
 8000938:	f105 0344 	add.w	r3, r5, #68	; 0x44
 800093c:	f240 0608 	movw	r6, #8
 8000940:	e883 0003 	stmia.w	r3, {r0, r1}
 8000944:	f2c2 0600 	movt	r6, #8192	; 0x2000
 8000948:	f640 4114 	movw	r1, #3092	; 0xc14
 800094c:	f996 0004 	ldrsb.w	r0, [r6, #4]
 8000950:	f2c2 0100 	movt	r1, #8192	; 0x2000
 8000954:	64e9      	str	r1, [r5, #76]	; 0x4c
 8000956:	f8c5 8040 	str.w	r8, [r5, #64]	; 0x40
 800095a:	f7ff fea3 	bl	80006a4 <NVIC_Configuration.isra.0>
 800095e:	f248 61c0 	movw	r1, #34496	; 0x86c0
 8000962:	4628      	mov	r0, r5
 8000964:	f6c0 0100 	movt	r1, #2048	; 0x800
 8000968:	f240 1203 	movw	r2, #259	; 0x103
 800096c:	4633      	mov	r3, r6
 800096e:	f007 fc17 	bl	80081a0 <rt_hw_serial_register>
 8000972:	b004      	add	sp, #16
 8000974:	e8bd 87f0 	ldmia.w	sp!, {r4, r5, r6, r7, r8, r9, sl, pc}

08000978 <SystemInit>:
 8000978:	f44f 5380 	mov.w	r3, #4096	; 0x1000
 800097c:	f2c4 0302 	movt	r3, #16386	; 0x4002
 8000980:	6819      	ldr	r1, [r3, #0]
 8000982:	2200      	movs	r2, #0
 8000984:	f041 0001 	orr.w	r0, r1, #1
 8000988:	6018      	str	r0, [r3, #0]
 800098a:	6859      	ldr	r1, [r3, #4]
 800098c:	f6cf 02ff 	movt	r2, #63743	; 0xf8ff
 8000990:	400a      	ands	r2, r1
 8000992:	605a      	str	r2, [r3, #4]
 8000994:	681a      	ldr	r2, [r3, #0]
 8000996:	2100      	movs	r1, #0
 8000998:	f022 7084 	bic.w	r0, r2, #17301504	; 0x1080000
 800099c:	f420 3280 	bic.w	r2, r0, #65536	; 0x10000
 80009a0:	601a      	str	r2, [r3, #0]
 80009a2:	6818      	ldr	r0, [r3, #0]
 80009a4:	b082      	sub	sp, #8
 80009a6:	f420 2280 	bic.w	r2, r0, #262144	; 0x40000
 80009aa:	601a      	str	r2, [r3, #0]
 80009ac:	6858      	ldr	r0, [r3, #4]
 80009ae:	461a      	mov	r2, r3
 80009b0:	f420 00fe 	bic.w	r0, r0, #8323072	; 0x7f0000
 80009b4:	6058      	str	r0, [r3, #4]
 80009b6:	f44f 001f 	mov.w	r0, #10420224	; 0x9f0000
 80009ba:	6098      	str	r0, [r3, #8]
 80009bc:	9100      	str	r1, [sp, #0]
 80009be:	9101      	str	r1, [sp, #4]
 80009c0:	6819      	ldr	r1, [r3, #0]
 80009c2:	f441 3080 	orr.w	r0, r1, #65536	; 0x10000
 80009c6:	6018      	str	r0, [r3, #0]
 80009c8:	e003      	b.n	80009d2 <SystemInit+0x5a>
 80009ca:	9800      	ldr	r0, [sp, #0]
 80009cc:	f5b0 6fa0 	cmp.w	r0, #1280	; 0x500
 80009d0:	d009      	beq.n	80009e6 <SystemInit+0x6e>
 80009d2:	6813      	ldr	r3, [r2, #0]
 80009d4:	f403 3100 	and.w	r1, r3, #131072	; 0x20000
 80009d8:	9101      	str	r1, [sp, #4]
 80009da:	9800      	ldr	r0, [sp, #0]
 80009dc:	1c43      	adds	r3, r0, #1
 80009de:	9300      	str	r3, [sp, #0]
 80009e0:	9901      	ldr	r1, [sp, #4]
 80009e2:	2900      	cmp	r1, #0
 80009e4:	d0f1      	beq.n	80009ca <SystemInit+0x52>
 80009e6:	f44f 5280 	mov.w	r2, #4096	; 0x1000
 80009ea:	f2c4 0202 	movt	r2, #16386	; 0x4002
 80009ee:	6813      	ldr	r3, [r2, #0]
 80009f0:	f413 3100 	ands.w	r1, r3, #131072	; 0x20000
 80009f4:	d00d      	beq.n	8000a12 <SystemInit+0x9a>
 80009f6:	2001      	movs	r0, #1
 80009f8:	9001      	str	r0, [sp, #4]
 80009fa:	9a01      	ldr	r2, [sp, #4]
 80009fc:	2a01      	cmp	r2, #1
 80009fe:	d00c      	beq.n	8000a1a <SystemInit+0xa2>
 8000a00:	f44f 406d 	mov.w	r0, #60672	; 0xed00
 8000a04:	f2ce 0000 	movt	r0, #57344	; 0xe000
 8000a08:	f04f 6200 	mov.w	r2, #134217728	; 0x8000000
 8000a0c:	6082      	str	r2, [r0, #8]
 8000a0e:	b002      	add	sp, #8
 8000a10:	4770      	bx	lr
 8000a12:	9101      	str	r1, [sp, #4]
 8000a14:	9a01      	ldr	r2, [sp, #4]
 8000a16:	2a01      	cmp	r2, #1
 8000a18:	d1f2      	bne.n	8000a00 <SystemInit+0x88>
 8000a1a:	f44f 5200 	mov.w	r2, #8192	; 0x2000
 8000a1e:	f2c4 0202 	movt	r2, #16386	; 0x4002
 8000a22:	6811      	ldr	r1, [r2, #0]
 8000a24:	f44f 5380 	mov.w	r3, #4096	; 0x1000
 8000a28:	f041 0010 	orr.w	r0, r1, #16
 8000a2c:	6010      	str	r0, [r2, #0]
 8000a2e:	6811      	ldr	r1, [r2, #0]
 8000a30:	f2c4 0302 	movt	r3, #16386	; 0x4002
 8000a34:	f021 0003 	bic.w	r0, r1, #3
 8000a38:	6010      	str	r0, [r2, #0]
 8000a3a:	6810      	ldr	r0, [r2, #0]
 8000a3c:	4619      	mov	r1, r3
 8000a3e:	f040 0002 	orr.w	r0, r0, #2
 8000a42:	6010      	str	r0, [r2, #0]
 8000a44:	685a      	ldr	r2, [r3, #4]
 8000a46:	605a      	str	r2, [r3, #4]
 8000a48:	6858      	ldr	r0, [r3, #4]
 8000a4a:	6058      	str	r0, [r3, #4]
 8000a4c:	685a      	ldr	r2, [r3, #4]
 8000a4e:	f442 6080 	orr.w	r0, r2, #1024	; 0x400
 8000a52:	6058      	str	r0, [r3, #4]
 8000a54:	685a      	ldr	r2, [r3, #4]
 8000a56:	f422 107c 	bic.w	r0, r2, #4128768	; 0x3f0000
 8000a5a:	6058      	str	r0, [r3, #4]
 8000a5c:	685a      	ldr	r2, [r3, #4]
 8000a5e:	f442 10e8 	orr.w	r0, r2, #1900544	; 0x1d0000
 8000a62:	6058      	str	r0, [r3, #4]
 8000a64:	681a      	ldr	r2, [r3, #0]
 8000a66:	f042 7080 	orr.w	r0, r2, #16777216	; 0x1000000
 8000a6a:	6018      	str	r0, [r3, #0]
 8000a6c:	680a      	ldr	r2, [r1, #0]
 8000a6e:	f44f 5380 	mov.w	r3, #4096	; 0x1000
 8000a72:	0192      	lsls	r2, r2, #6
 8000a74:	f2c4 0302 	movt	r3, #16386	; 0x4002
 8000a78:	d5f8      	bpl.n	8000a6c <SystemInit+0xf4>
 8000a7a:	6859      	ldr	r1, [r3, #4]
 8000a7c:	4618      	mov	r0, r3
 8000a7e:	f021 0203 	bic.w	r2, r1, #3
 8000a82:	605a      	str	r2, [r3, #4]
 8000a84:	6859      	ldr	r1, [r3, #4]
 8000a86:	f041 0202 	orr.w	r2, r1, #2
 8000a8a:	605a      	str	r2, [r3, #4]
 8000a8c:	6843      	ldr	r3, [r0, #4]
 8000a8e:	f003 010c 	and.w	r1, r3, #12
 8000a92:	2908      	cmp	r1, #8
 8000a94:	d1fa      	bne.n	8000a8c <SystemInit+0x114>
 8000a96:	e7b3      	b.n	8000a00 <SystemInit+0x88>

08000a98 <RCC_USBCLKConfig>:
 8000a98:	2801      	cmp	r0, #1
 8000a9a:	b510      	push	{r4, lr}
 8000a9c:	4604      	mov	r4, r0
 8000a9e:	d904      	bls.n	8000aaa <RCC_USBCLKConfig+0x12>
 8000aa0:	4804      	ldr	r0, [pc, #16]	; (8000ab4 <RCC_USBCLKConfig+0x1c>)
 8000aa2:	f240 21db 	movw	r1, #731	; 0x2db
 8000aa6:	f7ff fc4d 	bl	8000344 <assert_failed>
 8000aaa:	23d8      	movs	r3, #216	; 0xd8
 8000aac:	f2c4 2342 	movt	r3, #16962	; 0x4242
 8000ab0:	601c      	str	r4, [r3, #0]
 8000ab2:	bd10      	pop	{r4, pc}
 8000ab4:	080086d8 	.word	0x080086d8

08000ab8 <RCC_ADCCLKConfig>:
 8000ab8:	b510      	push	{r4, lr}
 8000aba:	4604      	mov	r4, r0
 8000abc:	b168      	cbz	r0, 8000ada <RCC_ADCCLKConfig+0x22>
 8000abe:	f5b0 4f80 	cmp.w	r0, #16384	; 0x4000
 8000ac2:	d00a      	beq.n	8000ada <RCC_ADCCLKConfig+0x22>
 8000ac4:	f5b0 4f00 	cmp.w	r0, #32768	; 0x8000
 8000ac8:	d007      	beq.n	8000ada <RCC_ADCCLKConfig+0x22>
 8000aca:	f5b0 4f40 	cmp.w	r0, #49152	; 0xc000
 8000ace:	d004      	beq.n	8000ada <RCC_ADCCLKConfig+0x22>
 8000ad0:	4807      	ldr	r0, [pc, #28]	; (8000af0 <RCC_ADCCLKConfig+0x38>)
 8000ad2:	f240 3102 	movw	r1, #770	; 0x302
 8000ad6:	f7ff fc35 	bl	8000344 <assert_failed>
 8000ada:	f44f 5380 	mov.w	r3, #4096	; 0x1000
 8000ade:	f2c4 0302 	movt	r3, #16386	; 0x4002
 8000ae2:	685a      	ldr	r2, [r3, #4]
 8000ae4:	f422 4040 	bic.w	r0, r2, #49152	; 0xc000
 8000ae8:	4304      	orrs	r4, r0
 8000aea:	605c      	str	r4, [r3, #4]
 8000aec:	bd10      	pop	{r4, pc}
 8000aee:	bf00      	nop
 8000af0:	080086d8 	.word	0x080086d8

08000af4 <RCC_GetClocksFreq>:
 8000af4:	f44f 5380 	mov.w	r3, #4096	; 0x1000
 8000af8:	f2c4 0302 	movt	r3, #16386	; 0x4002
 8000afc:	685a      	ldr	r2, [r3, #4]
 8000afe:	b410      	push	{r4}
 8000b00:	f002 010c 	and.w	r1, r2, #12
 8000b04:	2904      	cmp	r1, #4
 8000b06:	d001      	beq.n	8000b0c <RCC_GetClocksFreq+0x18>
 8000b08:	2908      	cmp	r1, #8
 8000b0a:	d028      	beq.n	8000b5e <RCC_GetClocksFreq+0x6a>
 8000b0c:	f44f 5290 	mov.w	r2, #4608	; 0x1200
 8000b10:	f2c0 027a 	movt	r2, #122	; 0x7a
 8000b14:	6002      	str	r2, [r0, #0]
 8000b16:	f44f 5380 	mov.w	r3, #4096	; 0x1000
 8000b1a:	f2c4 0302 	movt	r3, #16386	; 0x4002
 8000b1e:	685c      	ldr	r4, [r3, #4]
 8000b20:	491c      	ldr	r1, [pc, #112]	; (8000b94 <RCC_GetClocksFreq+0xa0>)
 8000b22:	f3c4 1403 	ubfx	r4, r4, #4, #4
 8000b26:	5d0c      	ldrb	r4, [r1, r4]
 8000b28:	fa22 f204 	lsr.w	r2, r2, r4
 8000b2c:	6042      	str	r2, [r0, #4]
 8000b2e:	685c      	ldr	r4, [r3, #4]
 8000b30:	f3c4 2402 	ubfx	r4, r4, #8, #3
 8000b34:	5d0c      	ldrb	r4, [r1, r4]
 8000b36:	fa22 f404 	lsr.w	r4, r2, r4
 8000b3a:	6084      	str	r4, [r0, #8]
 8000b3c:	685c      	ldr	r4, [r3, #4]
 8000b3e:	f3c4 24c2 	ubfx	r4, r4, #11, #3
 8000b42:	5d09      	ldrb	r1, [r1, r4]
 8000b44:	fa22 f201 	lsr.w	r2, r2, r1
 8000b48:	60c2      	str	r2, [r0, #12]
 8000b4a:	685b      	ldr	r3, [r3, #4]
 8000b4c:	4912      	ldr	r1, [pc, #72]	; (8000b98 <RCC_GetClocksFreq+0xa4>)
 8000b4e:	f3c3 3381 	ubfx	r3, r3, #14, #2
 8000b52:	5ccb      	ldrb	r3, [r1, r3]
 8000b54:	fbb2 f2f3 	udiv	r2, r2, r3
 8000b58:	6102      	str	r2, [r0, #16]
 8000b5a:	bc10      	pop	{r4}
 8000b5c:	4770      	bx	lr
 8000b5e:	685c      	ldr	r4, [r3, #4]
 8000b60:	6859      	ldr	r1, [r3, #4]
 8000b62:	f3c4 4283 	ubfx	r2, r4, #18, #4
 8000b66:	3202      	adds	r2, #2
 8000b68:	03c9      	lsls	r1, r1, #15
 8000b6a:	d50a      	bpl.n	8000b82 <RCC_GetClocksFreq+0x8e>
 8000b6c:	685b      	ldr	r3, [r3, #4]
 8000b6e:	039b      	lsls	r3, r3, #14
 8000b70:	d407      	bmi.n	8000b82 <RCC_GetClocksFreq+0x8e>
 8000b72:	f44f 5490 	mov.w	r4, #4608	; 0x1200
 8000b76:	f2c0 047a 	movt	r4, #122	; 0x7a
 8000b7a:	fb04 f202 	mul.w	r2, r4, r2
 8000b7e:	6002      	str	r2, [r0, #0]
 8000b80:	e7c9      	b.n	8000b16 <RCC_GetClocksFreq+0x22>
 8000b82:	f44f 6110 	mov.w	r1, #2304	; 0x900
 8000b86:	f2c0 013d 	movt	r1, #61	; 0x3d
 8000b8a:	fb01 f202 	mul.w	r2, r1, r2
 8000b8e:	6002      	str	r2, [r0, #0]
 8000b90:	e7c1      	b.n	8000b16 <RCC_GetClocksFreq+0x22>
 8000b92:	bf00      	nop
 8000b94:	20000020 	.word	0x20000020
 8000b98:	2000001c 	.word	0x2000001c

08000b9c <RCC_AHBPeriphClockCmd>:
 8000b9c:	b538      	push	{r3, r4, r5, lr}
 8000b9e:	f420 63aa 	bic.w	r3, r0, #1360	; 0x550
 8000ba2:	4604      	mov	r4, r0
 8000ba4:	f023 0007 	bic.w	r0, r3, #7
 8000ba8:	460d      	mov	r5, r1
 8000baa:	b978      	cbnz	r0, 8000bcc <RCC_AHBPeriphClockCmd+0x30>
 8000bac:	b174      	cbz	r4, 8000bcc <RCC_AHBPeriphClockCmd+0x30>
 8000bae:	2d01      	cmp	r5, #1
 8000bb0:	d913      	bls.n	8000bda <RCC_AHBPeriphClockCmd+0x3e>
 8000bb2:	480f      	ldr	r0, [pc, #60]	; (8000bf0 <RCC_AHBPeriphClockCmd+0x54>)
 8000bb4:	f240 412c 	movw	r1, #1068	; 0x42c
 8000bb8:	f7ff fbc4 	bl	8000344 <assert_failed>
 8000bbc:	f44f 5380 	mov.w	r3, #4096	; 0x1000
 8000bc0:	f2c4 0302 	movt	r3, #16386	; 0x4002
 8000bc4:	6958      	ldr	r0, [r3, #20]
 8000bc6:	4304      	orrs	r4, r0
 8000bc8:	615c      	str	r4, [r3, #20]
 8000bca:	bd38      	pop	{r3, r4, r5, pc}
 8000bcc:	4808      	ldr	r0, [pc, #32]	; (8000bf0 <RCC_AHBPeriphClockCmd+0x54>)
 8000bce:	f240 412b 	movw	r1, #1067	; 0x42b
 8000bd2:	f7ff fbb7 	bl	8000344 <assert_failed>
 8000bd6:	2d01      	cmp	r5, #1
 8000bd8:	d8eb      	bhi.n	8000bb2 <RCC_AHBPeriphClockCmd+0x16>
 8000bda:	2d00      	cmp	r5, #0
 8000bdc:	d1ee      	bne.n	8000bbc <RCC_AHBPeriphClockCmd+0x20>
 8000bde:	f44f 5180 	mov.w	r1, #4096	; 0x1000
 8000be2:	f2c4 0102 	movt	r1, #16386	; 0x4002
 8000be6:	694a      	ldr	r2, [r1, #20]
 8000be8:	ea22 0404 	bic.w	r4, r2, r4
 8000bec:	614c      	str	r4, [r1, #20]
 8000bee:	bd38      	pop	{r3, r4, r5, pc}
 8000bf0:	080086d8 	.word	0x080086d8

08000bf4 <RCC_APB2PeriphClockCmd>:
 8000bf4:	b538      	push	{r3, r4, r5, lr}
 8000bf6:	2302      	movs	r3, #2
 8000bf8:	f6cf 73c0 	movt	r3, #65472	; 0xffc0
 8000bfc:	4003      	ands	r3, r0
 8000bfe:	4604      	mov	r4, r0
 8000c00:	460d      	mov	r5, r1
 8000c02:	b97b      	cbnz	r3, 8000c24 <RCC_APB2PeriphClockCmd+0x30>
 8000c04:	b170      	cbz	r0, 8000c24 <RCC_APB2PeriphClockCmd+0x30>
 8000c06:	2d01      	cmp	r5, #1
 8000c08:	d913      	bls.n	8000c32 <RCC_APB2PeriphClockCmd+0x3e>
 8000c0a:	480f      	ldr	r0, [pc, #60]	; (8000c48 <RCC_APB2PeriphClockCmd+0x54>)
 8000c0c:	f240 414b 	movw	r1, #1099	; 0x44b
 8000c10:	f7ff fb98 	bl	8000344 <assert_failed>
 8000c14:	f44f 5180 	mov.w	r1, #4096	; 0x1000
 8000c18:	f2c4 0102 	movt	r1, #16386	; 0x4002
 8000c1c:	698b      	ldr	r3, [r1, #24]
 8000c1e:	431c      	orrs	r4, r3
 8000c20:	618c      	str	r4, [r1, #24]
 8000c22:	bd38      	pop	{r3, r4, r5, pc}
 8000c24:	4808      	ldr	r0, [pc, #32]	; (8000c48 <RCC_APB2PeriphClockCmd+0x54>)
 8000c26:	f240 414a 	movw	r1, #1098	; 0x44a
 8000c2a:	f7ff fb8b 	bl	8000344 <assert_failed>
 8000c2e:	2d01      	cmp	r5, #1
 8000c30:	d8eb      	bhi.n	8000c0a <RCC_APB2PeriphClockCmd+0x16>
 8000c32:	2d00      	cmp	r5, #0
 8000c34:	d1ee      	bne.n	8000c14 <RCC_APB2PeriphClockCmd+0x20>
 8000c36:	f44f 5080 	mov.w	r0, #4096	; 0x1000
 8000c3a:	f2c4 0002 	movt	r0, #16386	; 0x4002
 8000c3e:	6982      	ldr	r2, [r0, #24]
 8000c40:	ea22 0404 	bic.w	r4, r2, r4
 8000c44:	6184      	str	r4, [r0, #24]
 8000c46:	bd38      	pop	{r3, r4, r5, pc}
 8000c48:	080086d8 	.word	0x080086d8

08000c4c <RCC_APB1PeriphClockCmd>:
 8000c4c:	b538      	push	{r3, r4, r5, lr}
 8000c4e:	f44f 5358 	mov.w	r3, #13824	; 0x3600
 8000c52:	f2c8 1301 	movt	r3, #33025	; 0x8101
 8000c56:	4003      	ands	r3, r0
 8000c58:	4604      	mov	r4, r0
 8000c5a:	460d      	mov	r5, r1
 8000c5c:	b97b      	cbnz	r3, 8000c7e <RCC_APB1PeriphClockCmd+0x32>
 8000c5e:	b170      	cbz	r0, 8000c7e <RCC_APB1PeriphClockCmd+0x32>
 8000c60:	2d01      	cmp	r5, #1
 8000c62:	d913      	bls.n	8000c8c <RCC_APB1PeriphClockCmd+0x40>
 8000c64:	480f      	ldr	r0, [pc, #60]	; (8000ca4 <RCC_APB1PeriphClockCmd+0x58>)
 8000c66:	f240 416a 	movw	r1, #1130	; 0x46a
 8000c6a:	f7ff fb6b 	bl	8000344 <assert_failed>
 8000c6e:	f44f 5180 	mov.w	r1, #4096	; 0x1000
 8000c72:	f2c4 0102 	movt	r1, #16386	; 0x4002
 8000c76:	69cb      	ldr	r3, [r1, #28]
 8000c78:	431c      	orrs	r4, r3
 8000c7a:	61cc      	str	r4, [r1, #28]
 8000c7c:	bd38      	pop	{r3, r4, r5, pc}
 8000c7e:	4809      	ldr	r0, [pc, #36]	; (8000ca4 <RCC_APB1PeriphClockCmd+0x58>)
 8000c80:	f240 4169 	movw	r1, #1129	; 0x469
 8000c84:	f7ff fb5e 	bl	8000344 <assert_failed>
 8000c88:	2d01      	cmp	r5, #1
 8000c8a:	d8eb      	bhi.n	8000c64 <RCC_APB1PeriphClockCmd+0x18>
 8000c8c:	2d00      	cmp	r5, #0
 8000c8e:	d1ee      	bne.n	8000c6e <RCC_APB1PeriphClockCmd+0x22>
 8000c90:	f44f 5080 	mov.w	r0, #4096	; 0x1000
 8000c94:	f2c4 0002 	movt	r0, #16386	; 0x4002
 8000c98:	69c2      	ldr	r2, [r0, #28]
 8000c9a:	ea22 0404 	bic.w	r4, r2, r4
 8000c9e:	61c4      	str	r4, [r0, #28]
 8000ca0:	bd38      	pop	{r3, r4, r5, pc}
 8000ca2:	bf00      	nop
 8000ca4:	080086d8 	.word	0x080086d8

08000ca8 <EXTI_ClearITPendingBit>:
 8000ca8:	0d03      	lsrs	r3, r0, #20
 8000caa:	b510      	push	{r4, lr}
 8000cac:	4604      	mov	r4, r0
 8000cae:	d100      	bne.n	8000cb2 <EXTI_ClearITPendingBit+0xa>
 8000cb0:	b918      	cbnz	r0, 8000cba <EXTI_ClearITPendingBit+0x12>
 8000cb2:	4805      	ldr	r0, [pc, #20]	; (8000cc8 <EXTI_ClearITPendingBit+0x20>)
 8000cb4:	21fc      	movs	r1, #252	; 0xfc
 8000cb6:	f7ff fb45 	bl	8000344 <assert_failed>
 8000cba:	f44f 6380 	mov.w	r3, #1024	; 0x400
 8000cbe:	f2c4 0301 	movt	r3, #16385	; 0x4001
 8000cc2:	615c      	str	r4, [r3, #20]
 8000cc4:	bd10      	pop	{r4, pc}
 8000cc6:	bf00      	nop
 8000cc8:	08008714 	.word	0x08008714

08000ccc <ADC_Init>:
 8000ccc:	f44f 5310 	mov.w	r3, #9216	; 0x2400
 8000cd0:	f2c4 0301 	movt	r3, #16385	; 0x4001
 8000cd4:	4298      	cmp	r0, r3
 8000cd6:	b570      	push	{r4, r5, r6, lr}
 8000cd8:	4605      	mov	r5, r0
 8000cda:	460c      	mov	r4, r1
 8000cdc:	d00f      	beq.n	8000cfe <ADC_Init+0x32>
 8000cde:	f44f 5020 	mov.w	r0, #10240	; 0x2800
 8000ce2:	f2c4 0001 	movt	r0, #16385	; 0x4001
 8000ce6:	4285      	cmp	r5, r0
 8000ce8:	d009      	beq.n	8000cfe <ADC_Init+0x32>
 8000cea:	f44f 5170 	mov.w	r1, #15360	; 0x3c00
 8000cee:	f2c4 0101 	movt	r1, #16385	; 0x4001
 8000cf2:	428d      	cmp	r5, r1
 8000cf4:	d003      	beq.n	8000cfe <ADC_Init+0x32>
 8000cf6:	4842      	ldr	r0, [pc, #264]	; (8000e00 <ADC_Init+0x134>)
 8000cf8:	21df      	movs	r1, #223	; 0xdf
 8000cfa:	f7ff fb23 	bl	8000344 <assert_failed>
 8000cfe:	6822      	ldr	r2, [r4, #0]
 8000d00:	b1f2      	cbz	r2, 8000d40 <ADC_Init+0x74>
 8000d02:	f5b2 3f80 	cmp.w	r2, #65536	; 0x10000
 8000d06:	d01b      	beq.n	8000d40 <ADC_Init+0x74>
 8000d08:	f5b2 3f00 	cmp.w	r2, #131072	; 0x20000
 8000d0c:	d018      	beq.n	8000d40 <ADC_Init+0x74>
 8000d0e:	f5b2 3f40 	cmp.w	r2, #196608	; 0x30000
 8000d12:	d015      	beq.n	8000d40 <ADC_Init+0x74>
 8000d14:	f5b2 2f80 	cmp.w	r2, #262144	; 0x40000
 8000d18:	d012      	beq.n	8000d40 <ADC_Init+0x74>
 8000d1a:	f5b2 2fa0 	cmp.w	r2, #327680	; 0x50000
 8000d1e:	d00f      	beq.n	8000d40 <ADC_Init+0x74>
 8000d20:	f5b2 2fc0 	cmp.w	r2, #393216	; 0x60000
 8000d24:	d00c      	beq.n	8000d40 <ADC_Init+0x74>
 8000d26:	f5b2 2fe0 	cmp.w	r2, #458752	; 0x70000
 8000d2a:	d009      	beq.n	8000d40 <ADC_Init+0x74>
 8000d2c:	f5b2 2f00 	cmp.w	r2, #524288	; 0x80000
 8000d30:	d006      	beq.n	8000d40 <ADC_Init+0x74>
 8000d32:	f5b2 2f10 	cmp.w	r2, #589824	; 0x90000
 8000d36:	d003      	beq.n	8000d40 <ADC_Init+0x74>
 8000d38:	4831      	ldr	r0, [pc, #196]	; (8000e00 <ADC_Init+0x134>)
 8000d3a:	21e0      	movs	r1, #224	; 0xe0
 8000d3c:	f7ff fb02 	bl	8000344 <assert_failed>
 8000d40:	7926      	ldrb	r6, [r4, #4]
 8000d42:	2e01      	cmp	r6, #1
 8000d44:	d903      	bls.n	8000d4e <ADC_Init+0x82>
 8000d46:	482e      	ldr	r0, [pc, #184]	; (8000e00 <ADC_Init+0x134>)
 8000d48:	21e1      	movs	r1, #225	; 0xe1
 8000d4a:	f7ff fafb 	bl	8000344 <assert_failed>
 8000d4e:	7963      	ldrb	r3, [r4, #5]
 8000d50:	2b01      	cmp	r3, #1
 8000d52:	d903      	bls.n	8000d5c <ADC_Init+0x90>
 8000d54:	482a      	ldr	r0, [pc, #168]	; (8000e00 <ADC_Init+0x134>)
 8000d56:	21e2      	movs	r1, #226	; 0xe2
 8000d58:	f7ff faf4 	bl	8000344 <assert_failed>
 8000d5c:	68a0      	ldr	r0, [r4, #8]
 8000d5e:	b1c0      	cbz	r0, 8000d92 <ADC_Init+0xc6>
 8000d60:	f5b0 3f00 	cmp.w	r0, #131072	; 0x20000
 8000d64:	d015      	beq.n	8000d92 <ADC_Init+0xc6>
 8000d66:	f5b0 2f80 	cmp.w	r0, #262144	; 0x40000
 8000d6a:	d012      	beq.n	8000d92 <ADC_Init+0xc6>
 8000d6c:	f5b0 2fc0 	cmp.w	r0, #393216	; 0x60000
 8000d70:	d00f      	beq.n	8000d92 <ADC_Init+0xc6>
 8000d72:	f5b0 2f00 	cmp.w	r0, #524288	; 0x80000
 8000d76:	d00c      	beq.n	8000d92 <ADC_Init+0xc6>
 8000d78:	f5b0 2f20 	cmp.w	r0, #655360	; 0xa0000
 8000d7c:	d009      	beq.n	8000d92 <ADC_Init+0xc6>
 8000d7e:	f5b0 2f40 	cmp.w	r0, #786432	; 0xc0000
 8000d82:	d006      	beq.n	8000d92 <ADC_Init+0xc6>
 8000d84:	f5b0 2f60 	cmp.w	r0, #917504	; 0xe0000
 8000d88:	d003      	beq.n	8000d92 <ADC_Init+0xc6>
 8000d8a:	481d      	ldr	r0, [pc, #116]	; (8000e00 <ADC_Init+0x134>)
 8000d8c:	21e3      	movs	r1, #227	; 0xe3
 8000d8e:	f7ff fad9 	bl	8000344 <assert_failed>
 8000d92:	68e1      	ldr	r1, [r4, #12]
 8000d94:	b131      	cbz	r1, 8000da4 <ADC_Init+0xd8>
 8000d96:	f5b1 6f00 	cmp.w	r1, #2048	; 0x800
 8000d9a:	d003      	beq.n	8000da4 <ADC_Init+0xd8>
 8000d9c:	4818      	ldr	r0, [pc, #96]	; (8000e00 <ADC_Init+0x134>)
 8000d9e:	21e4      	movs	r1, #228	; 0xe4
 8000da0:	f7ff fad0 	bl	8000344 <assert_failed>
 8000da4:	7c22      	ldrb	r2, [r4, #16]
 8000da6:	1e56      	subs	r6, r2, #1
 8000da8:	2e0f      	cmp	r6, #15
 8000daa:	d903      	bls.n	8000db4 <ADC_Init+0xe8>
 8000dac:	4814      	ldr	r0, [pc, #80]	; (8000e00 <ADC_Init+0x134>)
 8000dae:	21e5      	movs	r1, #229	; 0xe5
 8000db0:	f7ff fac8 	bl	8000344 <assert_failed>
 8000db4:	6868      	ldr	r0, [r5, #4]
 8000db6:	6823      	ldr	r3, [r4, #0]
 8000db8:	f420 2170 	bic.w	r1, r0, #983040	; 0xf0000
 8000dbc:	7922      	ldrb	r2, [r4, #4]
 8000dbe:	f421 7680 	bic.w	r6, r1, #256	; 0x100
 8000dc2:	ea46 0003 	orr.w	r0, r6, r3
 8000dc6:	ea40 2302 	orr.w	r3, r0, r2, lsl #8
 8000dca:	606b      	str	r3, [r5, #4]
 8000dcc:	68ae      	ldr	r6, [r5, #8]
 8000dce:	68e2      	ldr	r2, [r4, #12]
 8000dd0:	68a1      	ldr	r1, [r4, #8]
 8000dd2:	f24f 73fd 	movw	r3, #63485	; 0xf7fd
 8000dd6:	f6cf 73f1 	movt	r3, #65521	; 0xfff1
 8000dda:	7960      	ldrb	r0, [r4, #5]
 8000ddc:	4311      	orrs	r1, r2
 8000dde:	4033      	ands	r3, r6
 8000de0:	ea41 0203 	orr.w	r2, r1, r3
 8000de4:	ea42 0340 	orr.w	r3, r2, r0, lsl #1
 8000de8:	60ab      	str	r3, [r5, #8]
 8000dea:	7c20      	ldrb	r0, [r4, #16]
 8000dec:	6ae9      	ldr	r1, [r5, #44]	; 0x2c
 8000dee:	1e43      	subs	r3, r0, #1
 8000df0:	f421 0270 	bic.w	r2, r1, #15728640	; 0xf00000
 8000df4:	b2d8      	uxtb	r0, r3
 8000df6:	ea42 5100 	orr.w	r1, r2, r0, lsl #20
 8000dfa:	62e9      	str	r1, [r5, #44]	; 0x2c
 8000dfc:	bd70      	pop	{r4, r5, r6, pc}
 8000dfe:	bf00      	nop
 8000e00:	08008750 	.word	0x08008750

08000e04 <ADC_Cmd>:
 8000e04:	b538      	push	{r3, r4, r5, lr}
 8000e06:	f44f 5310 	mov.w	r3, #9216	; 0x2400
 8000e0a:	f2c4 0301 	movt	r3, #16385	; 0x4001
 8000e0e:	4298      	cmp	r0, r3
 8000e10:	4604      	mov	r4, r0
 8000e12:	460d      	mov	r5, r1
 8000e14:	d010      	beq.n	8000e38 <ADC_Cmd+0x34>
 8000e16:	f44f 5020 	mov.w	r0, #10240	; 0x2800
 8000e1a:	f2c4 0001 	movt	r0, #16385	; 0x4001
 8000e1e:	4284      	cmp	r4, r0
 8000e20:	d00a      	beq.n	8000e38 <ADC_Cmd+0x34>
 8000e22:	f44f 5170 	mov.w	r1, #15360	; 0x3c00
 8000e26:	f2c4 0101 	movt	r1, #16385	; 0x4001
 8000e2a:	428c      	cmp	r4, r1
 8000e2c:	d004      	beq.n	8000e38 <ADC_Cmd+0x34>
 8000e2e:	480c      	ldr	r0, [pc, #48]	; (8000e60 <ADC_Cmd+0x5c>)
 8000e30:	f44f 7197 	mov.w	r1, #302	; 0x12e
 8000e34:	f7ff fa86 	bl	8000344 <assert_failed>
 8000e38:	2d01      	cmp	r5, #1
 8000e3a:	d909      	bls.n	8000e50 <ADC_Cmd+0x4c>
 8000e3c:	4808      	ldr	r0, [pc, #32]	; (8000e60 <ADC_Cmd+0x5c>)
 8000e3e:	f240 112f 	movw	r1, #303	; 0x12f
 8000e42:	f7ff fa7f 	bl	8000344 <assert_failed>
 8000e46:	68a0      	ldr	r0, [r4, #8]
 8000e48:	f040 0101 	orr.w	r1, r0, #1
 8000e4c:	60a1      	str	r1, [r4, #8]
 8000e4e:	bd38      	pop	{r3, r4, r5, pc}
 8000e50:	2d00      	cmp	r5, #0
 8000e52:	d1f8      	bne.n	8000e46 <ADC_Cmd+0x42>
 8000e54:	68a2      	ldr	r2, [r4, #8]
 8000e56:	f022 0301 	bic.w	r3, r2, #1
 8000e5a:	60a3      	str	r3, [r4, #8]
 8000e5c:	bd38      	pop	{r3, r4, r5, pc}
 8000e5e:	bf00      	nop
 8000e60:	08008750 	.word	0x08008750

08000e64 <ADC_DMACmd>:
 8000e64:	b538      	push	{r3, r4, r5, lr}
 8000e66:	f44f 5310 	mov.w	r3, #9216	; 0x2400
 8000e6a:	f2c4 0301 	movt	r3, #16385	; 0x4001
 8000e6e:	4298      	cmp	r0, r3
 8000e70:	4604      	mov	r4, r0
 8000e72:	460d      	mov	r5, r1
 8000e74:	d00a      	beq.n	8000e8c <ADC_DMACmd+0x28>
 8000e76:	f44f 5070 	mov.w	r0, #15360	; 0x3c00
 8000e7a:	f2c4 0001 	movt	r0, #16385	; 0x4001
 8000e7e:	4284      	cmp	r4, r0
 8000e80:	d004      	beq.n	8000e8c <ADC_DMACmd+0x28>
 8000e82:	480c      	ldr	r0, [pc, #48]	; (8000eb4 <ADC_DMACmd+0x50>)
 8000e84:	f240 1147 	movw	r1, #327	; 0x147
 8000e88:	f7ff fa5c 	bl	8000344 <assert_failed>
 8000e8c:	2d01      	cmp	r5, #1
 8000e8e:	d909      	bls.n	8000ea4 <ADC_DMACmd+0x40>
 8000e90:	4808      	ldr	r0, [pc, #32]	; (8000eb4 <ADC_DMACmd+0x50>)
 8000e92:	f44f 71a4 	mov.w	r1, #328	; 0x148
 8000e96:	f7ff fa55 	bl	8000344 <assert_failed>
 8000e9a:	68a3      	ldr	r3, [r4, #8]
 8000e9c:	f443 7080 	orr.w	r0, r3, #256	; 0x100
 8000ea0:	60a0      	str	r0, [r4, #8]
 8000ea2:	bd38      	pop	{r3, r4, r5, pc}
 8000ea4:	2d00      	cmp	r5, #0
 8000ea6:	d1f8      	bne.n	8000e9a <ADC_DMACmd+0x36>
 8000ea8:	68a1      	ldr	r1, [r4, #8]
 8000eaa:	f421 7280 	bic.w	r2, r1, #256	; 0x100
 8000eae:	60a2      	str	r2, [r4, #8]
 8000eb0:	bd38      	pop	{r3, r4, r5, pc}
 8000eb2:	bf00      	nop
 8000eb4:	08008750 	.word	0x08008750

08000eb8 <ADC_ResetCalibration>:
 8000eb8:	f44f 5310 	mov.w	r3, #9216	; 0x2400
 8000ebc:	f2c4 0301 	movt	r3, #16385	; 0x4001
 8000ec0:	4298      	cmp	r0, r3
 8000ec2:	b510      	push	{r4, lr}
 8000ec4:	4604      	mov	r4, r0
 8000ec6:	d010      	beq.n	8000eea <ADC_ResetCalibration+0x32>
 8000ec8:	f44f 5020 	mov.w	r0, #10240	; 0x2800
 8000ecc:	f2c4 0001 	movt	r0, #16385	; 0x4001
 8000ed0:	4284      	cmp	r4, r0
 8000ed2:	d00a      	beq.n	8000eea <ADC_ResetCalibration+0x32>
 8000ed4:	f44f 5170 	mov.w	r1, #15360	; 0x3c00
 8000ed8:	f2c4 0101 	movt	r1, #16385	; 0x4001
 8000edc:	428c      	cmp	r4, r1
 8000ede:	d004      	beq.n	8000eea <ADC_ResetCalibration+0x32>
 8000ee0:	4804      	ldr	r0, [pc, #16]	; (8000ef4 <ADC_ResetCalibration+0x3c>)
 8000ee2:	f44f 71bf 	mov.w	r1, #382	; 0x17e
 8000ee6:	f7ff fa2d 	bl	8000344 <assert_failed>
 8000eea:	68a2      	ldr	r2, [r4, #8]
 8000eec:	f042 0308 	orr.w	r3, r2, #8
 8000ef0:	60a3      	str	r3, [r4, #8]
 8000ef2:	bd10      	pop	{r4, pc}
 8000ef4:	08008750 	.word	0x08008750

08000ef8 <ADC_GetResetCalibrationStatus>:
 8000ef8:	f44f 5310 	mov.w	r3, #9216	; 0x2400
 8000efc:	f2c4 0301 	movt	r3, #16385	; 0x4001
 8000f00:	4298      	cmp	r0, r3
 8000f02:	b510      	push	{r4, lr}
 8000f04:	4604      	mov	r4, r0
 8000f06:	d010      	beq.n	8000f2a <ADC_GetResetCalibrationStatus+0x32>
 8000f08:	f44f 5020 	mov.w	r0, #10240	; 0x2800
 8000f0c:	f2c4 0001 	movt	r0, #16385	; 0x4001
 8000f10:	4284      	cmp	r4, r0
 8000f12:	d00a      	beq.n	8000f2a <ADC_GetResetCalibrationStatus+0x32>
 8000f14:	f44f 5170 	mov.w	r1, #15360	; 0x3c00
 8000f18:	f2c4 0101 	movt	r1, #16385	; 0x4001
 8000f1c:	428c      	cmp	r4, r1
 8000f1e:	d004      	beq.n	8000f2a <ADC_GetResetCalibrationStatus+0x32>
 8000f20:	4804      	ldr	r0, [pc, #16]	; (8000f34 <ADC_GetResetCalibrationStatus+0x3c>)
 8000f22:	f44f 71c6 	mov.w	r1, #396	; 0x18c
 8000f26:	f7ff fa0d 	bl	8000344 <assert_failed>
 8000f2a:	68a2      	ldr	r2, [r4, #8]
 8000f2c:	f3c2 00c0 	ubfx	r0, r2, #3, #1
 8000f30:	bd10      	pop	{r4, pc}
 8000f32:	bf00      	nop
 8000f34:	08008750 	.word	0x08008750

08000f38 <ADC_StartCalibration>:
 8000f38:	f44f 5310 	mov.w	r3, #9216	; 0x2400
 8000f3c:	f2c4 0301 	movt	r3, #16385	; 0x4001
 8000f40:	4298      	cmp	r0, r3
 8000f42:	b510      	push	{r4, lr}
 8000f44:	4604      	mov	r4, r0
 8000f46:	d010      	beq.n	8000f6a <ADC_StartCalibration+0x32>
 8000f48:	f44f 5020 	mov.w	r0, #10240	; 0x2800
 8000f4c:	f2c4 0001 	movt	r0, #16385	; 0x4001
 8000f50:	4284      	cmp	r4, r0
 8000f52:	d00a      	beq.n	8000f6a <ADC_StartCalibration+0x32>
 8000f54:	f44f 5170 	mov.w	r1, #15360	; 0x3c00
 8000f58:	f2c4 0101 	movt	r1, #16385	; 0x4001
 8000f5c:	428c      	cmp	r4, r1
 8000f5e:	d004      	beq.n	8000f6a <ADC_StartCalibration+0x32>
 8000f60:	4804      	ldr	r0, [pc, #16]	; (8000f74 <ADC_StartCalibration+0x3c>)
 8000f62:	f44f 71d2 	mov.w	r1, #420	; 0x1a4
 8000f66:	f7ff f9ed 	bl	8000344 <assert_failed>
 8000f6a:	68a2      	ldr	r2, [r4, #8]
 8000f6c:	f042 0304 	orr.w	r3, r2, #4
 8000f70:	60a3      	str	r3, [r4, #8]
 8000f72:	bd10      	pop	{r4, pc}
 8000f74:	08008750 	.word	0x08008750

08000f78 <ADC_GetCalibrationStatus>:
 8000f78:	f44f 5310 	mov.w	r3, #9216	; 0x2400
 8000f7c:	f2c4 0301 	movt	r3, #16385	; 0x4001
 8000f80:	4298      	cmp	r0, r3
 8000f82:	b510      	push	{r4, lr}
 8000f84:	4604      	mov	r4, r0
 8000f86:	d010      	beq.n	8000faa <ADC_GetCalibrationStatus+0x32>
 8000f88:	f44f 5020 	mov.w	r0, #10240	; 0x2800
 8000f8c:	f2c4 0001 	movt	r0, #16385	; 0x4001
 8000f90:	4284      	cmp	r4, r0
 8000f92:	d00a      	beq.n	8000faa <ADC_GetCalibrationStatus+0x32>
 8000f94:	f44f 5170 	mov.w	r1, #15360	; 0x3c00
 8000f98:	f2c4 0101 	movt	r1, #16385	; 0x4001
 8000f9c:	428c      	cmp	r4, r1
 8000f9e:	d004      	beq.n	8000faa <ADC_GetCalibrationStatus+0x32>
 8000fa0:	4804      	ldr	r0, [pc, #16]	; (8000fb4 <ADC_GetCalibrationStatus+0x3c>)
 8000fa2:	f44f 71d9 	mov.w	r1, #434	; 0x1b2
 8000fa6:	f7ff f9cd 	bl	8000344 <assert_failed>
 8000faa:	68a2      	ldr	r2, [r4, #8]
 8000fac:	f3c2 0080 	ubfx	r0, r2, #2, #1
 8000fb0:	bd10      	pop	{r4, pc}
 8000fb2:	bf00      	nop
 8000fb4:	08008750 	.word	0x08008750

08000fb8 <ADC_SoftwareStartConvCmd>:
 8000fb8:	b538      	push	{r3, r4, r5, lr}
 8000fba:	f44f 5310 	mov.w	r3, #9216	; 0x2400
 8000fbe:	f2c4 0301 	movt	r3, #16385	; 0x4001
 8000fc2:	4298      	cmp	r0, r3
 8000fc4:	4604      	mov	r4, r0
 8000fc6:	460d      	mov	r5, r1
 8000fc8:	d010      	beq.n	8000fec <ADC_SoftwareStartConvCmd+0x34>
 8000fca:	f44f 5020 	mov.w	r0, #10240	; 0x2800
 8000fce:	f2c4 0001 	movt	r0, #16385	; 0x4001
 8000fd2:	4284      	cmp	r4, r0
 8000fd4:	d00a      	beq.n	8000fec <ADC_SoftwareStartConvCmd+0x34>
 8000fd6:	f44f 5170 	mov.w	r1, #15360	; 0x3c00
 8000fda:	f2c4 0101 	movt	r1, #16385	; 0x4001
 8000fde:	428c      	cmp	r4, r1
 8000fe0:	d004      	beq.n	8000fec <ADC_SoftwareStartConvCmd+0x34>
 8000fe2:	480c      	ldr	r0, [pc, #48]	; (8001014 <ADC_SoftwareStartConvCmd+0x5c>)
 8000fe4:	f44f 71e6 	mov.w	r1, #460	; 0x1cc
 8000fe8:	f7ff f9ac 	bl	8000344 <assert_failed>
 8000fec:	2d01      	cmp	r5, #1
 8000fee:	d909      	bls.n	8001004 <ADC_SoftwareStartConvCmd+0x4c>
 8000ff0:	4808      	ldr	r0, [pc, #32]	; (8001014 <ADC_SoftwareStartConvCmd+0x5c>)
 8000ff2:	f240 11cd 	movw	r1, #461	; 0x1cd
 8000ff6:	f7ff f9a5 	bl	8000344 <assert_failed>
 8000ffa:	68a0      	ldr	r0, [r4, #8]
 8000ffc:	f440 01a0 	orr.w	r1, r0, #5242880	; 0x500000
 8001000:	60a1      	str	r1, [r4, #8]
 8001002:	bd38      	pop	{r3, r4, r5, pc}
 8001004:	2d00      	cmp	r5, #0
 8001006:	d1f8      	bne.n	8000ffa <ADC_SoftwareStartConvCmd+0x42>
 8001008:	68a2      	ldr	r2, [r4, #8]
 800100a:	f422 03a0 	bic.w	r3, r2, #5242880	; 0x500000
 800100e:	60a3      	str	r3, [r4, #8]
 8001010:	bd38      	pop	{r3, r4, r5, pc}
 8001012:	bf00      	nop
 8001014:	08008750 	.word	0x08008750

08001018 <ADC_RegularChannelConfig>:
 8001018:	e92d 41f0 	stmdb	sp!, {r4, r5, r6, r7, r8, lr}
 800101c:	f44f 5710 	mov.w	r7, #9216	; 0x2400
 8001020:	f2c4 0701 	movt	r7, #16385	; 0x4001
 8001024:	42b8      	cmp	r0, r7
 8001026:	4604      	mov	r4, r0
 8001028:	460d      	mov	r5, r1
 800102a:	4616      	mov	r6, r2
 800102c:	4698      	mov	r8, r3
 800102e:	d010      	beq.n	8001052 <ADC_RegularChannelConfig+0x3a>
 8001030:	f44f 5320 	mov.w	r3, #10240	; 0x2800
 8001034:	f2c4 0301 	movt	r3, #16385	; 0x4001
 8001038:	4298      	cmp	r0, r3
 800103a:	d00a      	beq.n	8001052 <ADC_RegularChannelConfig+0x3a>
 800103c:	f44f 5070 	mov.w	r0, #15360	; 0x3c00
 8001040:	f2c4 0001 	movt	r0, #16385	; 0x4001
 8001044:	4284      	cmp	r4, r0
 8001046:	d004      	beq.n	8001052 <ADC_RegularChannelConfig+0x3a>
 8001048:	4835      	ldr	r0, [pc, #212]	; (8001120 <ADC_RegularChannelConfig+0x108>)
 800104a:	f240 2152 	movw	r1, #594	; 0x252
 800104e:	f7ff f979 	bl	8000344 <assert_failed>
 8001052:	2d11      	cmp	r5, #17
 8001054:	d85d      	bhi.n	8001112 <ADC_RegularChannelConfig+0xfa>
 8001056:	1e77      	subs	r7, r6, #1
 8001058:	b2f9      	uxtb	r1, r7
 800105a:	290f      	cmp	r1, #15
 800105c:	d853      	bhi.n	8001106 <ADC_RegularChannelConfig+0xee>
 800105e:	f1b8 0f07 	cmp.w	r8, #7
 8001062:	d84a      	bhi.n	80010fa <ADC_RegularChannelConfig+0xe2>
 8001064:	2d09      	cmp	r5, #9
 8001066:	eb05 0245 	add.w	r2, r5, r5, lsl #1
 800106a:	d91e      	bls.n	80010aa <ADC_RegularChannelConfig+0x92>
 800106c:	3a1e      	subs	r2, #30
 800106e:	2307      	movs	r3, #7
 8001070:	fa03 f302 	lsl.w	r3, r3, r2
 8001074:	fa08 f802 	lsl.w	r8, r8, r2
 8001078:	68e0      	ldr	r0, [r4, #12]
 800107a:	2e06      	cmp	r6, #6
 800107c:	ea20 0103 	bic.w	r1, r0, r3
 8001080:	ea41 0208 	orr.w	r2, r1, r8
 8001084:	60e2      	str	r2, [r4, #12]
 8001086:	d91d      	bls.n	80010c4 <ADC_RegularChannelConfig+0xac>
 8001088:	2e0c      	cmp	r6, #12
 800108a:	eb06 0686 	add.w	r6, r6, r6, lsl #2
 800108e:	d927      	bls.n	80010e0 <ADC_RegularChannelConfig+0xc8>
 8001090:	3e41      	subs	r6, #65	; 0x41
 8001092:	201f      	movs	r0, #31
 8001094:	fa00 f006 	lsl.w	r0, r0, r6
 8001098:	fa05 f506 	lsl.w	r5, r5, r6
 800109c:	6ae3      	ldr	r3, [r4, #44]	; 0x2c
 800109e:	ea23 0600 	bic.w	r6, r3, r0
 80010a2:	432e      	orrs	r6, r5
 80010a4:	62e6      	str	r6, [r4, #44]	; 0x2c
 80010a6:	e8bd 81f0 	ldmia.w	sp!, {r4, r5, r6, r7, r8, pc}
 80010aa:	2307      	movs	r3, #7
 80010ac:	fa03 f302 	lsl.w	r3, r3, r2
 80010b0:	fa08 f802 	lsl.w	r8, r8, r2
 80010b4:	6920      	ldr	r0, [r4, #16]
 80010b6:	2e06      	cmp	r6, #6
 80010b8:	ea20 0103 	bic.w	r1, r0, r3
 80010bc:	ea41 0208 	orr.w	r2, r1, r8
 80010c0:	6122      	str	r2, [r4, #16]
 80010c2:	d8e1      	bhi.n	8001088 <ADC_RegularChannelConfig+0x70>
 80010c4:	eb07 0787 	add.w	r7, r7, r7, lsl #2
 80010c8:	221f      	movs	r2, #31
 80010ca:	fa02 f207 	lsl.w	r2, r2, r7
 80010ce:	fa05 f507 	lsl.w	r5, r5, r7
 80010d2:	6b60      	ldr	r0, [r4, #52]	; 0x34
 80010d4:	ea20 0702 	bic.w	r7, r0, r2
 80010d8:	432f      	orrs	r7, r5
 80010da:	6367      	str	r7, [r4, #52]	; 0x34
 80010dc:	e8bd 81f0 	ldmia.w	sp!, {r4, r5, r6, r7, r8, pc}
 80010e0:	3e23      	subs	r6, #35	; 0x23
 80010e2:	211f      	movs	r1, #31
 80010e4:	fa01 f106 	lsl.w	r1, r1, r6
 80010e8:	fa05 f606 	lsl.w	r6, r5, r6
 80010ec:	6b25      	ldr	r5, [r4, #48]	; 0x30
 80010ee:	ea25 0501 	bic.w	r5, r5, r1
 80010f2:	4335      	orrs	r5, r6
 80010f4:	6325      	str	r5, [r4, #48]	; 0x30
 80010f6:	e8bd 81f0 	ldmia.w	sp!, {r4, r5, r6, r7, r8, pc}
 80010fa:	4809      	ldr	r0, [pc, #36]	; (8001120 <ADC_RegularChannelConfig+0x108>)
 80010fc:	f240 2155 	movw	r1, #597	; 0x255
 8001100:	f7ff f920 	bl	8000344 <assert_failed>
 8001104:	e7ae      	b.n	8001064 <ADC_RegularChannelConfig+0x4c>
 8001106:	4806      	ldr	r0, [pc, #24]	; (8001120 <ADC_RegularChannelConfig+0x108>)
 8001108:	f44f 7115 	mov.w	r1, #596	; 0x254
 800110c:	f7ff f91a 	bl	8000344 <assert_failed>
 8001110:	e7a5      	b.n	800105e <ADC_RegularChannelConfig+0x46>
 8001112:	4803      	ldr	r0, [pc, #12]	; (8001120 <ADC_RegularChannelConfig+0x108>)
 8001114:	f240 2153 	movw	r1, #595	; 0x253
 8001118:	f7ff f914 	bl	8000344 <assert_failed>
 800111c:	e79b      	b.n	8001056 <ADC_RegularChannelConfig+0x3e>
 800111e:	bf00      	nop
 8001120:	08008750 	.word	0x08008750

08001124 <TIM_Cmd>:
 8001124:	b538      	push	{r3, r4, r5, lr}
 8001126:	f44f 5330 	mov.w	r3, #11264	; 0x2c00
 800112a:	f2c4 0301 	movt	r3, #16385	; 0x4001
 800112e:	4298      	cmp	r0, r3
 8001130:	4604      	mov	r4, r0
 8001132:	460d      	mov	r5, r1
 8001134:	d061      	beq.n	80011fa <TIM_Cmd+0xd6>
 8001136:	f1b0 4f80 	cmp.w	r0, #1073741824	; 0x40000000
 800113a:	d05e      	beq.n	80011fa <TIM_Cmd+0xd6>
 800113c:	f44f 6080 	mov.w	r0, #1024	; 0x400
 8001140:	f2c4 0000 	movt	r0, #16384	; 0x4000
 8001144:	4284      	cmp	r4, r0
 8001146:	d058      	beq.n	80011fa <TIM_Cmd+0xd6>
 8001148:	f44f 6100 	mov.w	r1, #2048	; 0x800
 800114c:	f2c4 0100 	movt	r1, #16384	; 0x4000
 8001150:	428c      	cmp	r4, r1
 8001152:	d052      	beq.n	80011fa <TIM_Cmd+0xd6>
 8001154:	f44f 6240 	mov.w	r2, #3072	; 0xc00
 8001158:	f2c4 0200 	movt	r2, #16384	; 0x4000
 800115c:	4294      	cmp	r4, r2
 800115e:	d04c      	beq.n	80011fa <TIM_Cmd+0xd6>
 8001160:	f44f 5380 	mov.w	r3, #4096	; 0x1000
 8001164:	f2c4 0300 	movt	r3, #16384	; 0x4000
 8001168:	429c      	cmp	r4, r3
 800116a:	d046      	beq.n	80011fa <TIM_Cmd+0xd6>
 800116c:	f44f 50a0 	mov.w	r0, #5120	; 0x1400
 8001170:	f2c4 0000 	movt	r0, #16384	; 0x4000
 8001174:	4284      	cmp	r4, r0
 8001176:	d040      	beq.n	80011fa <TIM_Cmd+0xd6>
 8001178:	f44f 5150 	mov.w	r1, #13312	; 0x3400
 800117c:	f2c4 0101 	movt	r1, #16385	; 0x4001
 8001180:	428c      	cmp	r4, r1
 8001182:	d03a      	beq.n	80011fa <TIM_Cmd+0xd6>
 8001184:	f44f 4298 	mov.w	r2, #19456	; 0x4c00
 8001188:	f2c4 0201 	movt	r2, #16385	; 0x4001
 800118c:	4294      	cmp	r4, r2
 800118e:	d034      	beq.n	80011fa <TIM_Cmd+0xd6>
 8001190:	f44f 43a0 	mov.w	r3, #20480	; 0x5000
 8001194:	f2c4 0301 	movt	r3, #16385	; 0x4001
 8001198:	429c      	cmp	r4, r3
 800119a:	d02e      	beq.n	80011fa <TIM_Cmd+0xd6>
 800119c:	f44f 40a8 	mov.w	r0, #21504	; 0x5400
 80011a0:	f2c4 0001 	movt	r0, #16385	; 0x4001
 80011a4:	4284      	cmp	r4, r0
 80011a6:	d028      	beq.n	80011fa <TIM_Cmd+0xd6>
 80011a8:	f44f 51c0 	mov.w	r1, #6144	; 0x1800
 80011ac:	f2c4 0100 	movt	r1, #16384	; 0x4000
 80011b0:	428c      	cmp	r4, r1
 80011b2:	d022      	beq.n	80011fa <TIM_Cmd+0xd6>
 80011b4:	f44f 52e0 	mov.w	r2, #7168	; 0x1c00
 80011b8:	f2c4 0200 	movt	r2, #16384	; 0x4000
 80011bc:	4294      	cmp	r4, r2
 80011be:	d01c      	beq.n	80011fa <TIM_Cmd+0xd6>
 80011c0:	f44f 5300 	mov.w	r3, #8192	; 0x2000
 80011c4:	f2c4 0300 	movt	r3, #16384	; 0x4000
 80011c8:	429c      	cmp	r4, r3
 80011ca:	d016      	beq.n	80011fa <TIM_Cmd+0xd6>
 80011cc:	f44f 4080 	mov.w	r0, #16384	; 0x4000
 80011d0:	f2c4 0001 	movt	r0, #16385	; 0x4001
 80011d4:	4284      	cmp	r4, r0
 80011d6:	d010      	beq.n	80011fa <TIM_Cmd+0xd6>
 80011d8:	f44f 4188 	mov.w	r1, #17408	; 0x4400
 80011dc:	f2c4 0101 	movt	r1, #16385	; 0x4001
 80011e0:	428c      	cmp	r4, r1
 80011e2:	d00a      	beq.n	80011fa <TIM_Cmd+0xd6>
 80011e4:	f44f 4290 	mov.w	r2, #18432	; 0x4800
 80011e8:	f2c4 0201 	movt	r2, #16385	; 0x4001
 80011ec:	4294      	cmp	r4, r2
 80011ee:	d004      	beq.n	80011fa <TIM_Cmd+0xd6>
 80011f0:	480d      	ldr	r0, [pc, #52]	; (8001228 <TIM_Cmd+0x104>)
 80011f2:	f240 3129 	movw	r1, #809	; 0x329
 80011f6:	f7ff f8a5 	bl	8000344 <assert_failed>
 80011fa:	2d01      	cmp	r5, #1
 80011fc:	d90a      	bls.n	8001214 <TIM_Cmd+0xf0>
 80011fe:	480a      	ldr	r0, [pc, #40]	; (8001228 <TIM_Cmd+0x104>)
 8001200:	f240 312a 	movw	r1, #810	; 0x32a
 8001204:	f7ff f89e 	bl	8000344 <assert_failed>
 8001208:	8823      	ldrh	r3, [r4, #0]
 800120a:	b298      	uxth	r0, r3
 800120c:	f040 0101 	orr.w	r1, r0, #1
 8001210:	8021      	strh	r1, [r4, #0]
 8001212:	bd38      	pop	{r3, r4, r5, pc}
 8001214:	2d00      	cmp	r5, #0
 8001216:	d1f7      	bne.n	8001208 <TIM_Cmd+0xe4>
 8001218:	8823      	ldrh	r3, [r4, #0]
 800121a:	f023 0001 	bic.w	r0, r3, #1
 800121e:	0401      	lsls	r1, r0, #16
 8001220:	0c0a      	lsrs	r2, r1, #16
 8001222:	8022      	strh	r2, [r4, #0]
 8001224:	bd38      	pop	{r3, r4, r5, pc}
 8001226:	bf00      	nop
 8001228:	0800878c 	.word	0x0800878c

0800122c <TIM_SetCounter>:
 800122c:	b538      	push	{r3, r4, r5, lr}
 800122e:	f44f 5330 	mov.w	r3, #11264	; 0x2c00
 8001232:	f2c4 0301 	movt	r3, #16385	; 0x4001
 8001236:	4298      	cmp	r0, r3
 8001238:	4604      	mov	r4, r0
 800123a:	460d      	mov	r5, r1
 800123c:	d061      	beq.n	8001302 <TIM_SetCounter+0xd6>
 800123e:	f1b0 4f80 	cmp.w	r0, #1073741824	; 0x40000000
 8001242:	d05e      	beq.n	8001302 <TIM_SetCounter+0xd6>
 8001244:	f44f 6080 	mov.w	r0, #1024	; 0x400
 8001248:	f2c4 0000 	movt	r0, #16384	; 0x4000
 800124c:	4284      	cmp	r4, r0
 800124e:	d058      	beq.n	8001302 <TIM_SetCounter+0xd6>
 8001250:	f44f 6100 	mov.w	r1, #2048	; 0x800
 8001254:	f2c4 0100 	movt	r1, #16384	; 0x4000
 8001258:	428c      	cmp	r4, r1
 800125a:	d052      	beq.n	8001302 <TIM_SetCounter+0xd6>
 800125c:	f44f 6240 	mov.w	r2, #3072	; 0xc00
 8001260:	f2c4 0200 	movt	r2, #16384	; 0x4000
 8001264:	4294      	cmp	r4, r2
 8001266:	d04c      	beq.n	8001302 <TIM_SetCounter+0xd6>
 8001268:	f44f 5380 	mov.w	r3, #4096	; 0x1000
 800126c:	f2c4 0300 	movt	r3, #16384	; 0x4000
 8001270:	429c      	cmp	r4, r3
 8001272:	d046      	beq.n	8001302 <TIM_SetCounter+0xd6>
 8001274:	f44f 50a0 	mov.w	r0, #5120	; 0x1400
 8001278:	f2c4 0000 	movt	r0, #16384	; 0x4000
 800127c:	4284      	cmp	r4, r0
 800127e:	d040      	beq.n	8001302 <TIM_SetCounter+0xd6>
 8001280:	f44f 5150 	mov.w	r1, #13312	; 0x3400
 8001284:	f2c4 0101 	movt	r1, #16385	; 0x4001
 8001288:	428c      	cmp	r4, r1
 800128a:	d03a      	beq.n	8001302 <TIM_SetCounter+0xd6>
 800128c:	f44f 4298 	mov.w	r2, #19456	; 0x4c00
 8001290:	f2c4 0201 	movt	r2, #16385	; 0x4001
 8001294:	4294      	cmp	r4, r2
 8001296:	d034      	beq.n	8001302 <TIM_SetCounter+0xd6>
 8001298:	f44f 43a0 	mov.w	r3, #20480	; 0x5000
 800129c:	f2c4 0301 	movt	r3, #16385	; 0x4001
 80012a0:	429c      	cmp	r4, r3
 80012a2:	d02e      	beq.n	8001302 <TIM_SetCounter+0xd6>
 80012a4:	f44f 40a8 	mov.w	r0, #21504	; 0x5400
 80012a8:	f2c4 0001 	movt	r0, #16385	; 0x4001
 80012ac:	4284      	cmp	r4, r0
 80012ae:	d028      	beq.n	8001302 <TIM_SetCounter+0xd6>
 80012b0:	f44f 51c0 	mov.w	r1, #6144	; 0x1800
 80012b4:	f2c4 0100 	movt	r1, #16384	; 0x4000
 80012b8:	428c      	cmp	r4, r1
 80012ba:	d022      	beq.n	8001302 <TIM_SetCounter+0xd6>
 80012bc:	f44f 52e0 	mov.w	r2, #7168	; 0x1c00
 80012c0:	f2c4 0200 	movt	r2, #16384	; 0x4000
 80012c4:	4294      	cmp	r4, r2
 80012c6:	d01c      	beq.n	8001302 <TIM_SetCounter+0xd6>
 80012c8:	f44f 5300 	mov.w	r3, #8192	; 0x2000
 80012cc:	f2c4 0300 	movt	r3, #16384	; 0x4000
 80012d0:	429c      	cmp	r4, r3
 80012d2:	d016      	beq.n	8001302 <TIM_SetCounter+0xd6>
 80012d4:	f44f 4080 	mov.w	r0, #16384	; 0x4000
 80012d8:	f2c4 0001 	movt	r0, #16385	; 0x4001
 80012dc:	4284      	cmp	r4, r0
 80012de:	d010      	beq.n	8001302 <TIM_SetCounter+0xd6>
 80012e0:	f44f 4188 	mov.w	r1, #17408	; 0x4400
 80012e4:	f2c4 0101 	movt	r1, #16385	; 0x4001
 80012e8:	428c      	cmp	r4, r1
 80012ea:	d00a      	beq.n	8001302 <TIM_SetCounter+0xd6>
 80012ec:	f44f 4290 	mov.w	r2, #18432	; 0x4800
 80012f0:	f2c4 0201 	movt	r2, #16385	; 0x4001
 80012f4:	4294      	cmp	r4, r2
 80012f6:	d004      	beq.n	8001302 <TIM_SetCounter+0xd6>
 80012f8:	4803      	ldr	r0, [pc, #12]	; (8001308 <TIM_SetCounter+0xdc>)
 80012fa:	f640 01db 	movw	r1, #2267	; 0x8db
 80012fe:	f7ff f821 	bl	8000344 <assert_failed>
 8001302:	84a5      	strh	r5, [r4, #36]	; 0x24
 8001304:	bd38      	pop	{r3, r4, r5, pc}
 8001306:	bf00      	nop
 8001308:	0800878c 	.word	0x0800878c

0800130c <TIM_SetAutoreload>:
 800130c:	b538      	push	{r3, r4, r5, lr}
 800130e:	f44f 5330 	mov.w	r3, #11264	; 0x2c00
 8001312:	f2c4 0301 	movt	r3, #16385	; 0x4001
 8001316:	4298      	cmp	r0, r3
 8001318:	4604      	mov	r4, r0
 800131a:	460d      	mov	r5, r1
 800131c:	d061      	beq.n	80013e2 <TIM_SetAutoreload+0xd6>
 800131e:	f1b0 4f80 	cmp.w	r0, #1073741824	; 0x40000000
 8001322:	d05e      	beq.n	80013e2 <TIM_SetAutoreload+0xd6>
 8001324:	f44f 6080 	mov.w	r0, #1024	; 0x400
 8001328:	f2c4 0000 	movt	r0, #16384	; 0x4000
 800132c:	4284      	cmp	r4, r0
 800132e:	d058      	beq.n	80013e2 <TIM_SetAutoreload+0xd6>
 8001330:	f44f 6100 	mov.w	r1, #2048	; 0x800
 8001334:	f2c4 0100 	movt	r1, #16384	; 0x4000
 8001338:	428c      	cmp	r4, r1
 800133a:	d052      	beq.n	80013e2 <TIM_SetAutoreload+0xd6>
 800133c:	f44f 6240 	mov.w	r2, #3072	; 0xc00
 8001340:	f2c4 0200 	movt	r2, #16384	; 0x4000
 8001344:	4294      	cmp	r4, r2
 8001346:	d04c      	beq.n	80013e2 <TIM_SetAutoreload+0xd6>
 8001348:	f44f 5380 	mov.w	r3, #4096	; 0x1000
 800134c:	f2c4 0300 	movt	r3, #16384	; 0x4000
 8001350:	429c      	cmp	r4, r3
 8001352:	d046      	beq.n	80013e2 <TIM_SetAutoreload+0xd6>
 8001354:	f44f 50a0 	mov.w	r0, #5120	; 0x1400
 8001358:	f2c4 0000 	movt	r0, #16384	; 0x4000
 800135c:	4284      	cmp	r4, r0
 800135e:	d040      	beq.n	80013e2 <TIM_SetAutoreload+0xd6>
 8001360:	f44f 5150 	mov.w	r1, #13312	; 0x3400
 8001364:	f2c4 0101 	movt	r1, #16385	; 0x4001
 8001368:	428c      	cmp	r4, r1
 800136a:	d03a      	beq.n	80013e2 <TIM_SetAutoreload+0xd6>
 800136c:	f44f 4298 	mov.w	r2, #19456	; 0x4c00
 8001370:	f2c4 0201 	movt	r2, #16385	; 0x4001
 8001374:	4294      	cmp	r4, r2
 8001376:	d034      	beq.n	80013e2 <TIM_SetAutoreload+0xd6>
 8001378:	f44f 43a0 	mov.w	r3, #20480	; 0x5000
 800137c:	f2c4 0301 	movt	r3, #16385	; 0x4001
 8001380:	429c      	cmp	r4, r3
 8001382:	d02e      	beq.n	80013e2 <TIM_SetAutoreload+0xd6>
 8001384:	f44f 40a8 	mov.w	r0, #21504	; 0x5400
 8001388:	f2c4 0001 	movt	r0, #16385	; 0x4001
 800138c:	4284      	cmp	r4, r0
 800138e:	d028      	beq.n	80013e2 <TIM_SetAutoreload+0xd6>
 8001390:	f44f 51c0 	mov.w	r1, #6144	; 0x1800
 8001394:	f2c4 0100 	movt	r1, #16384	; 0x4000
 8001398:	428c      	cmp	r4, r1
 800139a:	d022      	beq.n	80013e2 <TIM_SetAutoreload+0xd6>
 800139c:	f44f 52e0 	mov.w	r2, #7168	; 0x1c00
 80013a0:	f2c4 0200 	movt	r2, #16384	; 0x4000
 80013a4:	4294      	cmp	r4, r2
 80013a6:	d01c      	beq.n	80013e2 <TIM_SetAutoreload+0xd6>
 80013a8:	f44f 5300 	mov.w	r3, #8192	; 0x2000
 80013ac:	f2c4 0300 	movt	r3, #16384	; 0x4000
 80013b0:	429c      	cmp	r4, r3
 80013b2:	d016      	beq.n	80013e2 <TIM_SetAutoreload+0xd6>
 80013b4:	f44f 4080 	mov.w	r0, #16384	; 0x4000
 80013b8:	f2c4 0001 	movt	r0, #16385	; 0x4001
 80013bc:	4284      	cmp	r4, r0
 80013be:	d010      	beq.n	80013e2 <TIM_SetAutoreload+0xd6>
 80013c0:	f44f 4188 	mov.w	r1, #17408	; 0x4400
 80013c4:	f2c4 0101 	movt	r1, #16385	; 0x4001
 80013c8:	428c      	cmp	r4, r1
 80013ca:	d00a      	beq.n	80013e2 <TIM_SetAutoreload+0xd6>
 80013cc:	f44f 4290 	mov.w	r2, #18432	; 0x4800
 80013d0:	f2c4 0201 	movt	r2, #16385	; 0x4001
 80013d4:	4294      	cmp	r4, r2
 80013d6:	d004      	beq.n	80013e2 <TIM_SetAutoreload+0xd6>
 80013d8:	4803      	ldr	r0, [pc, #12]	; (80013e8 <TIM_SetAutoreload+0xdc>)
 80013da:	f640 01e9 	movw	r1, #2281	; 0x8e9
 80013de:	f7fe ffb1 	bl	8000344 <assert_failed>
 80013e2:	85a5      	strh	r5, [r4, #44]	; 0x2c
 80013e4:	bd38      	pop	{r3, r4, r5, pc}
 80013e6:	bf00      	nop
 80013e8:	0800878c 	.word	0x0800878c

080013ec <TIM_ClearFlag>:
 80013ec:	b538      	push	{r3, r4, r5, lr}
 80013ee:	f44f 5330 	mov.w	r3, #11264	; 0x2c00
 80013f2:	f2c4 0301 	movt	r3, #16385	; 0x4001
 80013f6:	4298      	cmp	r0, r3
 80013f8:	4604      	mov	r4, r0
 80013fa:	460d      	mov	r5, r1
 80013fc:	d061      	beq.n	80014c2 <TIM_ClearFlag+0xd6>
 80013fe:	f1b0 4f80 	cmp.w	r0, #1073741824	; 0x40000000
 8001402:	d05e      	beq.n	80014c2 <TIM_ClearFlag+0xd6>
 8001404:	f44f 6080 	mov.w	r0, #1024	; 0x400
 8001408:	f2c4 0000 	movt	r0, #16384	; 0x4000
 800140c:	4284      	cmp	r4, r0
 800140e:	d058      	beq.n	80014c2 <TIM_ClearFlag+0xd6>
 8001410:	f44f 6100 	mov.w	r1, #2048	; 0x800
 8001414:	f2c4 0100 	movt	r1, #16384	; 0x4000
 8001418:	428c      	cmp	r4, r1
 800141a:	d052      	beq.n	80014c2 <TIM_ClearFlag+0xd6>
 800141c:	f44f 6240 	mov.w	r2, #3072	; 0xc00
 8001420:	f2c4 0200 	movt	r2, #16384	; 0x4000
 8001424:	4294      	cmp	r4, r2
 8001426:	d04c      	beq.n	80014c2 <TIM_ClearFlag+0xd6>
 8001428:	f44f 5380 	mov.w	r3, #4096	; 0x1000
 800142c:	f2c4 0300 	movt	r3, #16384	; 0x4000
 8001430:	429c      	cmp	r4, r3
 8001432:	d046      	beq.n	80014c2 <TIM_ClearFlag+0xd6>
 8001434:	f44f 50a0 	mov.w	r0, #5120	; 0x1400
 8001438:	f2c4 0000 	movt	r0, #16384	; 0x4000
 800143c:	4284      	cmp	r4, r0
 800143e:	d040      	beq.n	80014c2 <TIM_ClearFlag+0xd6>
 8001440:	f44f 5150 	mov.w	r1, #13312	; 0x3400
 8001444:	f2c4 0101 	movt	r1, #16385	; 0x4001
 8001448:	428c      	cmp	r4, r1
 800144a:	d03a      	beq.n	80014c2 <TIM_ClearFlag+0xd6>
 800144c:	f44f 4298 	mov.w	r2, #19456	; 0x4c00
 8001450:	f2c4 0201 	movt	r2, #16385	; 0x4001
 8001454:	4294      	cmp	r4, r2
 8001456:	d034      	beq.n	80014c2 <TIM_ClearFlag+0xd6>
 8001458:	f44f 43a0 	mov.w	r3, #20480	; 0x5000
 800145c:	f2c4 0301 	movt	r3, #16385	; 0x4001
 8001460:	429c      	cmp	r4, r3
 8001462:	d02e      	beq.n	80014c2 <TIM_ClearFlag+0xd6>
 8001464:	f44f 40a8 	mov.w	r0, #21504	; 0x5400
 8001468:	f2c4 0001 	movt	r0, #16385	; 0x4001
 800146c:	4284      	cmp	r4, r0
 800146e:	d028      	beq.n	80014c2 <TIM_ClearFlag+0xd6>
 8001470:	f44f 51c0 	mov.w	r1, #6144	; 0x1800
 8001474:	f2c4 0100 	movt	r1, #16384	; 0x4000
 8001478:	428c      	cmp	r4, r1
 800147a:	d022      	beq.n	80014c2 <TIM_ClearFlag+0xd6>
 800147c:	f44f 52e0 	mov.w	r2, #7168	; 0x1c00
 8001480:	f2c4 0200 	movt	r2, #16384	; 0x4000
 8001484:	4294      	cmp	r4, r2
 8001486:	d01c      	beq.n	80014c2 <TIM_ClearFlag+0xd6>
 8001488:	f44f 5300 	mov.w	r3, #8192	; 0x2000
 800148c:	f2c4 0300 	movt	r3, #16384	; 0x4000
 8001490:	429c      	cmp	r4, r3
 8001492:	d016      	beq.n	80014c2 <TIM_ClearFlag+0xd6>
 8001494:	f44f 4080 	mov.w	r0, #16384	; 0x4000
 8001498:	f2c4 0001 	movt	r0, #16385	; 0x4001
 800149c:	4284      	cmp	r4, r0
 800149e:	d010      	beq.n	80014c2 <TIM_ClearFlag+0xd6>
 80014a0:	f44f 4188 	mov.w	r1, #17408	; 0x4400
 80014a4:	f2c4 0101 	movt	r1, #16385	; 0x4001
 80014a8:	428c      	cmp	r4, r1
 80014aa:	d00a      	beq.n	80014c2 <TIM_ClearFlag+0xd6>
 80014ac:	f44f 4290 	mov.w	r2, #18432	; 0x4800
 80014b0:	f2c4 0201 	movt	r2, #16385	; 0x4001
 80014b4:	4294      	cmp	r4, r2
 80014b6:	d004      	beq.n	80014c2 <TIM_ClearFlag+0xd6>
 80014b8:	4808      	ldr	r0, [pc, #32]	; (80014dc <TIM_ClearFlag+0xf0>)
 80014ba:	f640 212b 	movw	r1, #2603	; 0xa2b
 80014be:	f7fe ff41 	bl	8000344 <assert_failed>
 80014c2:	f415 4f61 	tst.w	r5, #57600	; 0xe100
 80014c6:	d100      	bne.n	80014ca <TIM_ClearFlag+0xde>
 80014c8:	b925      	cbnz	r5, 80014d4 <TIM_ClearFlag+0xe8>
 80014ca:	4804      	ldr	r0, [pc, #16]	; (80014dc <TIM_ClearFlag+0xf0>)
 80014cc:	f640 212c 	movw	r1, #2604	; 0xa2c
 80014d0:	f7fe ff38 	bl	8000344 <assert_failed>
 80014d4:	43ed      	mvns	r5, r5
 80014d6:	b2ad      	uxth	r5, r5
 80014d8:	8225      	strh	r5, [r4, #16]
 80014da:	bd38      	pop	{r3, r4, r5, pc}
 80014dc:	0800878c 	.word	0x0800878c

080014e0 <FLASH_UnlockBank1>:
 80014e0:	f44f 5300 	mov.w	r3, #8192	; 0x2000
 80014e4:	f240 1123 	movw	r1, #291	; 0x123
 80014e8:	f648 12ab 	movw	r2, #35243	; 0x89ab
 80014ec:	f2c4 0302 	movt	r3, #16386	; 0x4002
 80014f0:	f2c4 5167 	movt	r1, #17767	; 0x4567
 80014f4:	f6cc 52ef 	movt	r2, #52719	; 0xcdef
 80014f8:	6059      	str	r1, [r3, #4]
 80014fa:	605a      	str	r2, [r3, #4]
 80014fc:	4770      	bx	lr
 80014fe:	bf00      	nop

08001500 <FLASH_LockBank1>:
 8001500:	f44f 5300 	mov.w	r3, #8192	; 0x2000
 8001504:	f2c4 0302 	movt	r3, #16386	; 0x4002
 8001508:	691a      	ldr	r2, [r3, #16]
 800150a:	f042 0080 	orr.w	r0, r2, #128	; 0x80
 800150e:	6118      	str	r0, [r3, #16]
 8001510:	4770      	bx	lr
 8001512:	bf00      	nop

08001514 <FLASH_GetBank1Status>:
 8001514:	f44f 5300 	mov.w	r3, #8192	; 0x2000
 8001518:	f2c4 0302 	movt	r3, #16386	; 0x4002
 800151c:	68da      	ldr	r2, [r3, #12]
 800151e:	07d2      	lsls	r2, r2, #31
 8001520:	d40b      	bmi.n	800153a <FLASH_GetBank1Status+0x26>
 8001522:	68d8      	ldr	r0, [r3, #12]
 8001524:	0740      	lsls	r0, r0, #29
 8001526:	d501      	bpl.n	800152c <FLASH_GetBank1Status+0x18>
 8001528:	2002      	movs	r0, #2
 800152a:	4770      	bx	lr
 800152c:	68d9      	ldr	r1, [r3, #12]
 800152e:	f011 0f10 	tst.w	r1, #16
 8001532:	bf0c      	ite	eq
 8001534:	2004      	moveq	r0, #4
 8001536:	2003      	movne	r0, #3
 8001538:	4770      	bx	lr
 800153a:	2001      	movs	r0, #1
 800153c:	4770      	bx	lr
 800153e:	bf00      	nop

08001540 <FLASH_WaitForLastOperation>:
 8001540:	b510      	push	{r4, lr}
 8001542:	4604      	mov	r4, r0
 8001544:	f7ff ffe6 	bl	8001514 <FLASH_GetBank1Status>
 8001548:	2801      	cmp	r0, #1
 800154a:	d115      	bne.n	8001578 <FLASH_WaitForLastOperation+0x38>
 800154c:	b1b4      	cbz	r4, 800157c <FLASH_WaitForLastOperation+0x3c>
 800154e:	f7ff ffe1 	bl	8001514 <FLASH_GetBank1Status>
 8001552:	3c01      	subs	r4, #1
 8001554:	2801      	cmp	r0, #1
 8001556:	f004 0301 	and.w	r3, r4, #1
 800155a:	d10d      	bne.n	8001578 <FLASH_WaitForLastOperation+0x38>
 800155c:	b174      	cbz	r4, 800157c <FLASH_WaitForLastOperation+0x3c>
 800155e:	b10b      	cbz	r3, 8001564 <FLASH_WaitForLastOperation+0x24>
 8001560:	e005      	b.n	800156e <FLASH_WaitForLastOperation+0x2e>
 8001562:	b15c      	cbz	r4, 800157c <FLASH_WaitForLastOperation+0x3c>
 8001564:	f7ff ffd6 	bl	8001514 <FLASH_GetBank1Status>
 8001568:	3c01      	subs	r4, #1
 800156a:	2801      	cmp	r0, #1
 800156c:	d104      	bne.n	8001578 <FLASH_WaitForLastOperation+0x38>
 800156e:	f7ff ffd1 	bl	8001514 <FLASH_GetBank1Status>
 8001572:	3c01      	subs	r4, #1
 8001574:	2801      	cmp	r0, #1
 8001576:	d0f4      	beq.n	8001562 <FLASH_WaitForLastOperation+0x22>
 8001578:	b104      	cbz	r4, 800157c <FLASH_WaitForLastOperation+0x3c>
 800157a:	bd10      	pop	{r4, pc}
 800157c:	2005      	movs	r0, #5
 800157e:	bd10      	pop	{r4, pc}

08001580 <FLASH_ProgramWord>:
 8001580:	b570      	push	{r4, r5, r6, lr}
 8001582:	f64f 73fe 	movw	r3, #65534	; 0xfffe
 8001586:	f100 4278 	add.w	r2, r0, #4160749568	; 0xf8000000
 800158a:	f2c0 030f 	movt	r3, #15
 800158e:	b082      	sub	sp, #8
 8001590:	4604      	mov	r4, r0
 8001592:	2000      	movs	r0, #0
 8001594:	429a      	cmp	r2, r3
 8001596:	9001      	str	r0, [sp, #4]
 8001598:	460d      	mov	r5, r1
 800159a:	d807      	bhi.n	80015ac <FLASH_ProgramWord+0x2c>
 800159c:	f44f 5000 	mov.w	r0, #8192	; 0x2000
 80015a0:	f7ff ffce 	bl	8001540 <FLASH_WaitForLastOperation>
 80015a4:	2804      	cmp	r0, #4
 80015a6:	d00c      	beq.n	80015c2 <FLASH_ProgramWord+0x42>
 80015a8:	b002      	add	sp, #8
 80015aa:	bd70      	pop	{r4, r5, r6, pc}
 80015ac:	4817      	ldr	r0, [pc, #92]	; (800160c <FLASH_ProgramWord+0x8c>)
 80015ae:	f240 21af 	movw	r1, #687	; 0x2af
 80015b2:	f7fe fec7 	bl	8000344 <assert_failed>
 80015b6:	f44f 5000 	mov.w	r0, #8192	; 0x2000
 80015ba:	f7ff ffc1 	bl	8001540 <FLASH_WaitForLastOperation>
 80015be:	2804      	cmp	r0, #4
 80015c0:	d1f2      	bne.n	80015a8 <FLASH_ProgramWord+0x28>
 80015c2:	f44f 5600 	mov.w	r6, #8192	; 0x2000
 80015c6:	f2c4 0602 	movt	r6, #16386	; 0x4002
 80015ca:	6931      	ldr	r1, [r6, #16]
 80015cc:	b2ab      	uxth	r3, r5
 80015ce:	f041 0201 	orr.w	r2, r1, #1
 80015d2:	6132      	str	r2, [r6, #16]
 80015d4:	f44f 5000 	mov.w	r0, #8192	; 0x2000
 80015d8:	8023      	strh	r3, [r4, #0]
 80015da:	f7ff ffb1 	bl	8001540 <FLASH_WaitForLastOperation>
 80015de:	2804      	cmp	r0, #4
 80015e0:	d005      	beq.n	80015ee <FLASH_ProgramWord+0x6e>
 80015e2:	6931      	ldr	r1, [r6, #16]
 80015e4:	f641 73fe 	movw	r3, #8190	; 0x1ffe
 80015e8:	400b      	ands	r3, r1
 80015ea:	6133      	str	r3, [r6, #16]
 80015ec:	e7dc      	b.n	80015a8 <FLASH_ProgramWord+0x28>
 80015ee:	3402      	adds	r4, #2
 80015f0:	9401      	str	r4, [sp, #4]
 80015f2:	9801      	ldr	r0, [sp, #4]
 80015f4:	0c2d      	lsrs	r5, r5, #16
 80015f6:	8005      	strh	r5, [r0, #0]
 80015f8:	f44f 5000 	mov.w	r0, #8192	; 0x2000
 80015fc:	f7ff ffa0 	bl	8001540 <FLASH_WaitForLastOperation>
 8001600:	6932      	ldr	r2, [r6, #16]
 8001602:	f641 71fe 	movw	r1, #8190	; 0x1ffe
 8001606:	4011      	ands	r1, r2
 8001608:	6131      	str	r1, [r6, #16]
 800160a:	e7cd      	b.n	80015a8 <FLASH_ProgramWord+0x28>
 800160c:	080087c8 	.word	0x080087c8

08001610 <GPIO_Init>:
 8001610:	f44f 6300 	mov.w	r3, #2048	; 0x800
 8001614:	f2c4 0301 	movt	r3, #16385	; 0x4001
 8001618:	4298      	cmp	r0, r3
 800161a:	b570      	push	{r4, r5, r6, lr}
 800161c:	4604      	mov	r4, r0
 800161e:	460d      	mov	r5, r1
 8001620:	d027      	beq.n	8001672 <GPIO_Init+0x62>
 8001622:	f44f 6040 	mov.w	r0, #3072	; 0xc00
 8001626:	f2c4 0001 	movt	r0, #16385	; 0x4001
 800162a:	4284      	cmp	r4, r0
 800162c:	d021      	beq.n	8001672 <GPIO_Init+0x62>
 800162e:	f44f 5180 	mov.w	r1, #4096	; 0x1000
 8001632:	f2c4 0101 	movt	r1, #16385	; 0x4001
 8001636:	428c      	cmp	r4, r1
 8001638:	d01b      	beq.n	8001672 <GPIO_Init+0x62>
 800163a:	f44f 52a0 	mov.w	r2, #5120	; 0x1400
 800163e:	f2c4 0201 	movt	r2, #16385	; 0x4001
 8001642:	4294      	cmp	r4, r2
 8001644:	d015      	beq.n	8001672 <GPIO_Init+0x62>
 8001646:	f44f 56c0 	mov.w	r6, #6144	; 0x1800
 800164a:	f2c4 0601 	movt	r6, #16385	; 0x4001
 800164e:	42b4      	cmp	r4, r6
 8001650:	d00f      	beq.n	8001672 <GPIO_Init+0x62>
 8001652:	f44f 53e0 	mov.w	r3, #7168	; 0x1c00
 8001656:	f2c4 0301 	movt	r3, #16385	; 0x4001
 800165a:	429c      	cmp	r4, r3
 800165c:	d009      	beq.n	8001672 <GPIO_Init+0x62>
 800165e:	f44f 5000 	mov.w	r0, #8192	; 0x2000
 8001662:	f2c4 0001 	movt	r0, #16385	; 0x4001
 8001666:	4284      	cmp	r4, r0
 8001668:	d003      	beq.n	8001672 <GPIO_Init+0x62>
 800166a:	48ae      	ldr	r0, [pc, #696]	; (8001924 <GPIO_Init+0x314>)
 800166c:	21b2      	movs	r1, #178	; 0xb2
 800166e:	f7fe fe69 	bl	8000344 <assert_failed>
 8001672:	78e9      	ldrb	r1, [r5, #3]
 8001674:	b189      	cbz	r1, 800169a <GPIO_Init+0x8a>
 8001676:	2904      	cmp	r1, #4
 8001678:	d00f      	beq.n	800169a <GPIO_Init+0x8a>
 800167a:	2928      	cmp	r1, #40	; 0x28
 800167c:	d00d      	beq.n	800169a <GPIO_Init+0x8a>
 800167e:	2948      	cmp	r1, #72	; 0x48
 8001680:	d00b      	beq.n	800169a <GPIO_Init+0x8a>
 8001682:	2914      	cmp	r1, #20
 8001684:	d009      	beq.n	800169a <GPIO_Init+0x8a>
 8001686:	2910      	cmp	r1, #16
 8001688:	d007      	beq.n	800169a <GPIO_Init+0x8a>
 800168a:	291c      	cmp	r1, #28
 800168c:	d005      	beq.n	800169a <GPIO_Init+0x8a>
 800168e:	2918      	cmp	r1, #24
 8001690:	d003      	beq.n	800169a <GPIO_Init+0x8a>
 8001692:	48a4      	ldr	r0, [pc, #656]	; (8001924 <GPIO_Init+0x314>)
 8001694:	21b3      	movs	r1, #179	; 0xb3
 8001696:	f7fe fe55 	bl	8000344 <assert_failed>
 800169a:	882a      	ldrh	r2, [r5, #0]
 800169c:	2a00      	cmp	r2, #0
 800169e:	d06c      	beq.n	800177a <GPIO_Init+0x16a>
 80016a0:	78eb      	ldrb	r3, [r5, #3]
 80016a2:	f003 060f 	and.w	r6, r3, #15
 80016a6:	06db      	lsls	r3, r3, #27
 80016a8:	d461      	bmi.n	800176e <GPIO_Init+0x15e>
 80016aa:	4631      	mov	r1, r6
 80016ac:	882b      	ldrh	r3, [r5, #0]
 80016ae:	f013 0fff 	tst.w	r3, #255	; 0xff
 80016b2:	d02f      	beq.n	8001714 <GPIO_Init+0x104>
 80016b4:	f013 0001 	ands.w	r0, r3, #1
 80016b8:	6822      	ldr	r2, [r4, #0]
 80016ba:	f040 8116 	bne.w	80018ea <GPIO_Init+0x2da>
 80016be:	f003 0002 	and.w	r0, r3, #2
 80016c2:	b280      	uxth	r0, r0
 80016c4:	2800      	cmp	r0, #0
 80016c6:	f040 80d4 	bne.w	8001872 <GPIO_Init+0x262>
 80016ca:	f003 0004 	and.w	r0, r3, #4
 80016ce:	b280      	uxth	r0, r0
 80016d0:	2800      	cmp	r0, #0
 80016d2:	f040 80b9 	bne.w	8001848 <GPIO_Init+0x238>
 80016d6:	f003 0008 	and.w	r0, r3, #8
 80016da:	b280      	uxth	r0, r0
 80016dc:	2800      	cmp	r0, #0
 80016de:	f040 80e0 	bne.w	80018a2 <GPIO_Init+0x292>
 80016e2:	f003 0010 	and.w	r0, r3, #16
 80016e6:	b280      	uxth	r0, r0
 80016e8:	2800      	cmp	r0, #0
 80016ea:	f040 80e6 	bne.w	80018ba <GPIO_Init+0x2aa>
 80016ee:	f003 0020 	and.w	r0, r3, #32
 80016f2:	b280      	uxth	r0, r0
 80016f4:	2800      	cmp	r0, #0
 80016f6:	f040 80ec 	bne.w	80018d2 <GPIO_Init+0x2c2>
 80016fa:	f003 0040 	and.w	r0, r3, #64	; 0x40
 80016fe:	b280      	uxth	r0, r0
 8001700:	2800      	cmp	r0, #0
 8001702:	f040 80c2 	bne.w	800188a <GPIO_Init+0x27a>
 8001706:	f003 0080 	and.w	r0, r3, #128	; 0x80
 800170a:	b280      	uxth	r0, r0
 800170c:	2800      	cmp	r0, #0
 800170e:	f040 80a7 	bne.w	8001860 <GPIO_Init+0x250>
 8001712:	6022      	str	r2, [r4, #0]
 8001714:	2bff      	cmp	r3, #255	; 0xff
 8001716:	d929      	bls.n	800176c <GPIO_Init+0x15c>
 8001718:	f403 7280 	and.w	r2, r3, #256	; 0x100
 800171c:	b290      	uxth	r0, r2
 800171e:	6862      	ldr	r2, [r4, #4]
 8001720:	2800      	cmp	r0, #0
 8001722:	d12f      	bne.n	8001784 <GPIO_Init+0x174>
 8001724:	f403 7000 	and.w	r0, r3, #512	; 0x200
 8001728:	b280      	uxth	r0, r0
 800172a:	2800      	cmp	r0, #0
 800172c:	d136      	bne.n	800179c <GPIO_Init+0x18c>
 800172e:	f403 6080 	and.w	r0, r3, #1024	; 0x400
 8001732:	b280      	uxth	r0, r0
 8001734:	2800      	cmp	r0, #0
 8001736:	d13d      	bne.n	80017b4 <GPIO_Init+0x1a4>
 8001738:	f403 6000 	and.w	r0, r3, #2048	; 0x800
 800173c:	b280      	uxth	r0, r0
 800173e:	2800      	cmp	r0, #0
 8001740:	d144      	bne.n	80017cc <GPIO_Init+0x1bc>
 8001742:	f403 5080 	and.w	r0, r3, #4096	; 0x1000
 8001746:	b280      	uxth	r0, r0
 8001748:	2800      	cmp	r0, #0
 800174a:	d14b      	bne.n	80017e4 <GPIO_Init+0x1d4>
 800174c:	f403 5000 	and.w	r0, r3, #8192	; 0x2000
 8001750:	b280      	uxth	r0, r0
 8001752:	2800      	cmp	r0, #0
 8001754:	d152      	bne.n	80017fc <GPIO_Init+0x1ec>
 8001756:	f403 4080 	and.w	r0, r3, #16384	; 0x4000
 800175a:	b280      	uxth	r0, r0
 800175c:	2800      	cmp	r0, #0
 800175e:	d158      	bne.n	8001812 <GPIO_Init+0x202>
 8001760:	f403 4300 	and.w	r3, r3, #32768	; 0x8000
 8001764:	b29b      	uxth	r3, r3
 8001766:	2b00      	cmp	r3, #0
 8001768:	d15e      	bne.n	8001828 <GPIO_Init+0x218>
 800176a:	6062      	str	r2, [r4, #4]
 800176c:	bd70      	pop	{r4, r5, r6, pc}
 800176e:	78a9      	ldrb	r1, [r5, #2]
 8001770:	1e48      	subs	r0, r1, #1
 8001772:	2802      	cmp	r0, #2
 8001774:	d861      	bhi.n	800183a <GPIO_Init+0x22a>
 8001776:	4331      	orrs	r1, r6
 8001778:	e798      	b.n	80016ac <GPIO_Init+0x9c>
 800177a:	486a      	ldr	r0, [pc, #424]	; (8001924 <GPIO_Init+0x314>)
 800177c:	21b4      	movs	r1, #180	; 0xb4
 800177e:	f7fe fde1 	bl	8000344 <assert_failed>
 8001782:	e78d      	b.n	80016a0 <GPIO_Init+0x90>
 8001784:	78ee      	ldrb	r6, [r5, #3]
 8001786:	f022 020f 	bic.w	r2, r2, #15
 800178a:	2e28      	cmp	r6, #40	; 0x28
 800178c:	ea41 0202 	orr.w	r2, r1, r2
 8001790:	f000 80c5 	beq.w	800191e <GPIO_Init+0x30e>
 8001794:	2e48      	cmp	r6, #72	; 0x48
 8001796:	d1c5      	bne.n	8001724 <GPIO_Init+0x114>
 8001798:	6120      	str	r0, [r4, #16]
 800179a:	e7c3      	b.n	8001724 <GPIO_Init+0x114>
 800179c:	78ee      	ldrb	r6, [r5, #3]
 800179e:	f022 02f0 	bic.w	r2, r2, #240	; 0xf0
 80017a2:	2e28      	cmp	r6, #40	; 0x28
 80017a4:	ea42 1201 	orr.w	r2, r2, r1, lsl #4
 80017a8:	f000 80b7 	beq.w	800191a <GPIO_Init+0x30a>
 80017ac:	2e48      	cmp	r6, #72	; 0x48
 80017ae:	d1be      	bne.n	800172e <GPIO_Init+0x11e>
 80017b0:	6120      	str	r0, [r4, #16]
 80017b2:	e7bc      	b.n	800172e <GPIO_Init+0x11e>
 80017b4:	78ee      	ldrb	r6, [r5, #3]
 80017b6:	f422 6270 	bic.w	r2, r2, #3840	; 0xf00
 80017ba:	2e28      	cmp	r6, #40	; 0x28
 80017bc:	ea42 2201 	orr.w	r2, r2, r1, lsl #8
 80017c0:	f000 80a9 	beq.w	8001916 <GPIO_Init+0x306>
 80017c4:	2e48      	cmp	r6, #72	; 0x48
 80017c6:	d1b7      	bne.n	8001738 <GPIO_Init+0x128>
 80017c8:	6120      	str	r0, [r4, #16]
 80017ca:	e7b5      	b.n	8001738 <GPIO_Init+0x128>
 80017cc:	78ee      	ldrb	r6, [r5, #3]
 80017ce:	f422 4270 	bic.w	r2, r2, #61440	; 0xf000
 80017d2:	2e28      	cmp	r6, #40	; 0x28
 80017d4:	ea42 3201 	orr.w	r2, r2, r1, lsl #12
 80017d8:	f000 809b 	beq.w	8001912 <GPIO_Init+0x302>
 80017dc:	2e48      	cmp	r6, #72	; 0x48
 80017de:	d1b0      	bne.n	8001742 <GPIO_Init+0x132>
 80017e0:	6120      	str	r0, [r4, #16]
 80017e2:	e7ae      	b.n	8001742 <GPIO_Init+0x132>
 80017e4:	78ee      	ldrb	r6, [r5, #3]
 80017e6:	f422 2270 	bic.w	r2, r2, #983040	; 0xf0000
 80017ea:	2e28      	cmp	r6, #40	; 0x28
 80017ec:	ea42 4201 	orr.w	r2, r2, r1, lsl #16
 80017f0:	f000 808d 	beq.w	800190e <GPIO_Init+0x2fe>
 80017f4:	2e48      	cmp	r6, #72	; 0x48
 80017f6:	d1a9      	bne.n	800174c <GPIO_Init+0x13c>
 80017f8:	6120      	str	r0, [r4, #16]
 80017fa:	e7a7      	b.n	800174c <GPIO_Init+0x13c>
 80017fc:	78ee      	ldrb	r6, [r5, #3]
 80017fe:	f422 0270 	bic.w	r2, r2, #15728640	; 0xf00000
 8001802:	2e28      	cmp	r6, #40	; 0x28
 8001804:	ea42 5201 	orr.w	r2, r2, r1, lsl #20
 8001808:	d07f      	beq.n	800190a <GPIO_Init+0x2fa>
 800180a:	2e48      	cmp	r6, #72	; 0x48
 800180c:	d1a3      	bne.n	8001756 <GPIO_Init+0x146>
 800180e:	6120      	str	r0, [r4, #16]
 8001810:	e7a1      	b.n	8001756 <GPIO_Init+0x146>
 8001812:	78ee      	ldrb	r6, [r5, #3]
 8001814:	f022 6270 	bic.w	r2, r2, #251658240	; 0xf000000
 8001818:	2e28      	cmp	r6, #40	; 0x28
 800181a:	ea42 6201 	orr.w	r2, r2, r1, lsl #24
 800181e:	d072      	beq.n	8001906 <GPIO_Init+0x2f6>
 8001820:	2e48      	cmp	r6, #72	; 0x48
 8001822:	d19d      	bne.n	8001760 <GPIO_Init+0x150>
 8001824:	6120      	str	r0, [r4, #16]
 8001826:	e79b      	b.n	8001760 <GPIO_Init+0x150>
 8001828:	78e8      	ldrb	r0, [r5, #3]
 800182a:	f361 721f 	bfi	r2, r1, #28, #4
 800182e:	2828      	cmp	r0, #40	; 0x28
 8001830:	d067      	beq.n	8001902 <GPIO_Init+0x2f2>
 8001832:	2848      	cmp	r0, #72	; 0x48
 8001834:	bf08      	it	eq
 8001836:	6123      	streq	r3, [r4, #16]
 8001838:	e797      	b.n	800176a <GPIO_Init+0x15a>
 800183a:	21bb      	movs	r1, #187	; 0xbb
 800183c:	4839      	ldr	r0, [pc, #228]	; (8001924 <GPIO_Init+0x314>)
 800183e:	f7fe fd81 	bl	8000344 <assert_failed>
 8001842:	78a9      	ldrb	r1, [r5, #2]
 8001844:	4331      	orrs	r1, r6
 8001846:	e731      	b.n	80016ac <GPIO_Init+0x9c>
 8001848:	78ee      	ldrb	r6, [r5, #3]
 800184a:	f422 6270 	bic.w	r2, r2, #3840	; 0xf00
 800184e:	2e28      	cmp	r6, #40	; 0x28
 8001850:	ea42 2201 	orr.w	r2, r2, r1, lsl #8
 8001854:	d068      	beq.n	8001928 <GPIO_Init+0x318>
 8001856:	2e48      	cmp	r6, #72	; 0x48
 8001858:	f47f af3d 	bne.w	80016d6 <GPIO_Init+0xc6>
 800185c:	6120      	str	r0, [r4, #16]
 800185e:	e73a      	b.n	80016d6 <GPIO_Init+0xc6>
 8001860:	78ee      	ldrb	r6, [r5, #3]
 8001862:	f361 721f 	bfi	r2, r1, #28, #4
 8001866:	2e28      	cmp	r6, #40	; 0x28
 8001868:	d064      	beq.n	8001934 <GPIO_Init+0x324>
 800186a:	2e48      	cmp	r6, #72	; 0x48
 800186c:	bf08      	it	eq
 800186e:	6120      	streq	r0, [r4, #16]
 8001870:	e74f      	b.n	8001712 <GPIO_Init+0x102>
 8001872:	78ee      	ldrb	r6, [r5, #3]
 8001874:	f022 02f0 	bic.w	r2, r2, #240	; 0xf0
 8001878:	2e28      	cmp	r6, #40	; 0x28
 800187a:	ea42 1201 	orr.w	r2, r2, r1, lsl #4
 800187e:	d057      	beq.n	8001930 <GPIO_Init+0x320>
 8001880:	2e48      	cmp	r6, #72	; 0x48
 8001882:	f47f af22 	bne.w	80016ca <GPIO_Init+0xba>
 8001886:	6120      	str	r0, [r4, #16]
 8001888:	e71f      	b.n	80016ca <GPIO_Init+0xba>
 800188a:	78ee      	ldrb	r6, [r5, #3]
 800188c:	f022 6270 	bic.w	r2, r2, #251658240	; 0xf000000
 8001890:	2e28      	cmp	r6, #40	; 0x28
 8001892:	ea42 6201 	orr.w	r2, r2, r1, lsl #24
 8001896:	d055      	beq.n	8001944 <GPIO_Init+0x334>
 8001898:	2e48      	cmp	r6, #72	; 0x48
 800189a:	f47f af34 	bne.w	8001706 <GPIO_Init+0xf6>
 800189e:	6120      	str	r0, [r4, #16]
 80018a0:	e731      	b.n	8001706 <GPIO_Init+0xf6>
 80018a2:	78ee      	ldrb	r6, [r5, #3]
 80018a4:	f422 4270 	bic.w	r2, r2, #61440	; 0xf000
 80018a8:	2e28      	cmp	r6, #40	; 0x28
 80018aa:	ea42 3201 	orr.w	r2, r2, r1, lsl #12
 80018ae:	d047      	beq.n	8001940 <GPIO_Init+0x330>
 80018b0:	2e48      	cmp	r6, #72	; 0x48
 80018b2:	f47f af16 	bne.w	80016e2 <GPIO_Init+0xd2>
 80018b6:	6120      	str	r0, [r4, #16]
 80018b8:	e713      	b.n	80016e2 <GPIO_Init+0xd2>
 80018ba:	78ee      	ldrb	r6, [r5, #3]
 80018bc:	f422 2270 	bic.w	r2, r2, #983040	; 0xf0000
 80018c0:	2e28      	cmp	r6, #40	; 0x28
 80018c2:	ea42 4201 	orr.w	r2, r2, r1, lsl #16
 80018c6:	d039      	beq.n	800193c <GPIO_Init+0x32c>
 80018c8:	2e48      	cmp	r6, #72	; 0x48
 80018ca:	f47f af10 	bne.w	80016ee <GPIO_Init+0xde>
 80018ce:	6120      	str	r0, [r4, #16]
 80018d0:	e70d      	b.n	80016ee <GPIO_Init+0xde>
 80018d2:	78ee      	ldrb	r6, [r5, #3]
 80018d4:	f422 0270 	bic.w	r2, r2, #15728640	; 0xf00000
 80018d8:	2e28      	cmp	r6, #40	; 0x28
 80018da:	ea42 5201 	orr.w	r2, r2, r1, lsl #20
 80018de:	d02b      	beq.n	8001938 <GPIO_Init+0x328>
 80018e0:	2e48      	cmp	r6, #72	; 0x48
 80018e2:	f47f af0a 	bne.w	80016fa <GPIO_Init+0xea>
 80018e6:	6120      	str	r0, [r4, #16]
 80018e8:	e707      	b.n	80016fa <GPIO_Init+0xea>
 80018ea:	78ee      	ldrb	r6, [r5, #3]
 80018ec:	f022 020f 	bic.w	r2, r2, #15
 80018f0:	2e28      	cmp	r6, #40	; 0x28
 80018f2:	ea41 0202 	orr.w	r2, r1, r2
 80018f6:	d019      	beq.n	800192c <GPIO_Init+0x31c>
 80018f8:	2e48      	cmp	r6, #72	; 0x48
 80018fa:	f47f aee0 	bne.w	80016be <GPIO_Init+0xae>
 80018fe:	6120      	str	r0, [r4, #16]
 8001900:	e6dd      	b.n	80016be <GPIO_Init+0xae>
 8001902:	6163      	str	r3, [r4, #20]
 8001904:	e731      	b.n	800176a <GPIO_Init+0x15a>
 8001906:	6160      	str	r0, [r4, #20]
 8001908:	e72a      	b.n	8001760 <GPIO_Init+0x150>
 800190a:	6160      	str	r0, [r4, #20]
 800190c:	e723      	b.n	8001756 <GPIO_Init+0x146>
 800190e:	6160      	str	r0, [r4, #20]
 8001910:	e71c      	b.n	800174c <GPIO_Init+0x13c>
 8001912:	6160      	str	r0, [r4, #20]
 8001914:	e715      	b.n	8001742 <GPIO_Init+0x132>
 8001916:	6160      	str	r0, [r4, #20]
 8001918:	e70e      	b.n	8001738 <GPIO_Init+0x128>
 800191a:	6160      	str	r0, [r4, #20]
 800191c:	e707      	b.n	800172e <GPIO_Init+0x11e>
 800191e:	6160      	str	r0, [r4, #20]
 8001920:	e700      	b.n	8001724 <GPIO_Init+0x114>
 8001922:	bf00      	nop
 8001924:	08008804 	.word	0x08008804
 8001928:	6160      	str	r0, [r4, #20]
 800192a:	e6d4      	b.n	80016d6 <GPIO_Init+0xc6>
 800192c:	6160      	str	r0, [r4, #20]
 800192e:	e6c6      	b.n	80016be <GPIO_Init+0xae>
 8001930:	6160      	str	r0, [r4, #20]
 8001932:	e6ca      	b.n	80016ca <GPIO_Init+0xba>
 8001934:	6160      	str	r0, [r4, #20]
 8001936:	e6ec      	b.n	8001712 <GPIO_Init+0x102>
 8001938:	6160      	str	r0, [r4, #20]
 800193a:	e6de      	b.n	80016fa <GPIO_Init+0xea>
 800193c:	6160      	str	r0, [r4, #20]
 800193e:	e6d6      	b.n	80016ee <GPIO_Init+0xde>
 8001940:	6160      	str	r0, [r4, #20]
 8001942:	e6ce      	b.n	80016e2 <GPIO_Init+0xd2>
 8001944:	6160      	str	r0, [r4, #20]
 8001946:	e6de      	b.n	8001706 <GPIO_Init+0xf6>

08001948 <GPIO_ReadInputDataBit>:
 8001948:	b538      	push	{r3, r4, r5, lr}
 800194a:	f44f 6300 	mov.w	r3, #2048	; 0x800
 800194e:	f2c4 0301 	movt	r3, #16385	; 0x4001
 8001952:	4298      	cmp	r0, r3
 8001954:	4604      	mov	r4, r0
 8001956:	460d      	mov	r5, r1
 8001958:	d028      	beq.n	80019ac <GPIO_ReadInputDataBit+0x64>
 800195a:	f44f 6040 	mov.w	r0, #3072	; 0xc00
 800195e:	f2c4 0001 	movt	r0, #16385	; 0x4001
 8001962:	4284      	cmp	r4, r0
 8001964:	d022      	beq.n	80019ac <GPIO_ReadInputDataBit+0x64>
 8001966:	f44f 5180 	mov.w	r1, #4096	; 0x1000
 800196a:	f2c4 0101 	movt	r1, #16385	; 0x4001
 800196e:	428c      	cmp	r4, r1
 8001970:	d01c      	beq.n	80019ac <GPIO_ReadInputDataBit+0x64>
 8001972:	f44f 52a0 	mov.w	r2, #5120	; 0x1400
 8001976:	f2c4 0201 	movt	r2, #16385	; 0x4001
 800197a:	4294      	cmp	r4, r2
 800197c:	d016      	beq.n	80019ac <GPIO_ReadInputDataBit+0x64>
 800197e:	f44f 53c0 	mov.w	r3, #6144	; 0x1800
 8001982:	f2c4 0301 	movt	r3, #16385	; 0x4001
 8001986:	429c      	cmp	r4, r3
 8001988:	d010      	beq.n	80019ac <GPIO_ReadInputDataBit+0x64>
 800198a:	f44f 50e0 	mov.w	r0, #7168	; 0x1c00
 800198e:	f2c4 0001 	movt	r0, #16385	; 0x4001
 8001992:	4284      	cmp	r4, r0
 8001994:	d00a      	beq.n	80019ac <GPIO_ReadInputDataBit+0x64>
 8001996:	f44f 5100 	mov.w	r1, #8192	; 0x2000
 800199a:	f2c4 0101 	movt	r1, #16385	; 0x4001
 800199e:	428c      	cmp	r4, r1
 80019a0:	d004      	beq.n	80019ac <GPIO_ReadInputDataBit+0x64>
 80019a2:	481b      	ldr	r0, [pc, #108]	; (8001a10 <GPIO_ReadInputDataBit+0xc8>)
 80019a4:	f44f 718f 	mov.w	r1, #286	; 0x11e
 80019a8:	f7fe fccc 	bl	8000344 <assert_failed>
 80019ac:	1e6a      	subs	r2, r5, #1
 80019ae:	2a01      	cmp	r2, #1
 80019b0:	d928      	bls.n	8001a04 <GPIO_ReadInputDataBit+0xbc>
 80019b2:	2d04      	cmp	r5, #4
 80019b4:	d026      	beq.n	8001a04 <GPIO_ReadInputDataBit+0xbc>
 80019b6:	2d08      	cmp	r5, #8
 80019b8:	d024      	beq.n	8001a04 <GPIO_ReadInputDataBit+0xbc>
 80019ba:	2d10      	cmp	r5, #16
 80019bc:	d022      	beq.n	8001a04 <GPIO_ReadInputDataBit+0xbc>
 80019be:	2d20      	cmp	r5, #32
 80019c0:	d020      	beq.n	8001a04 <GPIO_ReadInputDataBit+0xbc>
 80019c2:	2d40      	cmp	r5, #64	; 0x40
 80019c4:	d01e      	beq.n	8001a04 <GPIO_ReadInputDataBit+0xbc>
 80019c6:	2d80      	cmp	r5, #128	; 0x80
 80019c8:	d01c      	beq.n	8001a04 <GPIO_ReadInputDataBit+0xbc>
 80019ca:	f5b5 7f80 	cmp.w	r5, #256	; 0x100
 80019ce:	d019      	beq.n	8001a04 <GPIO_ReadInputDataBit+0xbc>
 80019d0:	f5b5 7f00 	cmp.w	r5, #512	; 0x200
 80019d4:	d016      	beq.n	8001a04 <GPIO_ReadInputDataBit+0xbc>
 80019d6:	f5b5 6f80 	cmp.w	r5, #1024	; 0x400
 80019da:	d013      	beq.n	8001a04 <GPIO_ReadInputDataBit+0xbc>
 80019dc:	f5b5 6f00 	cmp.w	r5, #2048	; 0x800
 80019e0:	d010      	beq.n	8001a04 <GPIO_ReadInputDataBit+0xbc>
 80019e2:	f5b5 5f80 	cmp.w	r5, #4096	; 0x1000
 80019e6:	d00d      	beq.n	8001a04 <GPIO_ReadInputDataBit+0xbc>
 80019e8:	f5b5 5f00 	cmp.w	r5, #8192	; 0x2000
 80019ec:	d00a      	beq.n	8001a04 <GPIO_ReadInputDataBit+0xbc>
 80019ee:	f5b5 4f80 	cmp.w	r5, #16384	; 0x4000
 80019f2:	d007      	beq.n	8001a04 <GPIO_ReadInputDataBit+0xbc>
 80019f4:	f5b5 4f00 	cmp.w	r5, #32768	; 0x8000
 80019f8:	d004      	beq.n	8001a04 <GPIO_ReadInputDataBit+0xbc>
 80019fa:	4805      	ldr	r0, [pc, #20]	; (8001a10 <GPIO_ReadInputDataBit+0xc8>)
 80019fc:	f240 111f 	movw	r1, #287	; 0x11f
 8001a00:	f7fe fca0 	bl	8000344 <assert_failed>
 8001a04:	68a3      	ldr	r3, [r4, #8]
 8001a06:	421d      	tst	r5, r3
 8001a08:	bf0c      	ite	eq
 8001a0a:	2000      	moveq	r0, #0
 8001a0c:	2001      	movne	r0, #1
 8001a0e:	bd38      	pop	{r3, r4, r5, pc}
 8001a10:	08008804 	.word	0x08008804

08001a14 <GPIO_SetBits>:
 8001a14:	b538      	push	{r3, r4, r5, lr}
 8001a16:	f44f 6300 	mov.w	r3, #2048	; 0x800
 8001a1a:	f2c4 0301 	movt	r3, #16385	; 0x4001
 8001a1e:	4298      	cmp	r0, r3
 8001a20:	4604      	mov	r4, r0
 8001a22:	460d      	mov	r5, r1
 8001a24:	d028      	beq.n	8001a78 <GPIO_SetBits+0x64>
 8001a26:	f44f 6040 	mov.w	r0, #3072	; 0xc00
 8001a2a:	f2c4 0001 	movt	r0, #16385	; 0x4001
 8001a2e:	4284      	cmp	r4, r0
 8001a30:	d022      	beq.n	8001a78 <GPIO_SetBits+0x64>
 8001a32:	f44f 5180 	mov.w	r1, #4096	; 0x1000
 8001a36:	f2c4 0101 	movt	r1, #16385	; 0x4001
 8001a3a:	428c      	cmp	r4, r1
 8001a3c:	d01c      	beq.n	8001a78 <GPIO_SetBits+0x64>
 8001a3e:	f44f 52a0 	mov.w	r2, #5120	; 0x1400
 8001a42:	f2c4 0201 	movt	r2, #16385	; 0x4001
 8001a46:	4294      	cmp	r4, r2
 8001a48:	d016      	beq.n	8001a78 <GPIO_SetBits+0x64>
 8001a4a:	f44f 53c0 	mov.w	r3, #6144	; 0x1800
 8001a4e:	f2c4 0301 	movt	r3, #16385	; 0x4001
 8001a52:	429c      	cmp	r4, r3
 8001a54:	d010      	beq.n	8001a78 <GPIO_SetBits+0x64>
 8001a56:	f44f 50e0 	mov.w	r0, #7168	; 0x1c00
 8001a5a:	f2c4 0001 	movt	r0, #16385	; 0x4001
 8001a5e:	4284      	cmp	r4, r0
 8001a60:	d00a      	beq.n	8001a78 <GPIO_SetBits+0x64>
 8001a62:	f44f 5100 	mov.w	r1, #8192	; 0x2000
 8001a66:	f2c4 0101 	movt	r1, #16385	; 0x4001
 8001a6a:	428c      	cmp	r4, r1
 8001a6c:	d004      	beq.n	8001a78 <GPIO_SetBits+0x64>
 8001a6e:	4806      	ldr	r0, [pc, #24]	; (8001a88 <GPIO_SetBits+0x74>)
 8001a70:	f240 1169 	movw	r1, #361	; 0x169
 8001a74:	f7fe fc66 	bl	8000344 <assert_failed>
 8001a78:	b925      	cbnz	r5, 8001a84 <GPIO_SetBits+0x70>
 8001a7a:	4803      	ldr	r0, [pc, #12]	; (8001a88 <GPIO_SetBits+0x74>)
 8001a7c:	f44f 71b5 	mov.w	r1, #362	; 0x16a
 8001a80:	f7fe fc60 	bl	8000344 <assert_failed>
 8001a84:	6125      	str	r5, [r4, #16]
 8001a86:	bd38      	pop	{r3, r4, r5, pc}
 8001a88:	08008804 	.word	0x08008804

08001a8c <GPIO_ResetBits>:
 8001a8c:	b538      	push	{r3, r4, r5, lr}
 8001a8e:	f44f 6300 	mov.w	r3, #2048	; 0x800
 8001a92:	f2c4 0301 	movt	r3, #16385	; 0x4001
 8001a96:	4298      	cmp	r0, r3
 8001a98:	4604      	mov	r4, r0
 8001a9a:	460d      	mov	r5, r1
 8001a9c:	d028      	beq.n	8001af0 <GPIO_ResetBits+0x64>
 8001a9e:	f44f 6040 	mov.w	r0, #3072	; 0xc00
 8001aa2:	f2c4 0001 	movt	r0, #16385	; 0x4001
 8001aa6:	4284      	cmp	r4, r0
 8001aa8:	d022      	beq.n	8001af0 <GPIO_ResetBits+0x64>
 8001aaa:	f44f 5180 	mov.w	r1, #4096	; 0x1000
 8001aae:	f2c4 0101 	movt	r1, #16385	; 0x4001
 8001ab2:	428c      	cmp	r4, r1
 8001ab4:	d01c      	beq.n	8001af0 <GPIO_ResetBits+0x64>
 8001ab6:	f44f 52a0 	mov.w	r2, #5120	; 0x1400
 8001aba:	f2c4 0201 	movt	r2, #16385	; 0x4001
 8001abe:	4294      	cmp	r4, r2
 8001ac0:	d016      	beq.n	8001af0 <GPIO_ResetBits+0x64>
 8001ac2:	f44f 53c0 	mov.w	r3, #6144	; 0x1800
 8001ac6:	f2c4 0301 	movt	r3, #16385	; 0x4001
 8001aca:	429c      	cmp	r4, r3
 8001acc:	d010      	beq.n	8001af0 <GPIO_ResetBits+0x64>
 8001ace:	f44f 50e0 	mov.w	r0, #7168	; 0x1c00
 8001ad2:	f2c4 0001 	movt	r0, #16385	; 0x4001
 8001ad6:	4284      	cmp	r4, r0
 8001ad8:	d00a      	beq.n	8001af0 <GPIO_ResetBits+0x64>
 8001ada:	f44f 5100 	mov.w	r1, #8192	; 0x2000
 8001ade:	f2c4 0101 	movt	r1, #16385	; 0x4001
 8001ae2:	428c      	cmp	r4, r1
 8001ae4:	d004      	beq.n	8001af0 <GPIO_ResetBits+0x64>
 8001ae6:	4806      	ldr	r0, [pc, #24]	; (8001b00 <GPIO_ResetBits+0x74>)
 8001ae8:	f240 1179 	movw	r1, #377	; 0x179
 8001aec:	f7fe fc2a 	bl	8000344 <assert_failed>
 8001af0:	b925      	cbnz	r5, 8001afc <GPIO_ResetBits+0x70>
 8001af2:	4803      	ldr	r0, [pc, #12]	; (8001b00 <GPIO_ResetBits+0x74>)
 8001af4:	f44f 71bd 	mov.w	r1, #378	; 0x17a
 8001af8:	f7fe fc24 	bl	8000344 <assert_failed>
 8001afc:	6165      	str	r5, [r4, #20]
 8001afe:	bd38      	pop	{r3, r4, r5, pc}
 8001b00:	08008804 	.word	0x08008804

08001b04 <GPIO_PinRemapConfig>:
 8001b04:	b538      	push	{r3, r4, r5, lr}
 8001b06:	1e43      	subs	r3, r0, #1
 8001b08:	2b01      	cmp	r3, #1
 8001b0a:	4604      	mov	r4, r0
 8001b0c:	460d      	mov	r5, r1
 8001b0e:	f240 80e7 	bls.w	8001ce0 <GPIO_PinRemapConfig+0x1dc>
 8001b12:	2804      	cmp	r0, #4
 8001b14:	f000 80e4 	beq.w	8001ce0 <GPIO_PinRemapConfig+0x1dc>
 8001b18:	2808      	cmp	r0, #8
 8001b1a:	f000 80e1 	beq.w	8001ce0 <GPIO_PinRemapConfig+0x1dc>
 8001b1e:	2010      	movs	r0, #16
 8001b20:	f2c0 0014 	movt	r0, #20
 8001b24:	4284      	cmp	r4, r0
 8001b26:	f000 80db 	beq.w	8001ce0 <GPIO_PinRemapConfig+0x1dc>
 8001b2a:	2130      	movs	r1, #48	; 0x30
 8001b2c:	f2c0 0114 	movt	r1, #20
 8001b30:	428c      	cmp	r4, r1
 8001b32:	f000 80d5 	beq.w	8001ce0 <GPIO_PinRemapConfig+0x1dc>
 8001b36:	2240      	movs	r2, #64	; 0x40
 8001b38:	f2c0 0216 	movt	r2, #22
 8001b3c:	4294      	cmp	r4, r2
 8001b3e:	f000 80cf 	beq.w	8001ce0 <GPIO_PinRemapConfig+0x1dc>
 8001b42:	23c0      	movs	r3, #192	; 0xc0
 8001b44:	f2c0 0316 	movt	r3, #22
 8001b48:	429c      	cmp	r4, r3
 8001b4a:	f000 80c9 	beq.w	8001ce0 <GPIO_PinRemapConfig+0x1dc>
 8001b4e:	f44f 7080 	mov.w	r0, #256	; 0x100
 8001b52:	f2c0 0018 	movt	r0, #24
 8001b56:	4284      	cmp	r4, r0
 8001b58:	f000 80c2 	beq.w	8001ce0 <GPIO_PinRemapConfig+0x1dc>
 8001b5c:	f44f 7100 	mov.w	r1, #512	; 0x200
 8001b60:	f2c0 0118 	movt	r1, #24
 8001b64:	428c      	cmp	r4, r1
 8001b66:	f000 80bb 	beq.w	8001ce0 <GPIO_PinRemapConfig+0x1dc>
 8001b6a:	f44f 7240 	mov.w	r2, #768	; 0x300
 8001b6e:	f2c0 0218 	movt	r2, #24
 8001b72:	4294      	cmp	r4, r2
 8001b74:	f000 80b4 	beq.w	8001ce0 <GPIO_PinRemapConfig+0x1dc>
 8001b78:	f44f 6300 	mov.w	r3, #2048	; 0x800
 8001b7c:	f2c0 031a 	movt	r3, #26
 8001b80:	429c      	cmp	r4, r3
 8001b82:	f000 80ad 	beq.w	8001ce0 <GPIO_PinRemapConfig+0x1dc>
 8001b86:	f44f 6040 	mov.w	r0, #3072	; 0xc00
 8001b8a:	f2c0 001a 	movt	r0, #26
 8001b8e:	4284      	cmp	r4, r0
 8001b90:	f000 80a6 	beq.w	8001ce0 <GPIO_PinRemapConfig+0x1dc>
 8001b94:	f5b4 5f80 	cmp.w	r4, #4096	; 0x1000
 8001b98:	f000 80a2 	beq.w	8001ce0 <GPIO_PinRemapConfig+0x1dc>
 8001b9c:	f5b4 1fea 	cmp.w	r4, #1916928	; 0x1d4000
 8001ba0:	f000 809e 	beq.w	8001ce0 <GPIO_PinRemapConfig+0x1dc>
 8001ba4:	f5b4 1feb 	cmp.w	r4, #1925120	; 0x1d6000
 8001ba8:	f000 809a 	beq.w	8001ce0 <GPIO_PinRemapConfig+0x1dc>
 8001bac:	f5b4 4f00 	cmp.w	r4, #32768	; 0x8000
 8001bb0:	f000 8096 	beq.w	8001ce0 <GPIO_PinRemapConfig+0x1dc>
 8001bb4:	2101      	movs	r1, #1
 8001bb6:	f2c0 0120 	movt	r1, #32
 8001bba:	428c      	cmp	r4, r1
 8001bbc:	f000 8090 	beq.w	8001ce0 <GPIO_PinRemapConfig+0x1dc>
 8001bc0:	2202      	movs	r2, #2
 8001bc2:	f2c0 0220 	movt	r2, #32
 8001bc6:	4294      	cmp	r4, r2
 8001bc8:	f000 808a 	beq.w	8001ce0 <GPIO_PinRemapConfig+0x1dc>
 8001bcc:	2304      	movs	r3, #4
 8001bce:	f2c0 0320 	movt	r3, #32
 8001bd2:	429c      	cmp	r4, r3
 8001bd4:	f000 8084 	beq.w	8001ce0 <GPIO_PinRemapConfig+0x1dc>
 8001bd8:	2008      	movs	r0, #8
 8001bda:	f2c0 0020 	movt	r0, #32
 8001bde:	4284      	cmp	r4, r0
 8001be0:	d07e      	beq.n	8001ce0 <GPIO_PinRemapConfig+0x1dc>
 8001be2:	2110      	movs	r1, #16
 8001be4:	f2c0 0120 	movt	r1, #32
 8001be8:	428c      	cmp	r4, r1
 8001bea:	d079      	beq.n	8001ce0 <GPIO_PinRemapConfig+0x1dc>
 8001bec:	f1b4 1f20 	cmp.w	r4, #2097184	; 0x200020
 8001bf0:	d076      	beq.n	8001ce0 <GPIO_PinRemapConfig+0x1dc>
 8001bf2:	2240      	movs	r2, #64	; 0x40
 8001bf4:	f2c0 0220 	movt	r2, #32
 8001bf8:	4294      	cmp	r4, r2
 8001bfa:	d071      	beq.n	8001ce0 <GPIO_PinRemapConfig+0x1dc>
 8001bfc:	f44f 7380 	mov.w	r3, #256	; 0x100
 8001c00:	f2c0 0330 	movt	r3, #48	; 0x30
 8001c04:	429c      	cmp	r4, r3
 8001c06:	d06b      	beq.n	8001ce0 <GPIO_PinRemapConfig+0x1dc>
 8001c08:	f44f 7000 	mov.w	r0, #512	; 0x200
 8001c0c:	f2c0 0030 	movt	r0, #48	; 0x30
 8001c10:	4284      	cmp	r4, r0
 8001c12:	d065      	beq.n	8001ce0 <GPIO_PinRemapConfig+0x1dc>
 8001c14:	f44f 6180 	mov.w	r1, #1024	; 0x400
 8001c18:	f2c0 0130 	movt	r1, #48	; 0x30
 8001c1c:	428c      	cmp	r4, r1
 8001c1e:	d05f      	beq.n	8001ce0 <GPIO_PinRemapConfig+0x1dc>
 8001c20:	f44f 5288 	mov.w	r2, #4352	; 0x1100
 8001c24:	f2c0 0220 	movt	r2, #32
 8001c28:	4294      	cmp	r4, r2
 8001c2a:	d059      	beq.n	8001ce0 <GPIO_PinRemapConfig+0x1dc>
 8001c2c:	f44f 5300 	mov.w	r3, #8192	; 0x2000
 8001c30:	f2c0 0320 	movt	r3, #32
 8001c34:	429c      	cmp	r4, r3
 8001c36:	d053      	beq.n	8001ce0 <GPIO_PinRemapConfig+0x1dc>
 8001c38:	f5b4 1f01 	cmp.w	r4, #2113536	; 0x204000
 8001c3c:	d050      	beq.n	8001ce0 <GPIO_PinRemapConfig+0x1dc>
 8001c3e:	2001      	movs	r0, #1
 8001c40:	f2c8 0000 	movt	r0, #32768	; 0x8000
 8001c44:	4284      	cmp	r4, r0
 8001c46:	d04b      	beq.n	8001ce0 <GPIO_PinRemapConfig+0x1dc>
 8001c48:	2102      	movs	r1, #2
 8001c4a:	f2c8 0100 	movt	r1, #32768	; 0x8000
 8001c4e:	428c      	cmp	r4, r1
 8001c50:	d046      	beq.n	8001ce0 <GPIO_PinRemapConfig+0x1dc>
 8001c52:	2204      	movs	r2, #4
 8001c54:	f2c8 0200 	movt	r2, #32768	; 0x8000
 8001c58:	4294      	cmp	r4, r2
 8001c5a:	d041      	beq.n	8001ce0 <GPIO_PinRemapConfig+0x1dc>
 8001c5c:	2308      	movs	r3, #8
 8001c5e:	f2c8 0300 	movt	r3, #32768	; 0x8000
 8001c62:	429c      	cmp	r4, r3
 8001c64:	d03c      	beq.n	8001ce0 <GPIO_PinRemapConfig+0x1dc>
 8001c66:	2010      	movs	r0, #16
 8001c68:	f2c8 0000 	movt	r0, #32768	; 0x8000
 8001c6c:	4284      	cmp	r4, r0
 8001c6e:	d037      	beq.n	8001ce0 <GPIO_PinRemapConfig+0x1dc>
 8001c70:	2120      	movs	r1, #32
 8001c72:	f2c8 0100 	movt	r1, #32768	; 0x8000
 8001c76:	428c      	cmp	r4, r1
 8001c78:	d032      	beq.n	8001ce0 <GPIO_PinRemapConfig+0x1dc>
 8001c7a:	2240      	movs	r2, #64	; 0x40
 8001c7c:	f2c8 0200 	movt	r2, #32768	; 0x8000
 8001c80:	4294      	cmp	r4, r2
 8001c82:	d02d      	beq.n	8001ce0 <GPIO_PinRemapConfig+0x1dc>
 8001c84:	2380      	movs	r3, #128	; 0x80
 8001c86:	f2c8 0300 	movt	r3, #32768	; 0x8000
 8001c8a:	429c      	cmp	r4, r3
 8001c8c:	d028      	beq.n	8001ce0 <GPIO_PinRemapConfig+0x1dc>
 8001c8e:	f44f 7080 	mov.w	r0, #256	; 0x100
 8001c92:	f2c8 0000 	movt	r0, #32768	; 0x8000
 8001c96:	4284      	cmp	r4, r0
 8001c98:	d022      	beq.n	8001ce0 <GPIO_PinRemapConfig+0x1dc>
 8001c9a:	f44f 7100 	mov.w	r1, #512	; 0x200
 8001c9e:	f2c8 0100 	movt	r1, #32768	; 0x8000
 8001ca2:	428c      	cmp	r4, r1
 8001ca4:	d01c      	beq.n	8001ce0 <GPIO_PinRemapConfig+0x1dc>
 8001ca6:	f44f 6280 	mov.w	r2, #1024	; 0x400
 8001caa:	f2c8 0200 	movt	r2, #32768	; 0x8000
 8001cae:	4294      	cmp	r4, r2
 8001cb0:	d016      	beq.n	8001ce0 <GPIO_PinRemapConfig+0x1dc>
 8001cb2:	f44f 6300 	mov.w	r3, #2048	; 0x800
 8001cb6:	f2c8 0300 	movt	r3, #32768	; 0x8000
 8001cba:	429c      	cmp	r4, r3
 8001cbc:	d010      	beq.n	8001ce0 <GPIO_PinRemapConfig+0x1dc>
 8001cbe:	f44f 5080 	mov.w	r0, #4096	; 0x1000
 8001cc2:	f2c8 0000 	movt	r0, #32768	; 0x8000
 8001cc6:	4284      	cmp	r4, r0
 8001cc8:	d00a      	beq.n	8001ce0 <GPIO_PinRemapConfig+0x1dc>
 8001cca:	f44f 5100 	mov.w	r1, #8192	; 0x2000
 8001cce:	f2c8 0100 	movt	r1, #32768	; 0x8000
 8001cd2:	428c      	cmp	r4, r1
 8001cd4:	d004      	beq.n	8001ce0 <GPIO_PinRemapConfig+0x1dc>
 8001cd6:	4822      	ldr	r0, [pc, #136]	; (8001d60 <GPIO_PinRemapConfig+0x25c>)
 8001cd8:	f240 212a 	movw	r1, #554	; 0x22a
 8001cdc:	f7fe fb32 	bl	8000344 <assert_failed>
 8001ce0:	2d01      	cmp	r5, #1
 8001ce2:	d904      	bls.n	8001cee <GPIO_PinRemapConfig+0x1ea>
 8001ce4:	481e      	ldr	r0, [pc, #120]	; (8001d60 <GPIO_PinRemapConfig+0x25c>)
 8001ce6:	f240 212b 	movw	r1, #555	; 0x22b
 8001cea:	f7fe fb2b 	bl	8000344 <assert_failed>
 8001cee:	2300      	movs	r3, #0
 8001cf0:	f2c4 0301 	movt	r3, #16385	; 0x4001
 8001cf4:	2c00      	cmp	r4, #0
 8001cf6:	f404 1240 	and.w	r2, r4, #3145728	; 0x300000
 8001cfa:	bfb4      	ite	lt
 8001cfc:	69db      	ldrlt	r3, [r3, #28]
 8001cfe:	685b      	ldrge	r3, [r3, #4]
 8001d00:	f5b2 1f40 	cmp.w	r2, #3145728	; 0x300000
 8001d04:	b2a1      	uxth	r1, r4
 8001d06:	d021      	beq.n	8001d4c <GPIO_PinRemapConfig+0x248>
 8001d08:	02e2      	lsls	r2, r4, #11
 8001d0a:	d516      	bpl.n	8001d3a <GPIO_PinRemapConfig+0x236>
 8001d0c:	f3c4 4203 	ubfx	r2, r4, #16, #4
 8001d10:	2003      	movs	r0, #3
 8001d12:	fa00 f202 	lsl.w	r2, r0, r2
 8001d16:	ea23 0302 	bic.w	r3, r3, r2
 8001d1a:	f043 6370 	orr.w	r3, r3, #251658240	; 0xf000000
 8001d1e:	b125      	cbz	r5, 8001d2a <GPIO_PinRemapConfig+0x226>
 8001d20:	0d62      	lsrs	r2, r4, #21
 8001d22:	0110      	lsls	r0, r2, #4
 8001d24:	fa01 f100 	lsl.w	r1, r1, r0
 8001d28:	430b      	orrs	r3, r1
 8001d2a:	2100      	movs	r1, #0
 8001d2c:	f2c4 0101 	movt	r1, #16385	; 0x4001
 8001d30:	2c00      	cmp	r4, #0
 8001d32:	bfb4      	ite	lt
 8001d34:	61cb      	strlt	r3, [r1, #28]
 8001d36:	604b      	strge	r3, [r1, #4]
 8001d38:	bd38      	pop	{r3, r4, r5, pc}
 8001d3a:	0d60      	lsrs	r0, r4, #21
 8001d3c:	0102      	lsls	r2, r0, #4
 8001d3e:	fa01 f002 	lsl.w	r0, r1, r2
 8001d42:	ea23 0300 	bic.w	r3, r3, r0
 8001d46:	f043 6370 	orr.w	r3, r3, #251658240	; 0xf000000
 8001d4a:	e7e8      	b.n	8001d1e <GPIO_PinRemapConfig+0x21a>
 8001d4c:	2200      	movs	r2, #0
 8001d4e:	f2c4 0201 	movt	r2, #16385	; 0x4001
 8001d52:	6850      	ldr	r0, [r2, #4]
 8001d54:	f023 6370 	bic.w	r3, r3, #251658240	; 0xf000000
 8001d58:	f020 6070 	bic.w	r0, r0, #251658240	; 0xf000000
 8001d5c:	6050      	str	r0, [r2, #4]
 8001d5e:	e7de      	b.n	8001d1e <GPIO_PinRemapConfig+0x21a>
 8001d60:	08008804 	.word	0x08008804

08001d64 <USART_Init>:
 8001d64:	b570      	push	{r4, r5, r6, lr}
 8001d66:	f44f 5360 	mov.w	r3, #14336	; 0x3800
 8001d6a:	f2c4 0301 	movt	r3, #16385	; 0x4001
 8001d6e:	4298      	cmp	r0, r3
 8001d70:	b086      	sub	sp, #24
 8001d72:	4604      	mov	r4, r0
 8001d74:	460d      	mov	r5, r1
 8001d76:	d01b      	beq.n	8001db0 <USART_Init+0x4c>
 8001d78:	f44f 4088 	mov.w	r0, #17408	; 0x4400
 8001d7c:	f2c4 0000 	movt	r0, #16384	; 0x4000
 8001d80:	4284      	cmp	r4, r0
 8001d82:	d015      	beq.n	8001db0 <USART_Init+0x4c>
 8001d84:	f44f 4190 	mov.w	r1, #18432	; 0x4800
 8001d88:	f2c4 0100 	movt	r1, #16384	; 0x4000
 8001d8c:	428c      	cmp	r4, r1
 8001d8e:	d00f      	beq.n	8001db0 <USART_Init+0x4c>
 8001d90:	f44f 4298 	mov.w	r2, #19456	; 0x4c00
 8001d94:	f2c4 0200 	movt	r2, #16384	; 0x4000
 8001d98:	4294      	cmp	r4, r2
 8001d9a:	d009      	beq.n	8001db0 <USART_Init+0x4c>
 8001d9c:	f44f 46a0 	mov.w	r6, #20480	; 0x5000
 8001da0:	f2c4 0600 	movt	r6, #16384	; 0x4000
 8001da4:	42b4      	cmp	r4, r6
 8001da6:	d003      	beq.n	8001db0 <USART_Init+0x4c>
 8001da8:	4867      	ldr	r0, [pc, #412]	; (8001f48 <USART_Init+0x1e4>)
 8001daa:	21b8      	movs	r1, #184	; 0xb8
 8001dac:	f7fe faca 	bl	8000344 <assert_failed>
 8001db0:	6828      	ldr	r0, [r5, #0]
 8001db2:	f64a 231f 	movw	r3, #43551	; 0xaa1f
 8001db6:	1e41      	subs	r1, r0, #1
 8001db8:	f2c0 0344 	movt	r3, #68	; 0x44
 8001dbc:	4299      	cmp	r1, r3
 8001dbe:	f200 80ac 	bhi.w	8001f1a <USART_Init+0x1b6>
 8001dc2:	88aa      	ldrh	r2, [r5, #4]
 8001dc4:	b132      	cbz	r2, 8001dd4 <USART_Init+0x70>
 8001dc6:	f5b2 5f80 	cmp.w	r2, #4096	; 0x1000
 8001dca:	d003      	beq.n	8001dd4 <USART_Init+0x70>
 8001dcc:	485e      	ldr	r0, [pc, #376]	; (8001f48 <USART_Init+0x1e4>)
 8001dce:	21ba      	movs	r1, #186	; 0xba
 8001dd0:	f7fe fab8 	bl	8000344 <assert_failed>
 8001dd4:	88ee      	ldrh	r6, [r5, #6]
 8001dd6:	b166      	cbz	r6, 8001df2 <USART_Init+0x8e>
 8001dd8:	f5b6 5f80 	cmp.w	r6, #4096	; 0x1000
 8001ddc:	d009      	beq.n	8001df2 <USART_Init+0x8e>
 8001dde:	f5b6 5f00 	cmp.w	r6, #8192	; 0x2000
 8001de2:	d006      	beq.n	8001df2 <USART_Init+0x8e>
 8001de4:	f5b6 5f40 	cmp.w	r6, #12288	; 0x3000
 8001de8:	d003      	beq.n	8001df2 <USART_Init+0x8e>
 8001dea:	4857      	ldr	r0, [pc, #348]	; (8001f48 <USART_Init+0x1e4>)
 8001dec:	21bb      	movs	r1, #187	; 0xbb
 8001dee:	f7fe faa9 	bl	8000344 <assert_failed>
 8001df2:	8928      	ldrh	r0, [r5, #8]
 8001df4:	b148      	cbz	r0, 8001e0a <USART_Init+0xa6>
 8001df6:	f5b0 6f80 	cmp.w	r0, #1024	; 0x400
 8001dfa:	d006      	beq.n	8001e0a <USART_Init+0xa6>
 8001dfc:	f5b0 6fc0 	cmp.w	r0, #1536	; 0x600
 8001e00:	d003      	beq.n	8001e0a <USART_Init+0xa6>
 8001e02:	4851      	ldr	r0, [pc, #324]	; (8001f48 <USART_Init+0x1e4>)
 8001e04:	21bc      	movs	r1, #188	; 0xbc
 8001e06:	f7fe fa9d 	bl	8000344 <assert_failed>
 8001e0a:	8969      	ldrh	r1, [r5, #10]
 8001e0c:	f64f 73f3 	movw	r3, #65523	; 0xfff3
 8001e10:	400b      	ands	r3, r1
 8001e12:	bb4b      	cbnz	r3, 8001e68 <USART_Init+0x104>
 8001e14:	b341      	cbz	r1, 8001e68 <USART_Init+0x104>
 8001e16:	89ae      	ldrh	r6, [r5, #12]
 8001e18:	b36e      	cbz	r6, 8001e76 <USART_Init+0x112>
 8001e1a:	f5b6 7f80 	cmp.w	r6, #256	; 0x100
 8001e1e:	d00b      	beq.n	8001e38 <USART_Init+0xd4>
 8001e20:	f5b6 7f00 	cmp.w	r6, #512	; 0x200
 8001e24:	d008      	beq.n	8001e38 <USART_Init+0xd4>
 8001e26:	f5b6 7f40 	cmp.w	r6, #768	; 0x300
 8001e2a:	d005      	beq.n	8001e38 <USART_Init+0xd4>
 8001e2c:	4846      	ldr	r0, [pc, #280]	; (8001f48 <USART_Init+0x1e4>)
 8001e2e:	21be      	movs	r1, #190	; 0xbe
 8001e30:	f7fe fa88 	bl	8000344 <assert_failed>
 8001e34:	89ae      	ldrh	r6, [r5, #12]
 8001e36:	b1f6      	cbz	r6, 8001e76 <USART_Init+0x112>
 8001e38:	f44f 5260 	mov.w	r2, #14336	; 0x3800
 8001e3c:	f2c4 0201 	movt	r2, #16385	; 0x4001
 8001e40:	4294      	cmp	r4, r2
 8001e42:	d018      	beq.n	8001e76 <USART_Init+0x112>
 8001e44:	f44f 4088 	mov.w	r0, #17408	; 0x4400
 8001e48:	f2c4 0000 	movt	r0, #16384	; 0x4000
 8001e4c:	4284      	cmp	r4, r0
 8001e4e:	d012      	beq.n	8001e76 <USART_Init+0x112>
 8001e50:	f44f 4190 	mov.w	r1, #18432	; 0x4800
 8001e54:	f2c4 0100 	movt	r1, #16384	; 0x4000
 8001e58:	428c      	cmp	r4, r1
 8001e5a:	d00c      	beq.n	8001e76 <USART_Init+0x112>
 8001e5c:	21c2      	movs	r1, #194	; 0xc2
 8001e5e:	483a      	ldr	r0, [pc, #232]	; (8001f48 <USART_Init+0x1e4>)
 8001e60:	f7fe fa70 	bl	8000344 <assert_failed>
 8001e64:	89a9      	ldrh	r1, [r5, #12]
 8001e66:	e007      	b.n	8001e78 <USART_Init+0x114>
 8001e68:	4837      	ldr	r0, [pc, #220]	; (8001f48 <USART_Init+0x1e4>)
 8001e6a:	21bd      	movs	r1, #189	; 0xbd
 8001e6c:	f7fe fa6a 	bl	8000344 <assert_failed>
 8001e70:	89ae      	ldrh	r6, [r5, #12]
 8001e72:	2e00      	cmp	r6, #0
 8001e74:	d1d1      	bne.n	8001e1a <USART_Init+0xb6>
 8001e76:	4631      	mov	r1, r6
 8001e78:	8a26      	ldrh	r6, [r4, #16]
 8001e7a:	88eb      	ldrh	r3, [r5, #6]
 8001e7c:	f426 5240 	bic.w	r2, r6, #12288	; 0x3000
 8001e80:	0410      	lsls	r0, r2, #16
 8001e82:	0c06      	lsrs	r6, r0, #16
 8001e84:	431e      	orrs	r6, r3
 8001e86:	8226      	strh	r6, [r4, #16]
 8001e88:	89a3      	ldrh	r3, [r4, #12]
 8001e8a:	88aa      	ldrh	r2, [r5, #4]
 8001e8c:	892e      	ldrh	r6, [r5, #8]
 8001e8e:	f423 53b0 	bic.w	r3, r3, #5632	; 0x1600
 8001e92:	8968      	ldrh	r0, [r5, #10]
 8001e94:	f023 030c 	bic.w	r3, r3, #12
 8001e98:	4316      	orrs	r6, r2
 8001e9a:	041a      	lsls	r2, r3, #16
 8001e9c:	4306      	orrs	r6, r0
 8001e9e:	0c10      	lsrs	r0, r2, #16
 8001ea0:	ea46 0300 	orr.w	r3, r6, r0
 8001ea4:	b29e      	uxth	r6, r3
 8001ea6:	81a6      	strh	r6, [r4, #12]
 8001ea8:	8aa2      	ldrh	r2, [r4, #20]
 8001eaa:	a801      	add	r0, sp, #4
 8001eac:	f422 7340 	bic.w	r3, r2, #768	; 0x300
 8001eb0:	041e      	lsls	r6, r3, #16
 8001eb2:	0c32      	lsrs	r2, r6, #16
 8001eb4:	4311      	orrs	r1, r2
 8001eb6:	b28b      	uxth	r3, r1
 8001eb8:	82a3      	strh	r3, [r4, #20]
 8001eba:	f7fe fe1b 	bl	8000af4 <RCC_GetClocksFreq>
 8001ebe:	f44f 5660 	mov.w	r6, #14336	; 0x3800
 8001ec2:	89a0      	ldrh	r0, [r4, #12]
 8001ec4:	f2c4 0601 	movt	r6, #16385	; 0x4001
 8001ec8:	42b4      	cmp	r4, r6
 8001eca:	b202      	sxth	r2, r0
 8001ecc:	bf0c      	ite	eq
 8001ece:	9e04      	ldreq	r6, [sp, #16]
 8001ed0:	9e03      	ldrne	r6, [sp, #12]
 8001ed2:	2a00      	cmp	r2, #0
 8001ed4:	db26      	blt.n	8001f24 <USART_Init+0x1c0>
 8001ed6:	682d      	ldr	r5, [r5, #0]
 8001ed8:	eb06 0186 	add.w	r1, r6, r6, lsl #2
 8001edc:	eb01 0381 	add.w	r3, r1, r1, lsl #2
 8001ee0:	00ae      	lsls	r6, r5, #2
 8001ee2:	fbb3 f1f6 	udiv	r1, r3, r6
 8001ee6:	f248 531f 	movw	r3, #34079	; 0x851f
 8001eea:	f2c5 13eb 	movt	r3, #20971	; 0x51eb
 8001eee:	fba3 0601 	umull	r0, r6, r3, r1
 8001ef2:	89a0      	ldrh	r0, [r4, #12]
 8001ef4:	0972      	lsrs	r2, r6, #5
 8001ef6:	b200      	sxth	r0, r0
 8001ef8:	2564      	movs	r5, #100	; 0x64
 8001efa:	0116      	lsls	r6, r2, #4
 8001efc:	2800      	cmp	r0, #0
 8001efe:	fb02 1115 	mls	r1, r2, r5, r1
 8001f02:	db18      	blt.n	8001f36 <USART_Init+0x1d2>
 8001f04:	010a      	lsls	r2, r1, #4
 8001f06:	3232      	adds	r2, #50	; 0x32
 8001f08:	fba3 0302 	umull	r0, r3, r3, r2
 8001f0c:	f3c3 1043 	ubfx	r0, r3, #5, #4
 8001f10:	4330      	orrs	r0, r6
 8001f12:	b283      	uxth	r3, r0
 8001f14:	8123      	strh	r3, [r4, #8]
 8001f16:	b006      	add	sp, #24
 8001f18:	bd70      	pop	{r4, r5, r6, pc}
 8001f1a:	480b      	ldr	r0, [pc, #44]	; (8001f48 <USART_Init+0x1e4>)
 8001f1c:	21b9      	movs	r1, #185	; 0xb9
 8001f1e:	f7fe fa11 	bl	8000344 <assert_failed>
 8001f22:	e74e      	b.n	8001dc2 <USART_Init+0x5e>
 8001f24:	6828      	ldr	r0, [r5, #0]
 8001f26:	eb06 0286 	add.w	r2, r6, r6, lsl #2
 8001f2a:	eb02 0582 	add.w	r5, r2, r2, lsl #2
 8001f2e:	0043      	lsls	r3, r0, #1
 8001f30:	fbb5 f1f3 	udiv	r1, r5, r3
 8001f34:	e7d7      	b.n	8001ee6 <USART_Init+0x182>
 8001f36:	00c9      	lsls	r1, r1, #3
 8001f38:	3132      	adds	r1, #50	; 0x32
 8001f3a:	fba3 1201 	umull	r1, r2, r3, r1
 8001f3e:	f3c2 1042 	ubfx	r0, r2, #5, #3
 8001f42:	4330      	orrs	r0, r6
 8001f44:	e7e5      	b.n	8001f12 <USART_Init+0x1ae>
 8001f46:	bf00      	nop
 8001f48:	08008840 	.word	0x08008840

08001f4c <USART_Cmd>:
 8001f4c:	b538      	push	{r3, r4, r5, lr}
 8001f4e:	f44f 5360 	mov.w	r3, #14336	; 0x3800
 8001f52:	f2c4 0301 	movt	r3, #16385	; 0x4001
 8001f56:	4298      	cmp	r0, r3
 8001f58:	4604      	mov	r4, r0
 8001f5a:	460d      	mov	r5, r1
 8001f5c:	d01c      	beq.n	8001f98 <USART_Cmd+0x4c>
 8001f5e:	f44f 4088 	mov.w	r0, #17408	; 0x4400
 8001f62:	f2c4 0000 	movt	r0, #16384	; 0x4000
 8001f66:	4284      	cmp	r4, r0
 8001f68:	d016      	beq.n	8001f98 <USART_Cmd+0x4c>
 8001f6a:	f44f 4190 	mov.w	r1, #18432	; 0x4800
 8001f6e:	f2c4 0100 	movt	r1, #16384	; 0x4000
 8001f72:	428c      	cmp	r4, r1
 8001f74:	d010      	beq.n	8001f98 <USART_Cmd+0x4c>
 8001f76:	f44f 4298 	mov.w	r2, #19456	; 0x4c00
 8001f7a:	f2c4 0200 	movt	r2, #16384	; 0x4000
 8001f7e:	4294      	cmp	r4, r2
 8001f80:	d00a      	beq.n	8001f98 <USART_Cmd+0x4c>
 8001f82:	f44f 43a0 	mov.w	r3, #20480	; 0x5000
 8001f86:	f2c4 0300 	movt	r3, #16384	; 0x4000
 8001f8a:	429c      	cmp	r4, r3
 8001f8c:	d004      	beq.n	8001f98 <USART_Cmd+0x4c>
 8001f8e:	480d      	ldr	r0, [pc, #52]	; (8001fc4 <USART_Cmd+0x78>)
 8001f90:	f44f 71b1 	mov.w	r1, #354	; 0x162
 8001f94:	f7fe f9d6 	bl	8000344 <assert_failed>
 8001f98:	2d01      	cmp	r5, #1
 8001f9a:	d90a      	bls.n	8001fb2 <USART_Cmd+0x66>
 8001f9c:	4809      	ldr	r0, [pc, #36]	; (8001fc4 <USART_Cmd+0x78>)
 8001f9e:	f240 1163 	movw	r1, #355	; 0x163
 8001fa2:	f7fe f9cf 	bl	8000344 <assert_failed>
 8001fa6:	89a0      	ldrh	r0, [r4, #12]
 8001fa8:	b281      	uxth	r1, r0
 8001faa:	f441 5200 	orr.w	r2, r1, #8192	; 0x2000
 8001fae:	81a2      	strh	r2, [r4, #12]
 8001fb0:	bd38      	pop	{r3, r4, r5, pc}
 8001fb2:	2d00      	cmp	r5, #0
 8001fb4:	d1f7      	bne.n	8001fa6 <USART_Cmd+0x5a>
 8001fb6:	89a0      	ldrh	r0, [r4, #12]
 8001fb8:	f420 5100 	bic.w	r1, r0, #8192	; 0x2000
 8001fbc:	040a      	lsls	r2, r1, #16
 8001fbe:	0c13      	lsrs	r3, r2, #16
 8001fc0:	81a3      	strh	r3, [r4, #12]
 8001fc2:	bd38      	pop	{r3, r4, r5, pc}
 8001fc4:	08008840 	.word	0x08008840

08001fc8 <USART_ITConfig>:
 8001fc8:	f44f 5360 	mov.w	r3, #14336	; 0x3800
 8001fcc:	f2c4 0301 	movt	r3, #16385	; 0x4001
 8001fd0:	4298      	cmp	r0, r3
 8001fd2:	b570      	push	{r4, r5, r6, lr}
 8001fd4:	4605      	mov	r5, r0
 8001fd6:	460c      	mov	r4, r1
 8001fd8:	4616      	mov	r6, r2
 8001fda:	d01c      	beq.n	8002016 <USART_ITConfig+0x4e>
 8001fdc:	f44f 4088 	mov.w	r0, #17408	; 0x4400
 8001fe0:	f2c4 0000 	movt	r0, #16384	; 0x4000
 8001fe4:	4285      	cmp	r5, r0
 8001fe6:	d016      	beq.n	8002016 <USART_ITConfig+0x4e>
 8001fe8:	f44f 4190 	mov.w	r1, #18432	; 0x4800
 8001fec:	f2c4 0100 	movt	r1, #16384	; 0x4000
 8001ff0:	428d      	cmp	r5, r1
 8001ff2:	d010      	beq.n	8002016 <USART_ITConfig+0x4e>
 8001ff4:	f44f 4298 	mov.w	r2, #19456	; 0x4c00
 8001ff8:	f2c4 0200 	movt	r2, #16384	; 0x4000
 8001ffc:	4295      	cmp	r5, r2
 8001ffe:	d00a      	beq.n	8002016 <USART_ITConfig+0x4e>
 8002000:	f44f 43a0 	mov.w	r3, #20480	; 0x5000
 8002004:	f2c4 0300 	movt	r3, #16384	; 0x4000
 8002008:	429d      	cmp	r5, r3
 800200a:	d004      	beq.n	8002016 <USART_ITConfig+0x4e>
 800200c:	4833      	ldr	r0, [pc, #204]	; (80020dc <USART_ITConfig+0x114>)
 800200e:	f240 1189 	movw	r1, #393	; 0x189
 8002012:	f7fe f997 	bl	8000344 <assert_failed>
 8002016:	2c28      	cmp	r4, #40	; 0x28
 8002018:	d01e      	beq.n	8002058 <USART_ITConfig+0x90>
 800201a:	f240 7027 	movw	r0, #1831	; 0x727
 800201e:	4284      	cmp	r4, r0
 8002020:	d01a      	beq.n	8002058 <USART_ITConfig+0x90>
 8002022:	f240 6126 	movw	r1, #1574	; 0x626
 8002026:	428c      	cmp	r4, r1
 8002028:	d016      	beq.n	8002058 <USART_ITConfig+0x90>
 800202a:	f240 5225 	movw	r2, #1317	; 0x525
 800202e:	4294      	cmp	r4, r2
 8002030:	d012      	beq.n	8002058 <USART_ITConfig+0x90>
 8002032:	f240 4324 	movw	r3, #1060	; 0x424
 8002036:	429c      	cmp	r4, r3
 8002038:	d00e      	beq.n	8002058 <USART_ITConfig+0x90>
 800203a:	f640 0046 	movw	r0, #2118	; 0x846
 800203e:	4284      	cmp	r4, r0
 8002040:	d00a      	beq.n	8002058 <USART_ITConfig+0x90>
 8002042:	f500 7192 	add.w	r1, r0, #292	; 0x124
 8002046:	428c      	cmp	r4, r1
 8002048:	d006      	beq.n	8002058 <USART_ITConfig+0x90>
 800204a:	2c60      	cmp	r4, #96	; 0x60
 800204c:	d004      	beq.n	8002058 <USART_ITConfig+0x90>
 800204e:	4823      	ldr	r0, [pc, #140]	; (80020dc <USART_ITConfig+0x114>)
 8002050:	f44f 71c5 	mov.w	r1, #394	; 0x18a
 8002054:	f7fe f976 	bl	8000344 <assert_failed>
 8002058:	2e01      	cmp	r6, #1
 800205a:	d904      	bls.n	8002066 <USART_ITConfig+0x9e>
 800205c:	481f      	ldr	r0, [pc, #124]	; (80020dc <USART_ITConfig+0x114>)
 800205e:	f240 118b 	movw	r1, #395	; 0x18b
 8002062:	f7fe f96f 	bl	8000344 <assert_failed>
 8002066:	f640 126a 	movw	r2, #2410	; 0x96a
 800206a:	4294      	cmp	r4, r2
 800206c:	d01b      	beq.n	80020a6 <USART_ITConfig+0xde>
 800206e:	f004 031f 	and.w	r3, r4, #31
 8002072:	2001      	movs	r0, #1
 8002074:	f3c4 1442 	ubfx	r4, r4, #5, #3
 8002078:	4284      	cmp	r4, r0
 800207a:	fa00 f103 	lsl.w	r1, r0, r3
 800207e:	d010      	beq.n	80020a2 <USART_ITConfig+0xda>
 8002080:	2c02      	cmp	r4, #2
 8002082:	d006      	beq.n	8002092 <USART_ITConfig+0xca>
 8002084:	3514      	adds	r5, #20
 8002086:	6828      	ldr	r0, [r5, #0]
 8002088:	b93e      	cbnz	r6, 800209a <USART_ITConfig+0xd2>
 800208a:	ea20 0201 	bic.w	r2, r0, r1
 800208e:	602a      	str	r2, [r5, #0]
 8002090:	bd70      	pop	{r4, r5, r6, pc}
 8002092:	3510      	adds	r5, #16
 8002094:	6828      	ldr	r0, [r5, #0]
 8002096:	2e00      	cmp	r6, #0
 8002098:	d0f7      	beq.n	800208a <USART_ITConfig+0xc2>
 800209a:	ea40 0301 	orr.w	r3, r0, r1
 800209e:	602b      	str	r3, [r5, #0]
 80020a0:	bd70      	pop	{r4, r5, r6, pc}
 80020a2:	350c      	adds	r5, #12
 80020a4:	e7ef      	b.n	8002086 <USART_ITConfig+0xbe>
 80020a6:	f44f 5160 	mov.w	r1, #14336	; 0x3800
 80020aa:	f2c4 0101 	movt	r1, #16385	; 0x4001
 80020ae:	428d      	cmp	r5, r1
 80020b0:	d010      	beq.n	80020d4 <USART_ITConfig+0x10c>
 80020b2:	f44f 4288 	mov.w	r2, #17408	; 0x4400
 80020b6:	f2c4 0200 	movt	r2, #16384	; 0x4000
 80020ba:	4295      	cmp	r5, r2
 80020bc:	d00a      	beq.n	80020d4 <USART_ITConfig+0x10c>
 80020be:	f44f 4390 	mov.w	r3, #18432	; 0x4800
 80020c2:	f2c4 0300 	movt	r3, #16384	; 0x4000
 80020c6:	429d      	cmp	r5, r3
 80020c8:	d004      	beq.n	80020d4 <USART_ITConfig+0x10c>
 80020ca:	4804      	ldr	r0, [pc, #16]	; (80020dc <USART_ITConfig+0x114>)
 80020cc:	f240 118f 	movw	r1, #399	; 0x18f
 80020d0:	f7fe f938 	bl	8000344 <assert_failed>
 80020d4:	f44f 6180 	mov.w	r1, #1024	; 0x400
 80020d8:	e7d4      	b.n	8002084 <USART_ITConfig+0xbc>
 80020da:	bf00      	nop
 80020dc:	08008840 	.word	0x08008840

080020e0 <USART_GetITStatus>:
 80020e0:	b538      	push	{r3, r4, r5, lr}
 80020e2:	f44f 5360 	mov.w	r3, #14336	; 0x3800
 80020e6:	f2c4 0301 	movt	r3, #16385	; 0x4001
 80020ea:	4298      	cmp	r0, r3
 80020ec:	4604      	mov	r4, r0
 80020ee:	460d      	mov	r5, r1
 80020f0:	d01c      	beq.n	800212c <USART_GetITStatus+0x4c>
 80020f2:	f44f 4088 	mov.w	r0, #17408	; 0x4400
 80020f6:	f2c4 0000 	movt	r0, #16384	; 0x4000
 80020fa:	4284      	cmp	r4, r0
 80020fc:	d016      	beq.n	800212c <USART_GetITStatus+0x4c>
 80020fe:	f44f 4190 	mov.w	r1, #18432	; 0x4800
 8002102:	f2c4 0100 	movt	r1, #16384	; 0x4000
 8002106:	428c      	cmp	r4, r1
 8002108:	d010      	beq.n	800212c <USART_GetITStatus+0x4c>
 800210a:	f44f 4298 	mov.w	r2, #19456	; 0x4c00
 800210e:	f2c4 0200 	movt	r2, #16384	; 0x4000
 8002112:	4294      	cmp	r4, r2
 8002114:	d00a      	beq.n	800212c <USART_GetITStatus+0x4c>
 8002116:	f44f 43a0 	mov.w	r3, #20480	; 0x5000
 800211a:	f2c4 0300 	movt	r3, #16384	; 0x4000
 800211e:	429c      	cmp	r4, r3
 8002120:	d004      	beq.n	800212c <USART_GetITStatus+0x4c>
 8002122:	483f      	ldr	r0, [pc, #252]	; (8002220 <USART_GetITStatus+0x140>)
 8002124:	f240 31c1 	movw	r1, #961	; 0x3c1
 8002128:	f7fe f90c 	bl	8000344 <assert_failed>
 800212c:	2d28      	cmp	r5, #40	; 0x28
 800212e:	d04c      	beq.n	80021ca <USART_GetITStatus+0xea>
 8002130:	f240 7027 	movw	r0, #1831	; 0x727
 8002134:	4285      	cmp	r5, r0
 8002136:	d03b      	beq.n	80021b0 <USART_GetITStatus+0xd0>
 8002138:	f240 6126 	movw	r1, #1574	; 0x626
 800213c:	428d      	cmp	r5, r1
 800213e:	d037      	beq.n	80021b0 <USART_GetITStatus+0xd0>
 8002140:	f240 5225 	movw	r2, #1317	; 0x525
 8002144:	4295      	cmp	r5, r2
 8002146:	d033      	beq.n	80021b0 <USART_GetITStatus+0xd0>
 8002148:	f240 4324 	movw	r3, #1060	; 0x424
 800214c:	429d      	cmp	r5, r3
 800214e:	d02f      	beq.n	80021b0 <USART_GetITStatus+0xd0>
 8002150:	f640 0246 	movw	r2, #2118	; 0x846
 8002154:	4295      	cmp	r5, r2
 8002156:	d044      	beq.n	80021e2 <USART_GetITStatus+0x102>
 8002158:	f502 7392 	add.w	r3, r2, #292	; 0x124
 800215c:	429d      	cmp	r5, r3
 800215e:	d045      	beq.n	80021ec <USART_GetITStatus+0x10c>
 8002160:	f5b5 7f58 	cmp.w	r5, #864	; 0x360
 8002164:	d034      	beq.n	80021d0 <USART_GetITStatus+0xf0>
 8002166:	f5b5 7f18 	cmp.w	r5, #608	; 0x260
 800216a:	d031      	beq.n	80021d0 <USART_GetITStatus+0xf0>
 800216c:	f5b5 7fb0 	cmp.w	r5, #352	; 0x160
 8002170:	d02e      	beq.n	80021d0 <USART_GetITStatus+0xf0>
 8002172:	482b      	ldr	r0, [pc, #172]	; (8002220 <USART_GetITStatus+0x140>)
 8002174:	f240 31c2 	movw	r1, #962	; 0x3c2
 8002178:	f7fe f8e4 	bl	8000344 <assert_failed>
 800217c:	2001      	movs	r0, #1
 800217e:	f3c5 1242 	ubfx	r2, r5, #5, #3
 8002182:	f005 011f 	and.w	r1, r5, #31
 8002186:	4282      	cmp	r2, r0
 8002188:	fa00 f301 	lsl.w	r3, r0, r1
 800218c:	d015      	beq.n	80021ba <USART_GetITStatus+0xda>
 800218e:	2a02      	cmp	r2, #2
 8002190:	d028      	beq.n	80021e4 <USART_GetITStatus+0x104>
 8002192:	8aa1      	ldrh	r1, [r4, #20]
 8002194:	b288      	uxth	r0, r1
 8002196:	4018      	ands	r0, r3
 8002198:	8823      	ldrh	r3, [r4, #0]
 800219a:	b299      	uxth	r1, r3
 800219c:	b1a0      	cbz	r0, 80021c8 <USART_GetITStatus+0xe8>
 800219e:	2201      	movs	r2, #1
 80021a0:	0a2d      	lsrs	r5, r5, #8
 80021a2:	fa02 f505 	lsl.w	r5, r2, r5
 80021a6:	420d      	tst	r5, r1
 80021a8:	bf0c      	ite	eq
 80021aa:	2000      	moveq	r0, #0
 80021ac:	2001      	movne	r0, #1
 80021ae:	bd38      	pop	{r3, r4, r5, pc}
 80021b0:	f005 011f 	and.w	r1, r5, #31
 80021b4:	2001      	movs	r0, #1
 80021b6:	fa00 f301 	lsl.w	r3, r0, r1
 80021ba:	89a0      	ldrh	r0, [r4, #12]
 80021bc:	b280      	uxth	r0, r0
 80021be:	4018      	ands	r0, r3
 80021c0:	8823      	ldrh	r3, [r4, #0]
 80021c2:	b299      	uxth	r1, r3
 80021c4:	2800      	cmp	r0, #0
 80021c6:	d1ea      	bne.n	800219e <USART_GetITStatus+0xbe>
 80021c8:	bd38      	pop	{r3, r4, r5, pc}
 80021ca:	f44f 7380 	mov.w	r3, #256	; 0x100
 80021ce:	e7f4      	b.n	80021ba <USART_GetITStatus+0xda>
 80021d0:	f005 031f 	and.w	r3, r5, #31
 80021d4:	2101      	movs	r1, #1
 80021d6:	fa01 f303 	lsl.w	r3, r1, r3
 80021da:	8aa1      	ldrh	r1, [r4, #20]
 80021dc:	b288      	uxth	r0, r1
 80021de:	4018      	ands	r0, r3
 80021e0:	e7da      	b.n	8002198 <USART_GetITStatus+0xb8>
 80021e2:	2340      	movs	r3, #64	; 0x40
 80021e4:	8a22      	ldrh	r2, [r4, #16]
 80021e6:	b290      	uxth	r0, r2
 80021e8:	4018      	ands	r0, r3
 80021ea:	e7d5      	b.n	8002198 <USART_GetITStatus+0xb8>
 80021ec:	f44f 5160 	mov.w	r1, #14336	; 0x3800
 80021f0:	f2c4 0101 	movt	r1, #16385	; 0x4001
 80021f4:	428c      	cmp	r4, r1
 80021f6:	d010      	beq.n	800221a <USART_GetITStatus+0x13a>
 80021f8:	f44f 4088 	mov.w	r0, #17408	; 0x4400
 80021fc:	f2c4 0000 	movt	r0, #16384	; 0x4000
 8002200:	4284      	cmp	r4, r0
 8002202:	d00a      	beq.n	800221a <USART_GetITStatus+0x13a>
 8002204:	f44f 4290 	mov.w	r2, #18432	; 0x4800
 8002208:	f2c4 0200 	movt	r2, #16384	; 0x4000
 800220c:	4294      	cmp	r4, r2
 800220e:	d004      	beq.n	800221a <USART_GetITStatus+0x13a>
 8002210:	4803      	ldr	r0, [pc, #12]	; (8002220 <USART_GetITStatus+0x140>)
 8002212:	f240 31c6 	movw	r1, #966	; 0x3c6
 8002216:	f7fe f895 	bl	8000344 <assert_failed>
 800221a:	f44f 6380 	mov.w	r3, #1024	; 0x400
 800221e:	e7dc      	b.n	80021da <USART_GetITStatus+0xfa>
 8002220:	08008840 	.word	0x08008840

08002224 <USART_ClearITPendingBit>:
 8002224:	b538      	push	{r3, r4, r5, lr}
 8002226:	f44f 5360 	mov.w	r3, #14336	; 0x3800
 800222a:	f2c4 0301 	movt	r3, #16385	; 0x4001
 800222e:	4298      	cmp	r0, r3
 8002230:	4604      	mov	r4, r0
 8002232:	460d      	mov	r5, r1
 8002234:	d01c      	beq.n	8002270 <USART_ClearITPendingBit+0x4c>
 8002236:	f44f 4088 	mov.w	r0, #17408	; 0x4400
 800223a:	f2c4 0000 	movt	r0, #16384	; 0x4000
 800223e:	4284      	cmp	r4, r0
 8002240:	d016      	beq.n	8002270 <USART_ClearITPendingBit+0x4c>
 8002242:	f44f 4190 	mov.w	r1, #18432	; 0x4800
 8002246:	f2c4 0100 	movt	r1, #16384	; 0x4000
 800224a:	428c      	cmp	r4, r1
 800224c:	d010      	beq.n	8002270 <USART_ClearITPendingBit+0x4c>
 800224e:	f44f 4298 	mov.w	r2, #19456	; 0x4c00
 8002252:	f2c4 0200 	movt	r2, #16384	; 0x4000
 8002256:	4294      	cmp	r4, r2
 8002258:	d00a      	beq.n	8002270 <USART_ClearITPendingBit+0x4c>
 800225a:	f44f 43a0 	mov.w	r3, #20480	; 0x5000
 800225e:	f2c4 0300 	movt	r3, #16384	; 0x4000
 8002262:	429c      	cmp	r4, r3
 8002264:	d004      	beq.n	8002270 <USART_ClearITPendingBit+0x4c>
 8002266:	481d      	ldr	r0, [pc, #116]	; (80022dc <USART_ClearITPendingBit+0xb8>)
 8002268:	f240 410a 	movw	r1, #1034	; 0x40a
 800226c:	f7fe f86a 	bl	8000344 <assert_failed>
 8002270:	f240 6026 	movw	r0, #1574	; 0x626
 8002274:	4285      	cmp	r5, r0
 8002276:	d010      	beq.n	800229a <USART_ClearITPendingBit+0x76>
 8002278:	f240 5125 	movw	r1, #1317	; 0x525
 800227c:	428d      	cmp	r5, r1
 800227e:	d00c      	beq.n	800229a <USART_ClearITPendingBit+0x76>
 8002280:	f640 0246 	movw	r2, #2118	; 0x846
 8002284:	4295      	cmp	r5, r2
 8002286:	d008      	beq.n	800229a <USART_ClearITPendingBit+0x76>
 8002288:	f502 7392 	add.w	r3, r2, #292	; 0x124
 800228c:	429d      	cmp	r5, r3
 800228e:	d00c      	beq.n	80022aa <USART_ClearITPendingBit+0x86>
 8002290:	4812      	ldr	r0, [pc, #72]	; (80022dc <USART_ClearITPendingBit+0xb8>)
 8002292:	f240 410b 	movw	r1, #1035	; 0x40b
 8002296:	f7fe f855 	bl	8000344 <assert_failed>
 800229a:	0a28      	lsrs	r0, r5, #8
 800229c:	2301      	movs	r3, #1
 800229e:	fa03 f500 	lsl.w	r5, r3, r0
 80022a2:	43e9      	mvns	r1, r5
 80022a4:	b28d      	uxth	r5, r1
 80022a6:	8025      	strh	r5, [r4, #0]
 80022a8:	bd38      	pop	{r3, r4, r5, pc}
 80022aa:	f44f 5060 	mov.w	r0, #14336	; 0x3800
 80022ae:	f2c4 0001 	movt	r0, #16385	; 0x4001
 80022b2:	4284      	cmp	r4, r0
 80022b4:	d0f1      	beq.n	800229a <USART_ClearITPendingBit+0x76>
 80022b6:	f44f 4188 	mov.w	r1, #17408	; 0x4400
 80022ba:	f2c4 0100 	movt	r1, #16384	; 0x4000
 80022be:	428c      	cmp	r4, r1
 80022c0:	d0eb      	beq.n	800229a <USART_ClearITPendingBit+0x76>
 80022c2:	f44f 4290 	mov.w	r2, #18432	; 0x4800
 80022c6:	f2c4 0200 	movt	r2, #16384	; 0x4000
 80022ca:	4294      	cmp	r4, r2
 80022cc:	d0e5      	beq.n	800229a <USART_ClearITPendingBit+0x76>
 80022ce:	4803      	ldr	r0, [pc, #12]	; (80022dc <USART_ClearITPendingBit+0xb8>)
 80022d0:	f240 410f 	movw	r1, #1039	; 0x40f
 80022d4:	f7fe f836 	bl	8000344 <assert_failed>
 80022d8:	e7df      	b.n	800229a <USART_ClearITPendingBit+0x76>
 80022da:	bf00      	nop
 80022dc:	08008840 	.word	0x08008840

080022e0 <DMA_DeInit>:
 80022e0:	2308      	movs	r3, #8
 80022e2:	f2c4 0302 	movt	r3, #16386	; 0x4002
 80022e6:	4298      	cmp	r0, r3
 80022e8:	b510      	push	{r4, lr}
 80022ea:	4604      	mov	r4, r0
 80022ec:	d064      	beq.n	80023b8 <DMA_DeInit+0xd8>
 80022ee:	201c      	movs	r0, #28
 80022f0:	f2c4 0002 	movt	r0, #16386	; 0x4002
 80022f4:	4284      	cmp	r4, r0
 80022f6:	d071      	beq.n	80023dc <DMA_DeInit+0xfc>
 80022f8:	2130      	movs	r1, #48	; 0x30
 80022fa:	f2c4 0102 	movt	r1, #16386	; 0x4002
 80022fe:	428c      	cmp	r4, r1
 8002300:	d07e      	beq.n	8002400 <DMA_DeInit+0x120>
 8002302:	2344      	movs	r3, #68	; 0x44
 8002304:	f2c4 0302 	movt	r3, #16386	; 0x4002
 8002308:	429c      	cmp	r4, r3
 800230a:	f000 808b 	beq.w	8002424 <DMA_DeInit+0x144>
 800230e:	2358      	movs	r3, #88	; 0x58
 8002310:	f2c4 0302 	movt	r3, #16386	; 0x4002
 8002314:	429c      	cmp	r4, r3
 8002316:	d03d      	beq.n	8002394 <DMA_DeInit+0xb4>
 8002318:	206c      	movs	r0, #108	; 0x6c
 800231a:	f2c4 0002 	movt	r0, #16386	; 0x4002
 800231e:	4284      	cmp	r4, r0
 8002320:	f000 8092 	beq.w	8002448 <DMA_DeInit+0x168>
 8002324:	2380      	movs	r3, #128	; 0x80
 8002326:	f2c4 0302 	movt	r3, #16386	; 0x4002
 800232a:	429c      	cmp	r4, r3
 800232c:	f000 809e 	beq.w	800246c <DMA_DeInit+0x18c>
 8002330:	f44f 6381 	mov.w	r3, #1032	; 0x408
 8002334:	f2c4 0302 	movt	r3, #16386	; 0x4002
 8002338:	429c      	cmp	r4, r3
 800233a:	f000 80c8 	beq.w	80024ce <DMA_DeInit+0x1ee>
 800233e:	f240 411c 	movw	r1, #1052	; 0x41c
 8002342:	f2c4 0102 	movt	r1, #16386	; 0x4002
 8002346:	428c      	cmp	r4, r1
 8002348:	f000 80c9 	beq.w	80024de <DMA_DeInit+0x1fe>
 800234c:	f44f 6386 	mov.w	r3, #1072	; 0x430
 8002350:	f2c4 0302 	movt	r3, #16386	; 0x4002
 8002354:	429c      	cmp	r4, r3
 8002356:	f000 80a3 	beq.w	80024a0 <DMA_DeInit+0x1c0>
 800235a:	f240 4244 	movw	r2, #1092	; 0x444
 800235e:	f2c4 0202 	movt	r2, #16386	; 0x4002
 8002362:	4294      	cmp	r4, r2
 8002364:	f000 80c3 	beq.w	80024ee <DMA_DeInit+0x20e>
 8002368:	f44f 628b 	mov.w	r2, #1112	; 0x458
 800236c:	f2c4 0202 	movt	r2, #16386	; 0x4002
 8002370:	4294      	cmp	r4, r2
 8002372:	f000 808d 	beq.w	8002490 <DMA_DeInit+0x1b0>
 8002376:	4862      	ldr	r0, [pc, #392]	; (8002500 <DMA_DeInit+0x220>)
 8002378:	216f      	movs	r1, #111	; 0x6f
 800237a:	f7fd ffe3 	bl	8000344 <assert_failed>
 800237e:	6820      	ldr	r0, [r4, #0]
 8002380:	f64f 72fe 	movw	r2, #65534	; 0xfffe
 8002384:	2300      	movs	r3, #0
 8002386:	4002      	ands	r2, r0
 8002388:	6022      	str	r2, [r4, #0]
 800238a:	6023      	str	r3, [r4, #0]
 800238c:	6063      	str	r3, [r4, #4]
 800238e:	60a3      	str	r3, [r4, #8]
 8002390:	60e3      	str	r3, [r4, #12]
 8002392:	bd10      	pop	{r4, pc}
 8002394:	6820      	ldr	r0, [r4, #0]
 8002396:	f64f 71fe 	movw	r1, #65534	; 0xfffe
 800239a:	2300      	movs	r3, #0
 800239c:	4001      	ands	r1, r0
 800239e:	461a      	mov	r2, r3
 80023a0:	6021      	str	r1, [r4, #0]
 80023a2:	f2c4 0202 	movt	r2, #16386	; 0x4002
 80023a6:	6023      	str	r3, [r4, #0]
 80023a8:	6063      	str	r3, [r4, #4]
 80023aa:	60a3      	str	r3, [r4, #8]
 80023ac:	60e3      	str	r3, [r4, #12]
 80023ae:	6853      	ldr	r3, [r2, #4]
 80023b0:	f443 2170 	orr.w	r1, r3, #983040	; 0xf0000
 80023b4:	6051      	str	r1, [r2, #4]
 80023b6:	bd10      	pop	{r4, pc}
 80023b8:	6802      	ldr	r2, [r0, #0]
 80023ba:	2100      	movs	r1, #0
 80023bc:	f64f 70fe 	movw	r0, #65534	; 0xfffe
 80023c0:	4010      	ands	r0, r2
 80023c2:	460a      	mov	r2, r1
 80023c4:	6020      	str	r0, [r4, #0]
 80023c6:	f2c4 0202 	movt	r2, #16386	; 0x4002
 80023ca:	6021      	str	r1, [r4, #0]
 80023cc:	6061      	str	r1, [r4, #4]
 80023ce:	60a1      	str	r1, [r4, #8]
 80023d0:	60e1      	str	r1, [r4, #12]
 80023d2:	6853      	ldr	r3, [r2, #4]
 80023d4:	f043 000f 	orr.w	r0, r3, #15
 80023d8:	6050      	str	r0, [r2, #4]
 80023da:	bd10      	pop	{r4, pc}
 80023dc:	6822      	ldr	r2, [r4, #0]
 80023de:	f64f 70fe 	movw	r0, #65534	; 0xfffe
 80023e2:	2300      	movs	r3, #0
 80023e4:	4010      	ands	r0, r2
 80023e6:	4619      	mov	r1, r3
 80023e8:	6020      	str	r0, [r4, #0]
 80023ea:	f2c4 0102 	movt	r1, #16386	; 0x4002
 80023ee:	6023      	str	r3, [r4, #0]
 80023f0:	6063      	str	r3, [r4, #4]
 80023f2:	60a3      	str	r3, [r4, #8]
 80023f4:	60e3      	str	r3, [r4, #12]
 80023f6:	684a      	ldr	r2, [r1, #4]
 80023f8:	f042 00f0 	orr.w	r0, r2, #240	; 0xf0
 80023fc:	6048      	str	r0, [r1, #4]
 80023fe:	bd10      	pop	{r4, pc}
 8002400:	6820      	ldr	r0, [r4, #0]
 8002402:	2300      	movs	r3, #0
 8002404:	f64f 71fe 	movw	r1, #65534	; 0xfffe
 8002408:	4001      	ands	r1, r0
 800240a:	461a      	mov	r2, r3
 800240c:	6021      	str	r1, [r4, #0]
 800240e:	f2c4 0202 	movt	r2, #16386	; 0x4002
 8002412:	6023      	str	r3, [r4, #0]
 8002414:	6063      	str	r3, [r4, #4]
 8002416:	60a3      	str	r3, [r4, #8]
 8002418:	60e3      	str	r3, [r4, #12]
 800241a:	6850      	ldr	r0, [r2, #4]
 800241c:	f440 6170 	orr.w	r1, r0, #3840	; 0xf00
 8002420:	6051      	str	r1, [r2, #4]
 8002422:	bd10      	pop	{r4, pc}
 8002424:	6822      	ldr	r2, [r4, #0]
 8002426:	f64f 70fe 	movw	r0, #65534	; 0xfffe
 800242a:	2100      	movs	r1, #0
 800242c:	4010      	ands	r0, r2
 800242e:	460a      	mov	r2, r1
 8002430:	6020      	str	r0, [r4, #0]
 8002432:	f2c4 0202 	movt	r2, #16386	; 0x4002
 8002436:	6021      	str	r1, [r4, #0]
 8002438:	6061      	str	r1, [r4, #4]
 800243a:	60a1      	str	r1, [r4, #8]
 800243c:	60e1      	str	r1, [r4, #12]
 800243e:	6851      	ldr	r1, [r2, #4]
 8002440:	f441 4070 	orr.w	r0, r1, #61440	; 0xf000
 8002444:	6050      	str	r0, [r2, #4]
 8002446:	bd10      	pop	{r4, pc}
 8002448:	6822      	ldr	r2, [r4, #0]
 800244a:	2300      	movs	r3, #0
 800244c:	f64f 71fe 	movw	r1, #65534	; 0xfffe
 8002450:	4011      	ands	r1, r2
 8002452:	4618      	mov	r0, r3
 8002454:	6021      	str	r1, [r4, #0]
 8002456:	f2c4 0002 	movt	r0, #16386	; 0x4002
 800245a:	6023      	str	r3, [r4, #0]
 800245c:	6063      	str	r3, [r4, #4]
 800245e:	60a3      	str	r3, [r4, #8]
 8002460:	60e3      	str	r3, [r4, #12]
 8002462:	6842      	ldr	r2, [r0, #4]
 8002464:	f442 0170 	orr.w	r1, r2, #15728640	; 0xf00000
 8002468:	6041      	str	r1, [r0, #4]
 800246a:	bd10      	pop	{r4, pc}
 800246c:	6820      	ldr	r0, [r4, #0]
 800246e:	2300      	movs	r3, #0
 8002470:	f64f 71fe 	movw	r1, #65534	; 0xfffe
 8002474:	4001      	ands	r1, r0
 8002476:	461a      	mov	r2, r3
 8002478:	6021      	str	r1, [r4, #0]
 800247a:	f2c4 0202 	movt	r2, #16386	; 0x4002
 800247e:	6023      	str	r3, [r4, #0]
 8002480:	6063      	str	r3, [r4, #4]
 8002482:	60a3      	str	r3, [r4, #8]
 8002484:	60e3      	str	r3, [r4, #12]
 8002486:	6850      	ldr	r0, [r2, #4]
 8002488:	f040 6170 	orr.w	r1, r0, #251658240	; 0xf000000
 800248c:	6051      	str	r1, [r2, #4]
 800248e:	bd10      	pop	{r4, pc}
 8002490:	6820      	ldr	r0, [r4, #0]
 8002492:	f64f 71fe 	movw	r1, #65534	; 0xfffe
 8002496:	2300      	movs	r3, #0
 8002498:	4001      	ands	r1, r0
 800249a:	f44f 6280 	mov.w	r2, #1024	; 0x400
 800249e:	e77f      	b.n	80023a0 <DMA_DeInit+0xc0>
 80024a0:	f44f 6386 	mov.w	r3, #1072	; 0x430
 80024a4:	f2c4 0302 	movt	r3, #16386	; 0x4002
 80024a8:	6819      	ldr	r1, [r3, #0]
 80024aa:	f64f 70fe 	movw	r0, #65534	; 0xfffe
 80024ae:	2200      	movs	r2, #0
 80024b0:	4008      	ands	r0, r1
 80024b2:	f44f 6180 	mov.w	r1, #1024	; 0x400
 80024b6:	6018      	str	r0, [r3, #0]
 80024b8:	f2c4 0102 	movt	r1, #16386	; 0x4002
 80024bc:	601a      	str	r2, [r3, #0]
 80024be:	605a      	str	r2, [r3, #4]
 80024c0:	609a      	str	r2, [r3, #8]
 80024c2:	60da      	str	r2, [r3, #12]
 80024c4:	684b      	ldr	r3, [r1, #4]
 80024c6:	f443 6070 	orr.w	r0, r3, #3840	; 0xf00
 80024ca:	6048      	str	r0, [r1, #4]
 80024cc:	bd10      	pop	{r4, pc}
 80024ce:	6822      	ldr	r2, [r4, #0]
 80024d0:	f64f 70fe 	movw	r0, #65534	; 0xfffe
 80024d4:	4010      	ands	r0, r2
 80024d6:	2100      	movs	r1, #0
 80024d8:	f44f 6280 	mov.w	r2, #1024	; 0x400
 80024dc:	e772      	b.n	80023c4 <DMA_DeInit+0xe4>
 80024de:	6822      	ldr	r2, [r4, #0]
 80024e0:	f64f 70fe 	movw	r0, #65534	; 0xfffe
 80024e4:	2300      	movs	r3, #0
 80024e6:	4010      	ands	r0, r2
 80024e8:	f44f 6180 	mov.w	r1, #1024	; 0x400
 80024ec:	e77c      	b.n	80023e8 <DMA_DeInit+0x108>
 80024ee:	6823      	ldr	r3, [r4, #0]
 80024f0:	f64f 70fe 	movw	r0, #65534	; 0xfffe
 80024f4:	2100      	movs	r1, #0
 80024f6:	4018      	ands	r0, r3
 80024f8:	f44f 6280 	mov.w	r2, #1024	; 0x400
 80024fc:	e798      	b.n	8002430 <DMA_DeInit+0x150>
 80024fe:	bf00      	nop
 8002500:	0800887c 	.word	0x0800887c

08002504 <DMA_Init>:
 8002504:	b5f8      	push	{r3, r4, r5, r6, r7, lr}
 8002506:	2308      	movs	r3, #8
 8002508:	f2c4 0302 	movt	r3, #16386	; 0x4002
 800250c:	4298      	cmp	r0, r3
 800250e:	4605      	mov	r5, r0
 8002510:	460c      	mov	r4, r1
 8002512:	d03f      	beq.n	8002594 <DMA_Init+0x90>
 8002514:	201c      	movs	r0, #28
 8002516:	f2c4 0002 	movt	r0, #16386	; 0x4002
 800251a:	4285      	cmp	r5, r0
 800251c:	d03a      	beq.n	8002594 <DMA_Init+0x90>
 800251e:	2130      	movs	r1, #48	; 0x30
 8002520:	f2c4 0102 	movt	r1, #16386	; 0x4002
 8002524:	428d      	cmp	r5, r1
 8002526:	d035      	beq.n	8002594 <DMA_Init+0x90>
 8002528:	2244      	movs	r2, #68	; 0x44
 800252a:	f2c4 0202 	movt	r2, #16386	; 0x4002
 800252e:	4295      	cmp	r5, r2
 8002530:	d030      	beq.n	8002594 <DMA_Init+0x90>
 8002532:	2658      	movs	r6, #88	; 0x58
 8002534:	f2c4 0602 	movt	r6, #16386	; 0x4002
 8002538:	42b5      	cmp	r5, r6
 800253a:	d02b      	beq.n	8002594 <DMA_Init+0x90>
 800253c:	276c      	movs	r7, #108	; 0x6c
 800253e:	f2c4 0702 	movt	r7, #16386	; 0x4002
 8002542:	42bd      	cmp	r5, r7
 8002544:	d026      	beq.n	8002594 <DMA_Init+0x90>
 8002546:	2380      	movs	r3, #128	; 0x80
 8002548:	f2c4 0302 	movt	r3, #16386	; 0x4002
 800254c:	429d      	cmp	r5, r3
 800254e:	d021      	beq.n	8002594 <DMA_Init+0x90>
 8002550:	f44f 6081 	mov.w	r0, #1032	; 0x408
 8002554:	f2c4 0002 	movt	r0, #16386	; 0x4002
 8002558:	4285      	cmp	r5, r0
 800255a:	d01b      	beq.n	8002594 <DMA_Init+0x90>
 800255c:	f240 411c 	movw	r1, #1052	; 0x41c
 8002560:	f2c4 0102 	movt	r1, #16386	; 0x4002
 8002564:	428d      	cmp	r5, r1
 8002566:	d015      	beq.n	8002594 <DMA_Init+0x90>
 8002568:	f44f 6286 	mov.w	r2, #1072	; 0x430
 800256c:	f2c4 0202 	movt	r2, #16386	; 0x4002
 8002570:	4295      	cmp	r5, r2
 8002572:	d00f      	beq.n	8002594 <DMA_Init+0x90>
 8002574:	f240 4644 	movw	r6, #1092	; 0x444
 8002578:	f2c4 0602 	movt	r6, #16386	; 0x4002
 800257c:	42b5      	cmp	r5, r6
 800257e:	d009      	beq.n	8002594 <DMA_Init+0x90>
 8002580:	f44f 678b 	mov.w	r7, #1112	; 0x458
 8002584:	f2c4 0702 	movt	r7, #16386	; 0x4002
 8002588:	42bd      	cmp	r5, r7
 800258a:	d003      	beq.n	8002594 <DMA_Init+0x90>
 800258c:	4844      	ldr	r0, [pc, #272]	; (80026a0 <DMA_Init+0x19c>)
 800258e:	21cf      	movs	r1, #207	; 0xcf
 8002590:	f7fd fed8 	bl	8000344 <assert_failed>
 8002594:	68a3      	ldr	r3, [r4, #8]
 8002596:	2b10      	cmp	r3, #16
 8002598:	d001      	beq.n	800259e <DMA_Init+0x9a>
 800259a:	2b00      	cmp	r3, #0
 800259c:	d16b      	bne.n	8002676 <DMA_Init+0x172>
 800259e:	68e0      	ldr	r0, [r4, #12]
 80025a0:	f64f 72fe 	movw	r2, #65534	; 0xfffe
 80025a4:	1e41      	subs	r1, r0, #1
 80025a6:	4291      	cmp	r1, r2
 80025a8:	d85b      	bhi.n	8002662 <DMA_Init+0x15e>
 80025aa:	6926      	ldr	r6, [r4, #16]
 80025ac:	2e40      	cmp	r6, #64	; 0x40
 80025ae:	d001      	beq.n	80025b4 <DMA_Init+0xb0>
 80025b0:	2e00      	cmp	r6, #0
 80025b2:	d16a      	bne.n	800268a <DMA_Init+0x186>
 80025b4:	6967      	ldr	r7, [r4, #20]
 80025b6:	2f80      	cmp	r7, #128	; 0x80
 80025b8:	d001      	beq.n	80025be <DMA_Init+0xba>
 80025ba:	2f00      	cmp	r7, #0
 80025bc:	d160      	bne.n	8002680 <DMA_Init+0x17c>
 80025be:	69a3      	ldr	r3, [r4, #24]
 80025c0:	b14b      	cbz	r3, 80025d6 <DMA_Init+0xd2>
 80025c2:	f5b3 7f80 	cmp.w	r3, #256	; 0x100
 80025c6:	d006      	beq.n	80025d6 <DMA_Init+0xd2>
 80025c8:	f5b3 7f00 	cmp.w	r3, #512	; 0x200
 80025cc:	d003      	beq.n	80025d6 <DMA_Init+0xd2>
 80025ce:	4834      	ldr	r0, [pc, #208]	; (80026a0 <DMA_Init+0x19c>)
 80025d0:	21d4      	movs	r1, #212	; 0xd4
 80025d2:	f7fd feb7 	bl	8000344 <assert_failed>
 80025d6:	69e0      	ldr	r0, [r4, #28]
 80025d8:	b148      	cbz	r0, 80025ee <DMA_Init+0xea>
 80025da:	f5b0 6f80 	cmp.w	r0, #1024	; 0x400
 80025de:	d006      	beq.n	80025ee <DMA_Init+0xea>
 80025e0:	f5b0 6f00 	cmp.w	r0, #2048	; 0x800
 80025e4:	d003      	beq.n	80025ee <DMA_Init+0xea>
 80025e6:	482e      	ldr	r0, [pc, #184]	; (80026a0 <DMA_Init+0x19c>)
 80025e8:	21d5      	movs	r1, #213	; 0xd5
 80025ea:	f7fd feab 	bl	8000344 <assert_failed>
 80025ee:	6a21      	ldr	r1, [r4, #32]
 80025f0:	2920      	cmp	r1, #32
 80025f2:	d001      	beq.n	80025f8 <DMA_Init+0xf4>
 80025f4:	2900      	cmp	r1, #0
 80025f6:	d139      	bne.n	800266c <DMA_Init+0x168>
 80025f8:	6a62      	ldr	r2, [r4, #36]	; 0x24
 80025fa:	f5b2 5f40 	cmp.w	r2, #12288	; 0x3000
 80025fe:	d007      	beq.n	8002610 <DMA_Init+0x10c>
 8002600:	f5b2 5f00 	cmp.w	r2, #8192	; 0x2000
 8002604:	d004      	beq.n	8002610 <DMA_Init+0x10c>
 8002606:	f5b2 5f80 	cmp.w	r2, #4096	; 0x1000
 800260a:	d001      	beq.n	8002610 <DMA_Init+0x10c>
 800260c:	2a00      	cmp	r2, #0
 800260e:	d141      	bne.n	8002694 <DMA_Init+0x190>
 8002610:	6aa3      	ldr	r3, [r4, #40]	; 0x28
 8002612:	f5b3 4f80 	cmp.w	r3, #16384	; 0x4000
 8002616:	d000      	beq.n	800261a <DMA_Init+0x116>
 8002618:	b9eb      	cbnz	r3, 8002656 <DMA_Init+0x152>
 800261a:	68a0      	ldr	r0, [r4, #8]
 800261c:	6a27      	ldr	r7, [r4, #32]
 800261e:	6921      	ldr	r1, [r4, #16]
 8002620:	6966      	ldr	r6, [r4, #20]
 8002622:	4307      	orrs	r7, r0
 8002624:	ea47 0201 	orr.w	r2, r7, r1
 8002628:	69a0      	ldr	r0, [r4, #24]
 800262a:	682f      	ldr	r7, [r5, #0]
 800262c:	69e1      	ldr	r1, [r4, #28]
 800262e:	4316      	orrs	r6, r2
 8002630:	4330      	orrs	r0, r6
 8002632:	6a62      	ldr	r2, [r4, #36]	; 0x24
 8002634:	4301      	orrs	r1, r0
 8002636:	f427 4cff 	bic.w	ip, r7, #32640	; 0x7f80
 800263a:	430a      	orrs	r2, r1
 800263c:	f02c 0070 	bic.w	r0, ip, #112	; 0x70
 8002640:	68e6      	ldr	r6, [r4, #12]
 8002642:	6827      	ldr	r7, [r4, #0]
 8002644:	ea42 0100 	orr.w	r1, r2, r0
 8002648:	6864      	ldr	r4, [r4, #4]
 800264a:	430b      	orrs	r3, r1
 800264c:	602b      	str	r3, [r5, #0]
 800264e:	606e      	str	r6, [r5, #4]
 8002650:	60af      	str	r7, [r5, #8]
 8002652:	60ec      	str	r4, [r5, #12]
 8002654:	bdf8      	pop	{r3, r4, r5, r6, r7, pc}
 8002656:	4812      	ldr	r0, [pc, #72]	; (80026a0 <DMA_Init+0x19c>)
 8002658:	21d8      	movs	r1, #216	; 0xd8
 800265a:	f7fd fe73 	bl	8000344 <assert_failed>
 800265e:	6aa3      	ldr	r3, [r4, #40]	; 0x28
 8002660:	e7db      	b.n	800261a <DMA_Init+0x116>
 8002662:	480f      	ldr	r0, [pc, #60]	; (80026a0 <DMA_Init+0x19c>)
 8002664:	21d1      	movs	r1, #209	; 0xd1
 8002666:	f7fd fe6d 	bl	8000344 <assert_failed>
 800266a:	e79e      	b.n	80025aa <DMA_Init+0xa6>
 800266c:	480c      	ldr	r0, [pc, #48]	; (80026a0 <DMA_Init+0x19c>)
 800266e:	21d6      	movs	r1, #214	; 0xd6
 8002670:	f7fd fe68 	bl	8000344 <assert_failed>
 8002674:	e7c0      	b.n	80025f8 <DMA_Init+0xf4>
 8002676:	480a      	ldr	r0, [pc, #40]	; (80026a0 <DMA_Init+0x19c>)
 8002678:	21d0      	movs	r1, #208	; 0xd0
 800267a:	f7fd fe63 	bl	8000344 <assert_failed>
 800267e:	e78e      	b.n	800259e <DMA_Init+0x9a>
 8002680:	4807      	ldr	r0, [pc, #28]	; (80026a0 <DMA_Init+0x19c>)
 8002682:	21d3      	movs	r1, #211	; 0xd3
 8002684:	f7fd fe5e 	bl	8000344 <assert_failed>
 8002688:	e799      	b.n	80025be <DMA_Init+0xba>
 800268a:	4805      	ldr	r0, [pc, #20]	; (80026a0 <DMA_Init+0x19c>)
 800268c:	21d2      	movs	r1, #210	; 0xd2
 800268e:	f7fd fe59 	bl	8000344 <assert_failed>
 8002692:	e78f      	b.n	80025b4 <DMA_Init+0xb0>
 8002694:	4802      	ldr	r0, [pc, #8]	; (80026a0 <DMA_Init+0x19c>)
 8002696:	21d7      	movs	r1, #215	; 0xd7
 8002698:	f7fd fe54 	bl	8000344 <assert_failed>
 800269c:	e7b8      	b.n	8002610 <DMA_Init+0x10c>
 800269e:	bf00      	nop
 80026a0:	0800887c 	.word	0x0800887c

080026a4 <DMA_Cmd>:
 80026a4:	b538      	push	{r3, r4, r5, lr}
 80026a6:	2308      	movs	r3, #8
 80026a8:	f2c4 0302 	movt	r3, #16386	; 0x4002
 80026ac:	4298      	cmp	r0, r3
 80026ae:	4604      	mov	r4, r0
 80026b0:	460d      	mov	r5, r1
 80026b2:	d040      	beq.n	8002736 <DMA_Cmd+0x92>
 80026b4:	201c      	movs	r0, #28
 80026b6:	f2c4 0002 	movt	r0, #16386	; 0x4002
 80026ba:	4284      	cmp	r4, r0
 80026bc:	d03b      	beq.n	8002736 <DMA_Cmd+0x92>
 80026be:	2130      	movs	r1, #48	; 0x30
 80026c0:	f2c4 0102 	movt	r1, #16386	; 0x4002
 80026c4:	428c      	cmp	r4, r1
 80026c6:	d036      	beq.n	8002736 <DMA_Cmd+0x92>
 80026c8:	2244      	movs	r2, #68	; 0x44
 80026ca:	f2c4 0202 	movt	r2, #16386	; 0x4002
 80026ce:	4294      	cmp	r4, r2
 80026d0:	d031      	beq.n	8002736 <DMA_Cmd+0x92>
 80026d2:	2358      	movs	r3, #88	; 0x58
 80026d4:	f2c4 0302 	movt	r3, #16386	; 0x4002
 80026d8:	429c      	cmp	r4, r3
 80026da:	d02c      	beq.n	8002736 <DMA_Cmd+0x92>
 80026dc:	206c      	movs	r0, #108	; 0x6c
 80026de:	f2c4 0002 	movt	r0, #16386	; 0x4002
 80026e2:	4284      	cmp	r4, r0
 80026e4:	d027      	beq.n	8002736 <DMA_Cmd+0x92>
 80026e6:	2180      	movs	r1, #128	; 0x80
 80026e8:	f2c4 0102 	movt	r1, #16386	; 0x4002
 80026ec:	428c      	cmp	r4, r1
 80026ee:	d022      	beq.n	8002736 <DMA_Cmd+0x92>
 80026f0:	f44f 6281 	mov.w	r2, #1032	; 0x408
 80026f4:	f2c4 0202 	movt	r2, #16386	; 0x4002
 80026f8:	4294      	cmp	r4, r2
 80026fa:	d01c      	beq.n	8002736 <DMA_Cmd+0x92>
 80026fc:	f240 431c 	movw	r3, #1052	; 0x41c
 8002700:	f2c4 0302 	movt	r3, #16386	; 0x4002
 8002704:	429c      	cmp	r4, r3
 8002706:	d016      	beq.n	8002736 <DMA_Cmd+0x92>
 8002708:	f44f 6086 	mov.w	r0, #1072	; 0x430
 800270c:	f2c4 0002 	movt	r0, #16386	; 0x4002
 8002710:	4284      	cmp	r4, r0
 8002712:	d010      	beq.n	8002736 <DMA_Cmd+0x92>
 8002714:	f240 4144 	movw	r1, #1092	; 0x444
 8002718:	f2c4 0102 	movt	r1, #16386	; 0x4002
 800271c:	428c      	cmp	r4, r1
 800271e:	d00a      	beq.n	8002736 <DMA_Cmd+0x92>
 8002720:	f44f 628b 	mov.w	r2, #1112	; 0x458
 8002724:	f2c4 0202 	movt	r2, #16386	; 0x4002
 8002728:	4294      	cmp	r4, r2
 800272a:	d004      	beq.n	8002736 <DMA_Cmd+0x92>
 800272c:	480c      	ldr	r0, [pc, #48]	; (8002760 <DMA_Cmd+0xbc>)
 800272e:	f240 1129 	movw	r1, #297	; 0x129
 8002732:	f7fd fe07 	bl	8000344 <assert_failed>
 8002736:	2d01      	cmp	r5, #1
 8002738:	d909      	bls.n	800274e <DMA_Cmd+0xaa>
 800273a:	4809      	ldr	r0, [pc, #36]	; (8002760 <DMA_Cmd+0xbc>)
 800273c:	f44f 7195 	mov.w	r1, #298	; 0x12a
 8002740:	f7fd fe00 	bl	8000344 <assert_failed>
 8002744:	6821      	ldr	r1, [r4, #0]
 8002746:	f041 0201 	orr.w	r2, r1, #1
 800274a:	6022      	str	r2, [r4, #0]
 800274c:	bd38      	pop	{r3, r4, r5, pc}
 800274e:	2d00      	cmp	r5, #0
 8002750:	d1f8      	bne.n	8002744 <DMA_Cmd+0xa0>
 8002752:	6820      	ldr	r0, [r4, #0]
 8002754:	f64f 73fe 	movw	r3, #65534	; 0xfffe
 8002758:	4003      	ands	r3, r0
 800275a:	6023      	str	r3, [r4, #0]
 800275c:	bd38      	pop	{r3, r4, r5, pc}
 800275e:	bf00      	nop
 8002760:	0800887c 	.word	0x0800887c

08002764 <NVIC_PriorityGroupConfig>:
 8002764:	f5b0 6fe0 	cmp.w	r0, #1792	; 0x700
 8002768:	b510      	push	{r4, lr}
 800276a:	4604      	mov	r4, r0
 800276c:	d00f      	beq.n	800278e <NVIC_PriorityGroupConfig+0x2a>
 800276e:	f5b0 6fc0 	cmp.w	r0, #1536	; 0x600
 8002772:	d00c      	beq.n	800278e <NVIC_PriorityGroupConfig+0x2a>
 8002774:	f5b0 6fa0 	cmp.w	r0, #1280	; 0x500
 8002778:	d009      	beq.n	800278e <NVIC_PriorityGroupConfig+0x2a>
 800277a:	f5b0 6f80 	cmp.w	r0, #1024	; 0x400
 800277e:	d006      	beq.n	800278e <NVIC_PriorityGroupConfig+0x2a>
 8002780:	f5b0 7f40 	cmp.w	r0, #768	; 0x300
 8002784:	d003      	beq.n	800278e <NVIC_PriorityGroupConfig+0x2a>
 8002786:	4807      	ldr	r0, [pc, #28]	; (80027a4 <NVIC_PriorityGroupConfig+0x40>)
 8002788:	2163      	movs	r1, #99	; 0x63
 800278a:	f7fd fddb 	bl	8000344 <assert_failed>
 800278e:	f044 60bf 	orr.w	r0, r4, #100139008	; 0x5f80000
 8002792:	f44f 436d 	mov.w	r3, #60672	; 0xed00
 8002796:	f440 3400 	orr.w	r4, r0, #131072	; 0x20000
 800279a:	f2ce 0300 	movt	r3, #57344	; 0xe000
 800279e:	60dc      	str	r4, [r3, #12]
 80027a0:	bd10      	pop	{r4, pc}
 80027a2:	bf00      	nop
 80027a4:	080088b8 	.word	0x080088b8

080027a8 <NVIC_Init>:
 80027a8:	b538      	push	{r3, r4, r5, lr}
 80027aa:	78c3      	ldrb	r3, [r0, #3]
 80027ac:	4604      	mov	r4, r0
 80027ae:	2b01      	cmp	r3, #1
 80027b0:	d903      	bls.n	80027ba <NVIC_Init+0x12>
 80027b2:	4828      	ldr	r0, [pc, #160]	; (8002854 <NVIC_Init+0xac>)
 80027b4:	2175      	movs	r1, #117	; 0x75
 80027b6:	f7fd fdc5 	bl	8000344 <assert_failed>
 80027ba:	7860      	ldrb	r0, [r4, #1]
 80027bc:	280f      	cmp	r0, #15
 80027be:	d843      	bhi.n	8002848 <NVIC_Init+0xa0>
 80027c0:	78a1      	ldrb	r1, [r4, #2]
 80027c2:	290f      	cmp	r1, #15
 80027c4:	d83b      	bhi.n	800283e <NVIC_Init+0x96>
 80027c6:	78e2      	ldrb	r2, [r4, #3]
 80027c8:	b972      	cbnz	r2, 80027e8 <NVIC_Init+0x40>
 80027ca:	7823      	ldrb	r3, [r4, #0]
 80027cc:	2101      	movs	r1, #1
 80027ce:	f003 001f 	and.w	r0, r3, #31
 80027d2:	fa01 f100 	lsl.w	r1, r1, r0
 80027d6:	095a      	lsrs	r2, r3, #5
 80027d8:	f44f 4361 	mov.w	r3, #57600	; 0xe100
 80027dc:	f2ce 0300 	movt	r3, #57344	; 0xe000
 80027e0:	3220      	adds	r2, #32
 80027e2:	f843 1022 	str.w	r1, [r3, r2, lsl #2]
 80027e6:	bd38      	pop	{r3, r4, r5, pc}
 80027e8:	f44f 456d 	mov.w	r5, #60672	; 0xed00
 80027ec:	f2ce 0500 	movt	r5, #57344	; 0xe000
 80027f0:	68e9      	ldr	r1, [r5, #12]
 80027f2:	7860      	ldrb	r0, [r4, #1]
 80027f4:	43ca      	mvns	r2, r1
 80027f6:	f3c2 2302 	ubfx	r3, r2, #8, #3
 80027fa:	210f      	movs	r1, #15
 80027fc:	f1c3 0504 	rsb	r5, r3, #4
 8002800:	fa21 f203 	lsr.w	r2, r1, r3
 8002804:	fa00 f005 	lsl.w	r0, r0, r5
 8002808:	78a5      	ldrb	r5, [r4, #2]
 800280a:	7823      	ldrb	r3, [r4, #0]
 800280c:	ea02 0105 	and.w	r1, r2, r5
 8002810:	4301      	orrs	r1, r0
 8002812:	0108      	lsls	r0, r1, #4
 8002814:	f103 4360 	add.w	r3, r3, #3758096384	; 0xe0000000
 8002818:	b2c2      	uxtb	r2, r0
 800281a:	f503 4161 	add.w	r1, r3, #57600	; 0xe100
 800281e:	f881 2300 	strb.w	r2, [r1, #768]	; 0x300
 8002822:	7820      	ldrb	r0, [r4, #0]
 8002824:	2101      	movs	r1, #1
 8002826:	f000 031f 	and.w	r3, r0, #31
 800282a:	fa01 f103 	lsl.w	r1, r1, r3
 800282e:	f44f 4361 	mov.w	r3, #57600	; 0xe100
 8002832:	f2ce 0300 	movt	r3, #57344	; 0xe000
 8002836:	0942      	lsrs	r2, r0, #5
 8002838:	f843 1022 	str.w	r1, [r3, r2, lsl #2]
 800283c:	bd38      	pop	{r3, r4, r5, pc}
 800283e:	4805      	ldr	r0, [pc, #20]	; (8002854 <NVIC_Init+0xac>)
 8002840:	2177      	movs	r1, #119	; 0x77
 8002842:	f7fd fd7f 	bl	8000344 <assert_failed>
 8002846:	e7be      	b.n	80027c6 <NVIC_Init+0x1e>
 8002848:	4802      	ldr	r0, [pc, #8]	; (8002854 <NVIC_Init+0xac>)
 800284a:	2176      	movs	r1, #118	; 0x76
 800284c:	f7fd fd7a 	bl	8000344 <assert_failed>
 8002850:	e7b6      	b.n	80027c0 <NVIC_Init+0x18>
 8002852:	bf00      	nop
 8002854:	080088b8 	.word	0x080088b8

08002858 <NVIC_SetVectorTable>:
 8002858:	f1b0 5f00 	cmp.w	r0, #536870912	; 0x20000000
 800285c:	b538      	push	{r3, r4, r5, lr}
 800285e:	4604      	mov	r4, r0
 8002860:	460d      	mov	r5, r1
 8002862:	d006      	beq.n	8002872 <NVIC_SetVectorTable+0x1a>
 8002864:	f1b0 6f00 	cmp.w	r0, #134217728	; 0x8000000
 8002868:	d003      	beq.n	8002872 <NVIC_SetVectorTable+0x1a>
 800286a:	480c      	ldr	r0, [pc, #48]	; (800289c <NVIC_SetVectorTable+0x44>)
 800286c:	219f      	movs	r1, #159	; 0x9f
 800286e:	f7fd fd69 	bl	8000344 <assert_failed>
 8002872:	f64f 73fe 	movw	r3, #65534	; 0xfffe
 8002876:	f2c0 030f 	movt	r3, #15
 800287a:	429d      	cmp	r5, r3
 800287c:	d903      	bls.n	8002886 <NVIC_SetVectorTable+0x2e>
 800287e:	4807      	ldr	r0, [pc, #28]	; (800289c <NVIC_SetVectorTable+0x44>)
 8002880:	21a0      	movs	r1, #160	; 0xa0
 8002882:	f7fd fd5f 	bl	8000344 <assert_failed>
 8002886:	f025 4060 	bic.w	r0, r5, #3758096384	; 0xe0000000
 800288a:	f020 057f 	bic.w	r5, r0, #127	; 0x7f
 800288e:	f44f 416d 	mov.w	r1, #60672	; 0xed00
 8002892:	432c      	orrs	r4, r5
 8002894:	f2ce 0100 	movt	r1, #57344	; 0xe000
 8002898:	608c      	str	r4, [r1, #8]
 800289a:	bd38      	pop	{r3, r4, r5, pc}
 800289c:	080088b8 	.word	0x080088b8

080028a0 <Reset_Handler>:
 80028a0:	2100      	movs	r1, #0
 80028a2:	f000 b804 	b.w	80028ae <LoopCopyDataInit>

080028a6 <CopyDataInit>:
 80028a6:	4b0c      	ldr	r3, [pc, #48]	; (80028d8 <LoopFillZerobss+0x12>)
 80028a8:	585b      	ldr	r3, [r3, r1]
 80028aa:	5043      	str	r3, [r0, r1]
 80028ac:	3104      	adds	r1, #4

080028ae <LoopCopyDataInit>:
 80028ae:	480b      	ldr	r0, [pc, #44]	; (80028dc <LoopFillZerobss+0x16>)
 80028b0:	4b0b      	ldr	r3, [pc, #44]	; (80028e0 <LoopFillZerobss+0x1a>)
 80028b2:	1842      	adds	r2, r0, r1
 80028b4:	429a      	cmp	r2, r3
 80028b6:	f4ff aff6 	bcc.w	80028a6 <CopyDataInit>
 80028ba:	4a0a      	ldr	r2, [pc, #40]	; (80028e4 <LoopFillZerobss+0x1e>)
 80028bc:	f000 b803 	b.w	80028c6 <LoopFillZerobss>

080028c0 <FillZerobss>:
 80028c0:	2300      	movs	r3, #0
 80028c2:	f842 3b04 	str.w	r3, [r2], #4

080028c6 <LoopFillZerobss>:
 80028c6:	4b08      	ldr	r3, [pc, #32]	; (80028e8 <LoopFillZerobss+0x22>)
 80028c8:	429a      	cmp	r2, r3
 80028ca:	f4ff aff9 	bcc.w	80028c0 <FillZerobss>
 80028ce:	f7fe f853 	bl	8000978 <SystemInit>
 80028d2:	f7fd fd6d 	bl	80003b0 <main>
 80028d6:	4770      	bx	lr
 80028d8:	080098dc 	.word	0x080098dc
 80028dc:	20000000 	.word	0x20000000
 80028e0:	20000314 	.word	0x20000314
 80028e4:	20000714 	.word	0x20000714
 80028e8:	20001de8 	.word	0x20001de8

080028ec <ADC1_2_IRQHandler>:
 80028ec:	f7ff bffe 	b.w	80028ec <ADC1_2_IRQHandler>

080028f0 <data_t_run>:
 80028f0:	f640 6354 	movw	r3, #3668	; 0xe54
 80028f4:	f2c2 0300 	movt	r3, #8192	; 0x2000
 80028f8:	2201      	movs	r2, #1
 80028fa:	f8c3 208c 	str.w	r2, [r3, #140]	; 0x8c
 80028fe:	4770      	bx	lr

08002900 <data_t_stop>:
 8002900:	f640 6354 	movw	r3, #3668	; 0xe54
 8002904:	f2c2 0300 	movt	r3, #8192	; 0x2000
 8002908:	2200      	movs	r2, #0
 800290a:	f8c3 208c 	str.w	r2, [r3, #140]	; 0x8c
 800290e:	4770      	bx	lr

08002910 <data_t_set_manual>:
 8002910:	7803      	ldrb	r3, [r0, #0]
 8002912:	2b79      	cmp	r3, #121	; 0x79
 8002914:	d00b      	beq.n	800292e <data_t_set_manual+0x1e>
 8002916:	2b59      	cmp	r3, #89	; 0x59
 8002918:	d009      	beq.n	800292e <data_t_set_manual+0x1e>
 800291a:	2b6e      	cmp	r3, #110	; 0x6e
 800291c:	d002      	beq.n	8002924 <data_t_set_manual+0x14>
 800291e:	2b4e      	cmp	r3, #78	; 0x4e
 8002920:	d000      	beq.n	8002924 <data_t_set_manual+0x14>
 8002922:	4770      	bx	lr
 8002924:	4804      	ldr	r0, [pc, #16]	; (8002938 <data_t_set_manual+0x28>)
 8002926:	2200      	movs	r2, #0
 8002928:	f8c0 2080 	str.w	r2, [r0, #128]	; 0x80
 800292c:	4770      	bx	lr
 800292e:	4b02      	ldr	r3, [pc, #8]	; (8002938 <data_t_set_manual+0x28>)
 8002930:	2101      	movs	r1, #1
 8002932:	f8c3 1080 	str.w	r1, [r3, #128]	; 0x80
 8002936:	4770      	bx	lr
 8002938:	20000e54 	.word	0x20000e54

0800293c <data_t_sample>:
 800293c:	b4f0      	push	{r4, r5, r6, r7}
 800293e:	4c33      	ldr	r4, [pc, #204]	; (8002a0c <data_t_sample+0xd0>)
 8002940:	6fe3      	ldr	r3, [r4, #124]	; 0x7c
 8002942:	b933      	cbnz	r3, 8002952 <data_t_sample+0x16>
 8002944:	f8b4 204a 	ldrh.w	r2, [r4, #74]	; 0x4a
 8002948:	f640 71fe 	movw	r1, #4094	; 0xffe
 800294c:	b290      	uxth	r0, r2
 800294e:	4288      	cmp	r0, r1
 8002950:	d949      	bls.n	80029e6 <data_t_sample+0xaa>
 8002952:	6fe6      	ldr	r6, [r4, #124]	; 0x7c
 8002954:	f04f 0c00 	mov.w	ip, #0
 8002958:	b2f6      	uxtb	r6, r6
 800295a:	492d      	ldr	r1, [pc, #180]	; (8002a10 <data_t_sample+0xd4>)
 800295c:	2500      	movs	r5, #0
 800295e:	f501 77c8 	add.w	r7, r1, #400	; 0x190
 8002962:	3624      	adds	r6, #36	; 0x24
 8002964:	f834 2016 	ldrh.w	r2, [r4, r6, lsl #1]
 8002968:	f834 3016 	ldrh.w	r3, [r4, r6, lsl #1]
 800296c:	0510      	lsls	r0, r2, #20
 800296e:	0d02      	lsrs	r2, r0, #20
 8002970:	804a      	strh	r2, [r1, #2]
 8002972:	1c88      	adds	r0, r1, #2
 8002974:	051b      	lsls	r3, r3, #20
 8002976:	3104      	adds	r1, #4
 8002978:	0d1b      	lsrs	r3, r3, #20
 800297a:	18ad      	adds	r5, r5, r2
 800297c:	42b9      	cmp	r1, r7
 800297e:	8043      	strh	r3, [r0, #2]
 8002980:	4a22      	ldr	r2, [pc, #136]	; (8002a0c <data_t_sample+0xd0>)
 8002982:	441d      	add	r5, r3
 8002984:	d1ee      	bne.n	8002964 <data_t_sample+0x28>
 8002986:	f248 501f 	movw	r0, #34079	; 0x851f
 800298a:	f2c5 10eb 	movt	r0, #20971	; 0x51eb
 800298e:	fba0 1305 	umull	r1, r3, r0, r5
 8002992:	6f91      	ldr	r1, [r2, #120]	; 0x78
 8002994:	f1bc 0f00 	cmp.w	ip, #0
 8002998:	d12f      	bne.n	80029fa <data_t_sample+0xbe>
 800299a:	3116      	adds	r1, #22
 800299c:	f3c3 108f 	ubfx	r0, r3, #6, #16
 80029a0:	eb02 0281 	add.w	r2, r2, r1, lsl #2
 80029a4:	80d0      	strh	r0, [r2, #6]
 80029a6:	f8d4 2080 	ldr.w	r2, [r4, #128]	; 0x80
 80029aa:	4b18      	ldr	r3, [pc, #96]	; (8002a0c <data_t_sample+0xd0>)
 80029ac:	2a01      	cmp	r2, #1
 80029ae:	d01d      	beq.n	80029ec <data_t_sample+0xb0>
 80029b0:	6f98      	ldr	r0, [r3, #120]	; 0x78
 80029b2:	6c19      	ldr	r1, [r3, #64]	; 0x40
 80029b4:	3016      	adds	r0, #22
 80029b6:	b28a      	uxth	r2, r1
 80029b8:	eb03 0380 	add.w	r3, r3, r0, lsl #2
 80029bc:	809a      	strh	r2, [r3, #4]
 80029be:	6fa3      	ldr	r3, [r4, #120]	; 0x78
 80029c0:	1c58      	adds	r0, r3, #1
 80029c2:	67a0      	str	r0, [r4, #120]	; 0x78
 80029c4:	6fa1      	ldr	r1, [r4, #120]	; 0x78
 80029c6:	2907      	cmp	r1, #7
 80029c8:	d003      	beq.n	80029d2 <data_t_sample+0x96>
 80029ca:	4a10      	ldr	r2, [pc, #64]	; (8002a0c <data_t_sample+0xd0>)
 80029cc:	f8d2 308c 	ldr.w	r3, [r2, #140]	; 0x8c
 80029d0:	b923      	cbnz	r3, 80029dc <data_t_sample+0xa0>
 80029d2:	2000      	movs	r0, #0
 80029d4:	2101      	movs	r1, #1
 80029d6:	67a0      	str	r0, [r4, #120]	; 0x78
 80029d8:	f8c4 1088 	str.w	r1, [r4, #136]	; 0x88
 80029dc:	2201      	movs	r2, #1
 80029de:	f8c4 2084 	str.w	r2, [r4, #132]	; 0x84
 80029e2:	bcf0      	pop	{r4, r5, r6, r7}
 80029e4:	4770      	bx	lr
 80029e6:	2601      	movs	r6, #1
 80029e8:	46b4      	mov	ip, r6
 80029ea:	e7b6      	b.n	800295a <data_t_sample+0x1e>
 80029ec:	6f98      	ldr	r0, [r3, #120]	; 0x78
 80029ee:	2200      	movs	r2, #0
 80029f0:	3016      	adds	r0, #22
 80029f2:	eb03 0180 	add.w	r1, r3, r0, lsl #2
 80029f6:	808a      	strh	r2, [r1, #4]
 80029f8:	e7e1      	b.n	80029be <data_t_sample+0x82>
 80029fa:	f3c3 138e 	ubfx	r3, r3, #6, #15
 80029fe:	3116      	adds	r1, #22
 8002a00:	f443 4000 	orr.w	r0, r3, #32768	; 0x8000
 8002a04:	eb02 0181 	add.w	r1, r2, r1, lsl #2
 8002a08:	80c8      	strh	r0, [r1, #6]
 8002a0a:	e7cc      	b.n	80029a6 <data_t_sample+0x6a>
 8002a0c:	20000e54 	.word	0x20000e54
 8002a10:	20001186 	.word	0x20001186

08002a14 <data_t_format>:
 8002a14:	4b0e      	ldr	r3, [pc, #56]	; (8002a50 <data_t_format+0x3c>)
 8002a16:	f8d3 208c 	ldr.w	r2, [r3, #140]	; 0x8c
 8002a1a:	2a01      	cmp	r2, #1
 8002a1c:	d00b      	beq.n	8002a36 <data_t_format+0x22>
 8002a1e:	1cd8      	adds	r0, r3, #3
 8002a20:	2200      	movs	r2, #0
 8002a22:	3216      	adds	r2, #22
 8002a24:	eb03 0382 	add.w	r3, r3, r2, lsl #2
 8002a28:	889a      	ldrh	r2, [r3, #4]
 8002a2a:	88db      	ldrh	r3, [r3, #6]
 8002a2c:	4909      	ldr	r1, [pc, #36]	; (8002a54 <data_t_format+0x40>)
 8002a2e:	b292      	uxth	r2, r2
 8002a30:	b29b      	uxth	r3, r3
 8002a32:	f003 bec1 	b.w	80067b8 <rt_sprintf>
 8002a36:	6f98      	ldr	r0, [r3, #120]	; 0x78
 8002a38:	b128      	cbz	r0, 8002a46 <data_t_format+0x32>
 8002a3a:	6f99      	ldr	r1, [r3, #120]	; 0x78
 8002a3c:	1e4a      	subs	r2, r1, #1
 8002a3e:	eb03 00c2 	add.w	r0, r3, r2, lsl #3
 8002a42:	3003      	adds	r0, #3
 8002a44:	e7ed      	b.n	8002a22 <data_t_format+0xe>
 8002a46:	f103 0033 	add.w	r0, r3, #51	; 0x33
 8002a4a:	2206      	movs	r2, #6
 8002a4c:	e7e9      	b.n	8002a22 <data_t_format+0xe>
 8002a4e:	bf00      	nop
 8002a50:	20000e54 	.word	0x20000e54
 8002a54:	080088e8 	.word	0x080088e8

08002a58 <get_temp>:
 8002a58:	b508      	push	{r3, lr}
 8002a5a:	f001 fc2f 	bl	80042bc <get_temp_>
 8002a5e:	f648 01ec 	movw	r1, #35052	; 0x88ec
 8002a62:	4602      	mov	r2, r0
 8002a64:	f6c0 0100 	movt	r1, #2048	; 0x800
 8002a68:	4805      	ldr	r0, [pc, #20]	; (8002a80 <get_temp+0x28>)
 8002a6a:	f003 fea5 	bl	80067b8 <rt_sprintf>
 8002a6e:	f640 6054 	movw	r0, #3668	; 0xe54
 8002a72:	f2c2 0000 	movt	r0, #8192	; 0x2000
 8002a76:	e8bd 4008 	ldmia.w	sp!, {r3, lr}
 8002a7a:	f002 ba01 	b.w	8004e80 <print2usb>
 8002a7e:	bf00      	nop
 8002a80:	20000e57 	.word	0x20000e57

08002a84 <data_t_upload>:
 8002a84:	f640 6054 	movw	r0, #3668	; 0xe54
 8002a88:	f2c2 0000 	movt	r0, #8192	; 0x2000
 8002a8c:	f002 b9f8 	b.w	8004e80 <print2usb>

08002a90 <data_t_reset>:
 8002a90:	2200      	movs	r2, #0
 8002a92:	f640 6354 	movw	r3, #3668	; 0xe54
 8002a96:	f44f 6080 	mov.w	r0, #1024	; 0x400
 8002a9a:	f2c2 0300 	movt	r3, #8192	; 0x2000
 8002a9e:	f2c4 0000 	movt	r0, #16384	; 0x4000
 8002aa2:	4611      	mov	r1, r2
 8002aa4:	641a      	str	r2, [r3, #64]	; 0x40
 8002aa6:	679a      	str	r2, [r3, #120]	; 0x78
 8002aa8:	f7fe bbc0 	b.w	800122c <TIM_SetCounter>

08002aac <data_t_init>:
 8002aac:	b538      	push	{r3, r4, r5, lr}
 8002aae:	f642 403d 	movw	r0, #11325	; 0x2c3d
 8002ab2:	f640 6454 	movw	r4, #3668	; 0xe54
 8002ab6:	f642 4349 	movw	r3, #11337	; 0x2c49
 8002aba:	f642 01f1 	movw	r1, #10481	; 0x28f1
 8002abe:	f642 1201 	movw	r2, #10497	; 0x2901
 8002ac2:	f2c2 0400 	movt	r4, #8192	; 0x2000
 8002ac6:	f6c0 0300 	movt	r3, #2048	; 0x800
 8002aca:	f6c0 0000 	movt	r0, #2048	; 0x800
 8002ace:	f6c0 0100 	movt	r1, #2048	; 0x800
 8002ad2:	f6c0 0200 	movt	r2, #2048	; 0x800
 8002ad6:	f8c4 30b0 	str.w	r3, [r4, #176]	; 0xb0
 8002ada:	f8c4 00a0 	str.w	r0, [r4, #160]	; 0xa0
 8002ade:	f8c4 1098 	str.w	r1, [r4, #152]	; 0x98
 8002ae2:	f8c4 209c 	str.w	r2, [r4, #156]	; 0x9c
 8002ae6:	f642 2385 	movw	r3, #10885	; 0x2a85
 8002aea:	f642 2015 	movw	r0, #10773	; 0x2a15
 8002aee:	f642 113d 	movw	r1, #10557	; 0x293d
 8002af2:	f642 2291 	movw	r2, #10897	; 0x2a91
 8002af6:	2500      	movs	r5, #0
 8002af8:	f6c0 0300 	movt	r3, #2048	; 0x800
 8002afc:	f6c0 0000 	movt	r0, #2048	; 0x800
 8002b00:	f6c0 0100 	movt	r1, #2048	; 0x800
 8002b04:	f6c0 0200 	movt	r2, #2048	; 0x800
 8002b08:	f8c4 30a8 	str.w	r3, [r4, #168]	; 0xa8
 8002b0c:	f8c4 00ac 	str.w	r0, [r4, #172]	; 0xac
 8002b10:	f8c4 10a4 	str.w	r1, [r4, #164]	; 0xa4
 8002b14:	f8c4 2094 	str.w	r2, [r4, #148]	; 0x94
 8002b18:	67e5      	str	r5, [r4, #124]	; 0x7c
 8002b1a:	f7ff ffb9 	bl	8002a90 <data_t_reset>
 8002b1e:	2301      	movs	r3, #1
 8002b20:	2030      	movs	r0, #48	; 0x30
 8002b22:	2178      	movs	r1, #120	; 0x78
 8002b24:	223a      	movs	r2, #58	; 0x3a
 8002b26:	6463      	str	r3, [r4, #68]	; 0x44
 8002b28:	7020      	strb	r0, [r4, #0]
 8002b2a:	f8c4 5084 	str.w	r5, [r4, #132]	; 0x84
 8002b2e:	7061      	strb	r1, [r4, #1]
 8002b30:	f8c4 5088 	str.w	r5, [r4, #136]	; 0x88
 8002b34:	70a2      	strb	r2, [r4, #2]
 8002b36:	f8c4 508c 	str.w	r5, [r4, #140]	; 0x8c
 8002b3a:	f8c4 5080 	str.w	r5, [r4, #128]	; 0x80
 8002b3e:	bd38      	pop	{r3, r4, r5, pc}

08002b40 <switch_RAT>:
 8002b40:	b538      	push	{r3, r4, r5, lr}
 8002b42:	7803      	ldrb	r3, [r0, #0]
 8002b44:	4604      	mov	r4, r0
 8002b46:	3b41      	subs	r3, #65	; 0x41
 8002b48:	2b22      	cmp	r3, #34	; 0x22
 8002b4a:	d820      	bhi.n	8002b8e <switch_RAT+0x4e>
 8002b4c:	e8df f003 	tbb	[pc, r3]
 8002b50:	1f1f1f24 	.word	0x1f1f1f24
 8002b54:	1f1f1f1f 	.word	0x1f1f1f1f
 8002b58:	1f1f1f1f 	.word	0x1f1f1f1f
 8002b5c:	1f1f1f1f 	.word	0x1f1f1f1f
 8002b60:	3f1f2f1f 	.word	0x3f1f2f1f
 8002b64:	1f1f1f1f 	.word	0x1f1f1f1f
 8002b68:	1f1f1f1f 	.word	0x1f1f1f1f
 8002b6c:	1f1f1f1f 	.word	0x1f1f1f1f
 8002b70:	5046      	.short	0x5046
 8002b72:	12          	.byte	0x12
 8002b73:	00          	.byte	0x00
 8002b74:	7882      	ldrb	r2, [r0, #2]
 8002b76:	f44f 6000 	mov.w	r0, #2048	; 0x800
 8002b7a:	2a79      	cmp	r2, #121	; 0x79
 8002b7c:	f2c4 0001 	movt	r0, #16385	; 0x4001
 8002b80:	f44f 4100 	mov.w	r1, #32768	; 0x8000
 8002b84:	d01f      	beq.n	8002bc6 <switch_RAT+0x86>
 8002b86:	e8bd 4038 	ldmia.w	sp!, {r3, r4, r5, lr}
 8002b8a:	f7fe bf7f 	b.w	8001a8c <GPIO_ResetBits>
 8002b8e:	481d      	ldr	r0, [pc, #116]	; (8002c04 <switch_RAT+0xc4>)
 8002b90:	e8bd 4038 	ldmia.w	sp!, {r3, r4, r5, lr}
 8002b94:	f003 be36 	b.w	8006804 <rt_kprintf>
 8002b98:	4d1b      	ldr	r5, [pc, #108]	; (8002c08 <switch_RAT+0xc8>)
 8002b9a:	6928      	ldr	r0, [r5, #16]
 8002b9c:	8aa9      	ldrh	r1, [r5, #20]
 8002b9e:	f7fe ff39 	bl	8001a14 <GPIO_SetBits>
 8002ba2:	78a2      	ldrb	r2, [r4, #2]
 8002ba4:	6828      	ldr	r0, [r5, #0]
 8002ba6:	2a31      	cmp	r2, #49	; 0x31
 8002ba8:	88a9      	ldrh	r1, [r5, #4]
 8002baa:	d1ec      	bne.n	8002b86 <switch_RAT+0x46>
 8002bac:	e00b      	b.n	8002bc6 <switch_RAT+0x86>
 8002bae:	4d16      	ldr	r5, [pc, #88]	; (8002c08 <switch_RAT+0xc8>)
 8002bb0:	6928      	ldr	r0, [r5, #16]
 8002bb2:	8aa9      	ldrh	r1, [r5, #20]
 8002bb4:	f7fe ff2e 	bl	8001a14 <GPIO_SetBits>
 8002bb8:	78a3      	ldrb	r3, [r4, #2]
 8002bba:	68a8      	ldr	r0, [r5, #8]
 8002bbc:	2b59      	cmp	r3, #89	; 0x59
 8002bbe:	89a9      	ldrh	r1, [r5, #12]
 8002bc0:	d0e1      	beq.n	8002b86 <switch_RAT+0x46>
 8002bc2:	2b79      	cmp	r3, #121	; 0x79
 8002bc4:	d0df      	beq.n	8002b86 <switch_RAT+0x46>
 8002bc6:	e8bd 4038 	ldmia.w	sp!, {r3, r4, r5, lr}
 8002bca:	f7fe bf23 	b.w	8001a14 <GPIO_SetBits>
 8002bce:	490e      	ldr	r1, [pc, #56]	; (8002c08 <switch_RAT+0xc8>)
 8002bd0:	6908      	ldr	r0, [r1, #16]
 8002bd2:	8a89      	ldrh	r1, [r1, #20]
 8002bd4:	e8bd 4038 	ldmia.w	sp!, {r3, r4, r5, lr}
 8002bd8:	f7fe bf58 	b.w	8001a8c <GPIO_ResetBits>
 8002bdc:	7882      	ldrb	r2, [r0, #2]
 8002bde:	f44f 6040 	mov.w	r0, #3072	; 0xc00
 8002be2:	2a79      	cmp	r2, #121	; 0x79
 8002be4:	f2c4 0001 	movt	r0, #16385	; 0x4001
 8002be8:	f44f 7180 	mov.w	r1, #256	; 0x100
 8002bec:	d1cb      	bne.n	8002b86 <switch_RAT+0x46>
 8002bee:	e7ea      	b.n	8002bc6 <switch_RAT+0x86>
 8002bf0:	7883      	ldrb	r3, [r0, #2]
 8002bf2:	f44f 6040 	mov.w	r0, #3072	; 0xc00
 8002bf6:	2b79      	cmp	r3, #121	; 0x79
 8002bf8:	f2c4 0001 	movt	r0, #16385	; 0x4001
 8002bfc:	f44f 7100 	mov.w	r1, #512	; 0x200
 8002c00:	d1c1      	bne.n	8002b86 <switch_RAT+0x46>
 8002c02:	e7e0      	b.n	8002bc6 <switch_RAT+0x86>
 8002c04:	080088f4 	.word	0x080088f4
 8002c08:	20000090 	.word	0x20000090

08002c0c <data_t_set_channel>:
 8002c0c:	b508      	push	{r3, lr}
 8002c0e:	f005 fc39 	bl	8008484 <atoi>
 8002c12:	f640 6354 	movw	r3, #3668	; 0xe54
 8002c16:	f2c2 0300 	movt	r3, #8192	; 0x2000
 8002c1a:	67d8      	str	r0, [r3, #124]	; 0x7c
 8002c1c:	bd08      	pop	{r3, pc}
 8002c1e:	bf00      	nop

08002c20 <data_t_set_interval>:
 8002c20:	b508      	push	{r3, lr}
 8002c22:	f005 fc2f 	bl	8008484 <atoi>
 8002c26:	f640 6354 	movw	r3, #3668	; 0xe54
 8002c2a:	b280      	uxth	r0, r0
 8002c2c:	f640 32b8 	movw	r2, #3000	; 0xbb8
 8002c30:	fb92 f1f0 	sdiv	r1, r2, r0
 8002c34:	f2c2 0300 	movt	r3, #8192	; 0x2000
 8002c38:	6459      	str	r1, [r3, #68]	; 0x44
 8002c3a:	bd08      	pop	{r3, pc}

08002c3c <data_t_cfg>:
 8002c3c:	f240 0170 	movw	r1, #112	; 0x70
 8002c40:	f2c2 0100 	movt	r1, #8192	; 0x2000
 8002c44:	f000 ba22 	b.w	800308c <deal_cmd__>

08002c48 <data_t_service>:
 8002c48:	b538      	push	{r3, r4, r5, lr}
 8002c4a:	4c0a      	ldr	r4, [pc, #40]	; (8002c74 <data_t_service+0x2c>)
 8002c4c:	f8d4 3084 	ldr.w	r3, [r4, #132]	; 0x84
 8002c50:	b903      	cbnz	r3, 8002c54 <data_t_service+0xc>
 8002c52:	bd38      	pop	{r3, r4, r5, pc}
 8002c54:	2500      	movs	r5, #0
 8002c56:	f8c4 5084 	str.w	r5, [r4, #132]	; 0x84
 8002c5a:	f8d4 00ac 	ldr.w	r0, [r4, #172]	; 0xac
 8002c5e:	4780      	blx	r0
 8002c60:	f8d4 1088 	ldr.w	r1, [r4, #136]	; 0x88
 8002c64:	2901      	cmp	r1, #1
 8002c66:	d1f4      	bne.n	8002c52 <data_t_service+0xa>
 8002c68:	f8c4 5088 	str.w	r5, [r4, #136]	; 0x88
 8002c6c:	f8d4 20a8 	ldr.w	r2, [r4, #168]	; 0xa8
 8002c70:	4790      	blx	r2
 8002c72:	e7ee      	b.n	8002c52 <data_t_service+0xa>
 8002c74:	20000e54 	.word	0x20000e54

08002c78 <delay_loop>:
 8002c78:	2800      	cmp	r0, #0
 8002c7a:	dd0d      	ble.n	8002c98 <delay_loop+0x20>
 8002c7c:	1e43      	subs	r3, r0, #1
 8002c7e:	f003 0201 	and.w	r2, r3, #1
 8002c82:	bf00      	nop
 8002c84:	b14b      	cbz	r3, 8002c9a <delay_loop+0x22>
 8002c86:	b112      	cbz	r2, 8002c8e <delay_loop+0x16>
 8002c88:	bf00      	nop
 8002c8a:	3b01      	subs	r3, #1
 8002c8c:	d006      	beq.n	8002c9c <delay_loop+0x24>
 8002c8e:	bf00      	nop
 8002c90:	1e58      	subs	r0, r3, #1
 8002c92:	bf00      	nop
 8002c94:	1e43      	subs	r3, r0, #1
 8002c96:	d1fa      	bne.n	8002c8e <delay_loop+0x16>
 8002c98:	4770      	bx	lr
 8002c9a:	4770      	bx	lr
 8002c9c:	4770      	bx	lr
 8002c9e:	bf00      	nop

08002ca0 <RCC_ADC_init>:
 8002ca0:	2001      	movs	r0, #1
 8002ca2:	4601      	mov	r1, r0
 8002ca4:	b508      	push	{r3, lr}
 8002ca6:	f7fd ff79 	bl	8000b9c <RCC_AHBPeriphClockCmd>
 8002caa:	f44f 7005 	mov.w	r0, #532	; 0x214
 8002cae:	2101      	movs	r1, #1
 8002cb0:	e8bd 4008 	ldmia.w	sp!, {r3, lr}
 8002cb4:	f7fd bf9e 	b.w	8000bf4 <RCC_APB2PeriphClockCmd>

08002cb8 <GPIO_SW_init>:
 8002cb8:	b570      	push	{r4, r5, r6, lr}
 8002cba:	f240 0490 	movw	r4, #144	; 0x90
 8002cbe:	f2c2 0400 	movt	r4, #8192	; 0x2000
 8002cc2:	b082      	sub	sp, #8
 8002cc4:	88a3      	ldrh	r3, [r4, #4]
 8002cc6:	2610      	movs	r6, #16
 8002cc8:	2502      	movs	r5, #2
 8002cca:	6820      	ldr	r0, [r4, #0]
 8002ccc:	a901      	add	r1, sp, #4
 8002cce:	f8ad 3004 	strh.w	r3, [sp, #4]
 8002cd2:	f88d 6007 	strb.w	r6, [sp, #7]
 8002cd6:	f88d 5006 	strb.w	r5, [sp, #6]
 8002cda:	f7fe fc99 	bl	8001610 <GPIO_Init>
 8002cde:	89a2      	ldrh	r2, [r4, #12]
 8002ce0:	68a0      	ldr	r0, [r4, #8]
 8002ce2:	a901      	add	r1, sp, #4
 8002ce4:	f8ad 2004 	strh.w	r2, [sp, #4]
 8002ce8:	f88d 6007 	strb.w	r6, [sp, #7]
 8002cec:	f88d 5006 	strb.w	r5, [sp, #6]
 8002cf0:	f7fe fc8e 	bl	8001610 <GPIO_Init>
 8002cf4:	8aa3      	ldrh	r3, [r4, #20]
 8002cf6:	6920      	ldr	r0, [r4, #16]
 8002cf8:	a901      	add	r1, sp, #4
 8002cfa:	f8ad 3004 	strh.w	r3, [sp, #4]
 8002cfe:	f88d 6007 	strb.w	r6, [sp, #7]
 8002d02:	f88d 5006 	strb.w	r5, [sp, #6]
 8002d06:	f7fe fc83 	bl	8001610 <GPIO_Init>
 8002d0a:	b002      	add	sp, #8
 8002d0c:	bd70      	pop	{r4, r5, r6, pc}
 8002d0e:	bf00      	nop

08002d10 <sw_init>:
 8002d10:	b508      	push	{r3, lr}
 8002d12:	2010      	movs	r0, #16
 8002d14:	2101      	movs	r1, #1
 8002d16:	f7fd ff6d 	bl	8000bf4 <RCC_APB2PeriphClockCmd>
 8002d1a:	e8bd 4008 	ldmia.w	sp!, {r3, lr}
 8002d1e:	f7ff bfcb 	b.w	8002cb8 <GPIO_SW_init>
 8002d22:	bf00      	nop

08002d24 <GPIO_ADC_init>:
 8002d24:	b500      	push	{lr}
 8002d26:	f44f 6000 	mov.w	r0, #2048	; 0x800
 8002d2a:	b083      	sub	sp, #12
 8002d2c:	2301      	movs	r3, #1
 8002d2e:	2200      	movs	r2, #0
 8002d30:	f2c4 0001 	movt	r0, #16385	; 0x4001
 8002d34:	a901      	add	r1, sp, #4
 8002d36:	f8ad 3004 	strh.w	r3, [sp, #4]
 8002d3a:	f88d 2007 	strb.w	r2, [sp, #7]
 8002d3e:	f7fe fc67 	bl	8001610 <GPIO_Init>
 8002d42:	f000 ffa7 	bl	8003c94 <pga_init>
 8002d46:	b003      	add	sp, #12
 8002d48:	bd00      	pop	{pc}
 8002d4a:	bf00      	nop

08002d4c <DMA_ADC_init>:
 8002d4c:	b510      	push	{r4, lr}
 8002d4e:	2408      	movs	r4, #8
 8002d50:	f2c4 0402 	movt	r4, #16386	; 0x4002
 8002d54:	b08c      	sub	sp, #48	; 0x30
 8002d56:	4620      	mov	r0, r4
 8002d58:	f7ff fac2 	bl	80022e0 <DMA_DeInit>
 8002d5c:	f242 424c 	movw	r2, #9292	; 0x244c
 8002d60:	f2c4 0201 	movt	r2, #16385	; 0x4001
 8002d64:	9201      	str	r2, [sp, #4]
 8002d66:	4a0f      	ldr	r2, [pc, #60]	; (8002da4 <DMA_ADC_init+0x58>)
 8002d68:	2300      	movs	r3, #0
 8002d6a:	9202      	str	r2, [sp, #8]
 8002d6c:	2204      	movs	r2, #4
 8002d6e:	9204      	str	r2, [sp, #16]
 8002d70:	2280      	movs	r2, #128	; 0x80
 8002d72:	9206      	str	r2, [sp, #24]
 8002d74:	f44f 7280 	mov.w	r2, #256	; 0x100
 8002d78:	9207      	str	r2, [sp, #28]
 8002d7a:	f44f 6280 	mov.w	r2, #1024	; 0x400
 8002d7e:	9208      	str	r2, [sp, #32]
 8002d80:	2220      	movs	r2, #32
 8002d82:	a901      	add	r1, sp, #4
 8002d84:	4620      	mov	r0, r4
 8002d86:	9209      	str	r2, [sp, #36]	; 0x24
 8002d88:	f44f 5200 	mov.w	r2, #8192	; 0x2000
 8002d8c:	9303      	str	r3, [sp, #12]
 8002d8e:	9305      	str	r3, [sp, #20]
 8002d90:	920a      	str	r2, [sp, #40]	; 0x28
 8002d92:	930b      	str	r3, [sp, #44]	; 0x2c
 8002d94:	f7ff fbb6 	bl	8002504 <DMA_Init>
 8002d98:	4620      	mov	r0, r4
 8002d9a:	2101      	movs	r1, #1
 8002d9c:	f7ff fc82 	bl	80026a4 <DMA_Cmd>
 8002da0:	b00c      	add	sp, #48	; 0x30
 8002da2:	bd10      	pop	{r4, pc}
 8002da4:	20000e9c 	.word	0x20000e9c

08002da8 <adc_config>:
 8002da8:	b570      	push	{r4, r5, r6, lr}
 8002daa:	4b40      	ldr	r3, [pc, #256]	; (8002eac <adc_config+0x104>)
 8002dac:	4a40      	ldr	r2, [pc, #256]	; (8002eb0 <adc_config+0x108>)
 8002dae:	b086      	sub	sp, #24
 8002db0:	f8c3 2090 	str.w	r2, [r3, #144]	; 0x90
 8002db4:	2604      	movs	r6, #4
 8002db6:	f7ff fe79 	bl	8002aac <data_t_init>
 8002dba:	f7ff ff71 	bl	8002ca0 <RCC_ADC_init>
 8002dbe:	f7ff ffb1 	bl	8002d24 <GPIO_ADC_init>
 8002dc2:	f7ff ffc3 	bl	8002d4c <DMA_ADC_init>
 8002dc6:	f001 f8bb 	bl	8003f40 <ds18b20_init>
 8002dca:	f000 ff63 	bl	8003c94 <pga_init>
 8002dce:	f7ff ff9f 	bl	8002d10 <sw_init>
 8002dd2:	f44f 5010 	mov.w	r0, #9216	; 0x2400
 8002dd6:	2401      	movs	r4, #1
 8002dd8:	2500      	movs	r5, #0
 8002dda:	f44f 2260 	mov.w	r2, #917504	; 0xe0000
 8002dde:	f2c4 0001 	movt	r0, #16385	; 0x4001
 8002de2:	eb0d 0106 	add.w	r1, sp, r6
 8002de6:	9203      	str	r2, [sp, #12]
 8002de8:	9501      	str	r5, [sp, #4]
 8002dea:	f88d 4008 	strb.w	r4, [sp, #8]
 8002dee:	f88d 4009 	strb.w	r4, [sp, #9]
 8002df2:	9504      	str	r5, [sp, #16]
 8002df4:	f88d 6014 	strb.w	r6, [sp, #20]
 8002df8:	f7fd ff68 	bl	8000ccc <ADC_Init>
 8002dfc:	f44f 5010 	mov.w	r0, #9216	; 0x2400
 8002e00:	f2c4 0001 	movt	r0, #16385	; 0x4001
 8002e04:	4629      	mov	r1, r5
 8002e06:	4622      	mov	r2, r4
 8002e08:	2305      	movs	r3, #5
 8002e0a:	f7fe f905 	bl	8001018 <ADC_RegularChannelConfig>
 8002e0e:	f44f 5010 	mov.w	r0, #9216	; 0x2400
 8002e12:	f2c4 0001 	movt	r0, #16385	; 0x4001
 8002e16:	4621      	mov	r1, r4
 8002e18:	2202      	movs	r2, #2
 8002e1a:	2305      	movs	r3, #5
 8002e1c:	f7fe f8fc 	bl	8001018 <ADC_RegularChannelConfig>
 8002e20:	f44f 5010 	mov.w	r0, #9216	; 0x2400
 8002e24:	f2c4 0001 	movt	r0, #16385	; 0x4001
 8002e28:	2102      	movs	r1, #2
 8002e2a:	2203      	movs	r2, #3
 8002e2c:	2305      	movs	r3, #5
 8002e2e:	f7fe f8f3 	bl	8001018 <ADC_RegularChannelConfig>
 8002e32:	f44f 5010 	mov.w	r0, #9216	; 0x2400
 8002e36:	4632      	mov	r2, r6
 8002e38:	2305      	movs	r3, #5
 8002e3a:	f2c4 0001 	movt	r0, #16385	; 0x4001
 8002e3e:	2103      	movs	r1, #3
 8002e40:	f7fe f8ea 	bl	8001018 <ADC_RegularChannelConfig>
 8002e44:	f44f 5010 	mov.w	r0, #9216	; 0x2400
 8002e48:	f2c4 0001 	movt	r0, #16385	; 0x4001
 8002e4c:	4621      	mov	r1, r4
 8002e4e:	f7fe f809 	bl	8000e64 <ADC_DMACmd>
 8002e52:	f44f 5010 	mov.w	r0, #9216	; 0x2400
 8002e56:	f2c4 0001 	movt	r0, #16385	; 0x4001
 8002e5a:	4621      	mov	r1, r4
 8002e5c:	f7fd ffd2 	bl	8000e04 <ADC_Cmd>
 8002e60:	f44f 5010 	mov.w	r0, #9216	; 0x2400
 8002e64:	f2c4 0001 	movt	r0, #16385	; 0x4001
 8002e68:	f7fe f826 	bl	8000eb8 <ADC_ResetCalibration>
 8002e6c:	f44f 5010 	mov.w	r0, #9216	; 0x2400
 8002e70:	f2c4 0001 	movt	r0, #16385	; 0x4001
 8002e74:	f7fe f840 	bl	8000ef8 <ADC_GetResetCalibrationStatus>
 8002e78:	2800      	cmp	r0, #0
 8002e7a:	d1f7      	bne.n	8002e6c <adc_config+0xc4>
 8002e7c:	f44f 5010 	mov.w	r0, #9216	; 0x2400
 8002e80:	f2c4 0001 	movt	r0, #16385	; 0x4001
 8002e84:	f7fe f858 	bl	8000f38 <ADC_StartCalibration>
 8002e88:	f44f 5010 	mov.w	r0, #9216	; 0x2400
 8002e8c:	f2c4 0001 	movt	r0, #16385	; 0x4001
 8002e90:	f7fe f872 	bl	8000f78 <ADC_GetCalibrationStatus>
 8002e94:	2800      	cmp	r0, #0
 8002e96:	d1f7      	bne.n	8002e88 <adc_config+0xe0>
 8002e98:	f44f 5010 	mov.w	r0, #9216	; 0x2400
 8002e9c:	f2c4 0001 	movt	r0, #16385	; 0x4001
 8002ea0:	2101      	movs	r1, #1
 8002ea2:	f7fe f889 	bl	8000fb8 <ADC_SoftwareStartConvCmd>
 8002ea6:	b006      	add	sp, #24
 8002ea8:	bd70      	pop	{r4, r5, r6, pc}
 8002eaa:	bf00      	nop
 8002eac:	20000e54 	.word	0x20000e54
 8002eb0:	08002aad 	.word	0x08002aad

08002eb4 <ad_sample_thread_entry>:
 8002eb4:	b538      	push	{r3, r4, r5, lr}
 8002eb6:	4c07      	ldr	r4, [pc, #28]	; (8002ed4 <ad_sample_thread_entry+0x20>)
 8002eb8:	4625      	mov	r5, r4
 8002eba:	e002      	b.n	8002ec2 <ad_sample_thread_entry+0xe>
 8002ebc:	6c60      	ldr	r0, [r4, #68]	; 0x44
 8002ebe:	f004 fbdd 	bl	800767c <rt_thread_delay>
 8002ec2:	f8d4 308c 	ldr.w	r3, [r4, #140]	; 0x8c
 8002ec6:	2b01      	cmp	r3, #1
 8002ec8:	d1f8      	bne.n	8002ebc <ad_sample_thread_entry+0x8>
 8002eca:	f8d5 00a4 	ldr.w	r0, [r5, #164]	; 0xa4
 8002ece:	4780      	blx	r0
 8002ed0:	e7f4      	b.n	8002ebc <ad_sample_thread_entry+0x8>
 8002ed2:	bf00      	nop
 8002ed4:	20000e54 	.word	0x20000e54

08002ed8 <has_cmd_>:
 8002ed8:	f241 3398 	movw	r3, #5016	; 0x1398
 8002edc:	f2c2 0300 	movt	r3, #8192	; 0x2000
 8002ee0:	f8d3 0208 	ldr.w	r0, [r3, #520]	; 0x208
 8002ee4:	f8d3 1414 	ldr.w	r1, [r3, #1044]	; 0x414
 8002ee8:	1840      	adds	r0, r0, r1
 8002eea:	4770      	bx	lr

08002eec <append_>:
 8002eec:	2901      	cmp	r1, #1
 8002eee:	e92d 41f0 	stmdb	sp!, {r4, r5, r6, r7, r8, lr}
 8002ef2:	4604      	mov	r4, r0
 8002ef4:	d005      	beq.n	8002f02 <append_+0x16>
 8002ef6:	2902      	cmp	r1, #2
 8002ef8:	d028      	beq.n	8002f4c <append_+0x60>
 8002efa:	f04f 30ff 	mov.w	r0, #4294967295
 8002efe:	e8bd 81f0 	ldmia.w	sp!, {r4, r5, r6, r7, r8, pc}
 8002f02:	4918      	ldr	r1, [pc, #96]	; (8002f64 <append_+0x78>)
 8002f04:	f8d1 2200 	ldr.w	r2, [r1, #512]	; 0x200
 8002f08:	f501 7602 	add.w	r6, r1, #520	; 0x208
 8002f0c:	eb01 1542 	add.w	r5, r1, r2, lsl #5
 8002f10:	f501 7700 	add.w	r7, r1, #512	; 0x200
 8002f14:	4620      	mov	r0, r4
 8002f16:	f003 f9e3 	bl	80062e0 <rt_strlen>
 8002f1a:	281f      	cmp	r0, #31
 8002f1c:	bfb4      	ite	lt
 8002f1e:	4680      	movlt	r8, r0
 8002f20:	f04f 081f 	movge.w	r8, #31
 8002f24:	4621      	mov	r1, r4
 8002f26:	4642      	mov	r2, r8
 8002f28:	4628      	mov	r0, r5
 8002f2a:	f005 fad9 	bl	80084e0 <strncpy>
 8002f2e:	2300      	movs	r3, #0
 8002f30:	f805 3008 	strb.w	r3, [r5, r8]
 8002f34:	6839      	ldr	r1, [r7, #0]
 8002f36:	2001      	movs	r0, #1
 8002f38:	180a      	adds	r2, r1, r0
 8002f3a:	2a10      	cmp	r2, #16
 8002f3c:	bf08      	it	eq
 8002f3e:	2200      	moveq	r2, #0
 8002f40:	603a      	str	r2, [r7, #0]
 8002f42:	6833      	ldr	r3, [r6, #0]
 8002f44:	1819      	adds	r1, r3, r0
 8002f46:	6031      	str	r1, [r6, #0]
 8002f48:	e8bd 81f0 	ldmia.w	sp!, {r4, r5, r6, r7, r8, pc}
 8002f4c:	4f05      	ldr	r7, [pc, #20]	; (8002f64 <append_+0x78>)
 8002f4e:	f8d7 540c 	ldr.w	r5, [r7, #1036]	; 0x40c
 8002f52:	f207 4614 	addw	r6, r7, #1044	; 0x414
 8002f56:	eb07 1045 	add.w	r0, r7, r5, lsl #5
 8002f5a:	f500 7503 	add.w	r5, r0, #524	; 0x20c
 8002f5e:	f207 470c 	addw	r7, r7, #1036	; 0x40c
 8002f62:	e7d7      	b.n	8002f14 <append_+0x28>
 8002f64:	20001398 	.word	0x20001398

08002f68 <get_calibr>:
 8002f68:	b500      	push	{lr}
 8002f6a:	b0a1      	sub	sp, #132	; 0x84
 8002f6c:	2100      	movs	r1, #0
 8002f6e:	2280      	movs	r2, #128	; 0x80
 8002f70:	4668      	mov	r0, sp
 8002f72:	f003 f8cd 	bl	8006110 <rt_memset>
 8002f76:	f44f 4340 	mov.w	r3, #49152	; 0xc000
 8002f7a:	f6c0 0303 	movt	r3, #2051	; 0x803
 8002f7e:	f648 116c 	movw	r1, #35180	; 0x896c
 8002f82:	681a      	ldr	r2, [r3, #0]
 8002f84:	f6c0 0100 	movt	r1, #2048	; 0x800
 8002f88:	4668      	mov	r0, sp
 8002f8a:	f003 fc15 	bl	80067b8 <rt_sprintf>
 8002f8e:	f241 3118 	movw	r1, #4888	; 0x1318
 8002f92:	f2c2 0100 	movt	r1, #8192	; 0x2000
 8002f96:	4668      	mov	r0, sp
 8002f98:	680a      	ldr	r2, [r1, #0]
 8002f9a:	4790      	blx	r2
 8002f9c:	b021      	add	sp, #132	; 0x84
 8002f9e:	bd00      	pop	{pc}

08002fa0 <flash>:
 8002fa0:	b510      	push	{r4, lr}
 8002fa2:	b0a0      	sub	sp, #128	; 0x80
 8002fa4:	4604      	mov	r4, r0
 8002fa6:	2100      	movs	r1, #0
 8002fa8:	2280      	movs	r2, #128	; 0x80
 8002faa:	4668      	mov	r0, sp
 8002fac:	f003 f8b0 	bl	8006110 <rt_memset>
 8002fb0:	f648 1180 	movw	r1, #35200	; 0x8980
 8002fb4:	4622      	mov	r2, r4
 8002fb6:	f6c0 0100 	movt	r1, #2048	; 0x800
 8002fba:	4668      	mov	r0, sp
 8002fbc:	f003 fbfc 	bl	80067b8 <rt_sprintf>
 8002fc0:	f241 3318 	movw	r3, #4888	; 0x1318
 8002fc4:	f2c2 0300 	movt	r3, #8192	; 0x2000
 8002fc8:	4668      	mov	r0, sp
 8002fca:	6819      	ldr	r1, [r3, #0]
 8002fcc:	4788      	blx	r1
 8002fce:	2001      	movs	r0, #1
 8002fd0:	b020      	add	sp, #128	; 0x80
 8002fd2:	bd10      	pop	{r4, pc}

08002fd4 <set_calibr>:
 8002fd4:	b510      	push	{r4, lr}
 8002fd6:	b0a0      	sub	sp, #128	; 0x80
 8002fd8:	2100      	movs	r1, #0
 8002fda:	2280      	movs	r2, #128	; 0x80
 8002fdc:	4c0f      	ldr	r4, [pc, #60]	; (800301c <set_calibr+0x48>)
 8002fde:	4668      	mov	r0, sp
 8002fe0:	f003 f896 	bl	8006110 <rt_memset>
 8002fe4:	f648 118c 	movw	r1, #35212	; 0x898c
 8002fe8:	4622      	mov	r2, r4
 8002fea:	f6c0 0100 	movt	r1, #2048	; 0x800
 8002fee:	4668      	mov	r0, sp
 8002ff0:	f003 fbe2 	bl	80067b8 <rt_sprintf>
 8002ff4:	f241 3318 	movw	r3, #4888	; 0x1318
 8002ff8:	f2c2 0300 	movt	r3, #8192	; 0x2000
 8002ffc:	6819      	ldr	r1, [r3, #0]
 8002ffe:	4668      	mov	r0, sp
 8003000:	4788      	blx	r1
 8003002:	f7fe fa6d 	bl	80014e0 <FLASH_UnlockBank1>
 8003006:	f44f 4070 	mov.w	r0, #61440	; 0xf000
 800300a:	4621      	mov	r1, r4
 800300c:	f6c0 0000 	movt	r0, #2048	; 0x800
 8003010:	f7fe fab6 	bl	8001580 <FLASH_ProgramWord>
 8003014:	f7fe fa74 	bl	8001500 <FLASH_LockBank1>
 8003018:	b020      	add	sp, #128	; 0x80
 800301a:	bd10      	pop	{r4, pc}
 800301c:	20000e9c 	.word	0x20000e9c

08003020 <console_srv>:
 8003020:	b510      	push	{r4, lr}
 8003022:	4601      	mov	r1, r0
 8003024:	4604      	mov	r4, r0
 8003026:	2207      	movs	r2, #7
 8003028:	4810      	ldr	r0, [pc, #64]	; (800306c <console_srv+0x4c>)
 800302a:	f005 fa6d 	bl	8008508 <strncmp>
 800302e:	b1a0      	cbz	r0, 800305a <console_srv+0x3a>
 8003030:	480f      	ldr	r0, [pc, #60]	; (8003070 <console_srv+0x50>)
 8003032:	4621      	mov	r1, r4
 8003034:	2207      	movs	r2, #7
 8003036:	f005 fa67 	bl	8008508 <strncmp>
 800303a:	b128      	cbz	r0, 8003048 <console_srv+0x28>
 800303c:	4b0d      	ldr	r3, [pc, #52]	; (8003074 <console_srv+0x54>)
 800303e:	480e      	ldr	r0, [pc, #56]	; (8003078 <console_srv+0x58>)
 8003040:	6819      	ldr	r1, [r3, #0]
 8003042:	4788      	blx	r1
 8003044:	2001      	movs	r0, #1
 8003046:	bd10      	pop	{r4, pc}
 8003048:	4c0a      	ldr	r4, [pc, #40]	; (8003074 <console_srv+0x54>)
 800304a:	480c      	ldr	r0, [pc, #48]	; (800307c <console_srv+0x5c>)
 800304c:	6822      	ldr	r2, [r4, #0]
 800304e:	4790      	blx	r2
 8003050:	480b      	ldr	r0, [pc, #44]	; (8003080 <console_srv+0x60>)
 8003052:	6060      	str	r0, [r4, #4]
 8003054:	6020      	str	r0, [r4, #0]
 8003056:	2001      	movs	r0, #1
 8003058:	bd10      	pop	{r4, pc}
 800305a:	4c06      	ldr	r4, [pc, #24]	; (8003074 <console_srv+0x54>)
 800305c:	4809      	ldr	r0, [pc, #36]	; (8003084 <console_srv+0x64>)
 800305e:	6823      	ldr	r3, [r4, #0]
 8003060:	4798      	blx	r3
 8003062:	4909      	ldr	r1, [pc, #36]	; (8003088 <console_srv+0x68>)
 8003064:	2001      	movs	r0, #1
 8003066:	6061      	str	r1, [r4, #4]
 8003068:	6021      	str	r1, [r4, #0]
 800306a:	bd10      	pop	{r4, pc}
 800306c:	080089a4 	.word	0x080089a4
 8003070:	080089cc 	.word	0x080089cc
 8003074:	20001318 	.word	0x20001318
 8003078:	080089f8 	.word	0x080089f8
 800307c:	080089d4 	.word	0x080089d4
 8003080:	08006805 	.word	0x08006805
 8003084:	080089ac 	.word	0x080089ac
 8003088:	08004e81 	.word	0x08004e81

0800308c <deal_cmd__>:
 800308c:	b570      	push	{r4, r5, r6, lr}
 800308e:	460c      	mov	r4, r1
 8003090:	213a      	movs	r1, #58	; 0x3a
 8003092:	4605      	mov	r5, r0
 8003094:	f005 fa66 	bl	8008564 <strchr>
 8003098:	4606      	mov	r6, r0
 800309a:	b1c0      	cbz	r0, 80030ce <deal_cmd__+0x42>
 800309c:	2300      	movs	r3, #0
 800309e:	7003      	strb	r3, [r0, #0]
 80030a0:	6821      	ldr	r1, [r4, #0]
 80030a2:	b919      	cbnz	r1, 80030ac <deal_cmd__+0x20>
 80030a4:	e00c      	b.n	80030c0 <deal_cmd__+0x34>
 80030a6:	f854 1f08 	ldr.w	r1, [r4, #8]!
 80030aa:	b149      	cbz	r1, 80030c0 <deal_cmd__+0x34>
 80030ac:	4628      	mov	r0, r5
 80030ae:	f005 fa19 	bl	80084e4 <strcmp>
 80030b2:	2800      	cmp	r0, #0
 80030b4:	d1f7      	bne.n	80030a6 <deal_cmd__+0x1a>
 80030b6:	6863      	ldr	r3, [r4, #4]
 80030b8:	1c70      	adds	r0, r6, #1
 80030ba:	4798      	blx	r3
 80030bc:	2001      	movs	r0, #1
 80030be:	bd70      	pop	{r4, r5, r6, pc}
 80030c0:	4906      	ldr	r1, [pc, #24]	; (80030dc <deal_cmd__+0x50>)
 80030c2:	4807      	ldr	r0, [pc, #28]	; (80030e0 <deal_cmd__+0x54>)
 80030c4:	680a      	ldr	r2, [r1, #0]
 80030c6:	4790      	blx	r2
 80030c8:	f04f 30ff 	mov.w	r0, #4294967295
 80030cc:	bd70      	pop	{r4, r5, r6, pc}
 80030ce:	4903      	ldr	r1, [pc, #12]	; (80030dc <deal_cmd__+0x50>)
 80030d0:	4804      	ldr	r0, [pc, #16]	; (80030e4 <deal_cmd__+0x58>)
 80030d2:	680a      	ldr	r2, [r1, #0]
 80030d4:	4790      	blx	r2
 80030d6:	f04f 30ff 	mov.w	r0, #4294967295
 80030da:	bd70      	pop	{r4, r5, r6, pc}
 80030dc:	20001318 	.word	0x20001318
 80030e0:	08008a28 	.word	0x08008a28
 80030e4:	08008a10 	.word	0x08008a10

080030e8 <deal_cmd_>:
 80030e8:	e92d 41f0 	stmdb	sp!, {r4, r5, r6, r7, r8, lr}
 80030ec:	4d24      	ldr	r5, [pc, #144]	; (8003180 <deal_cmd_+0x98>)
 80030ee:	4c25      	ldr	r4, [pc, #148]	; (8003184 <deal_cmd_+0x9c>)
 80030f0:	682a      	ldr	r2, [r5, #0]
 80030f2:	f8d4 3208 	ldr.w	r3, [r4, #520]	; 0x208
 80030f6:	606a      	str	r2, [r5, #4]
 80030f8:	b1db      	cbz	r3, 8003132 <deal_cmd_+0x4a>
 80030fa:	f8df 8090 	ldr.w	r8, [pc, #144]	; 800318c <deal_cmd_+0xa4>
 80030fe:	4627      	mov	r7, r4
 8003100:	2600      	movs	r6, #0
 8003102:	f8d4 0204 	ldr.w	r0, [r4, #516]	; 0x204
 8003106:	4920      	ldr	r1, [pc, #128]	; (8003188 <deal_cmd_+0xa0>)
 8003108:	eb04 1040 	add.w	r0, r4, r0, lsl #5
 800310c:	f8c5 8000 	str.w	r8, [r5]
 8003110:	f7ff ffbc 	bl	800308c <deal_cmd__>
 8003114:	f8d4 1204 	ldr.w	r1, [r4, #516]	; 0x204
 8003118:	f8d4 3208 	ldr.w	r3, [r4, #520]	; 0x208
 800311c:	1c4a      	adds	r2, r1, #1
 800311e:	2a10      	cmp	r2, #16
 8003120:	bf08      	it	eq
 8003122:	4632      	moveq	r2, r6
 8003124:	1e58      	subs	r0, r3, #1
 8003126:	f8c7 2204 	str.w	r2, [r7, #516]	; 0x204
 800312a:	f8c4 0208 	str.w	r0, [r4, #520]	; 0x208
 800312e:	2800      	cmp	r0, #0
 8003130:	d1e7      	bne.n	8003102 <deal_cmd_+0x1a>
 8003132:	f8d4 1414 	ldr.w	r1, [r4, #1044]	; 0x414
 8003136:	b1e9      	cbz	r1, 8003174 <deal_cmd_+0x8c>
 8003138:	f8df 8050 	ldr.w	r8, [pc, #80]	; 800318c <deal_cmd_+0xa4>
 800313c:	4f11      	ldr	r7, [pc, #68]	; (8003184 <deal_cmd_+0x9c>)
 800313e:	2600      	movs	r6, #0
 8003140:	f8d4 3410 	ldr.w	r3, [r4, #1040]	; 0x410
 8003144:	4910      	ldr	r1, [pc, #64]	; (8003188 <deal_cmd_+0xa0>)
 8003146:	eb04 1243 	add.w	r2, r4, r3, lsl #5
 800314a:	f502 7003 	add.w	r0, r2, #524	; 0x20c
 800314e:	f8c5 8000 	str.w	r8, [r5]
 8003152:	f7ff ff9b 	bl	800308c <deal_cmd__>
 8003156:	f8d4 0410 	ldr.w	r0, [r4, #1040]	; 0x410
 800315a:	f8d4 1414 	ldr.w	r1, [r4, #1044]	; 0x414
 800315e:	1c42      	adds	r2, r0, #1
 8003160:	2a10      	cmp	r2, #16
 8003162:	bf08      	it	eq
 8003164:	4632      	moveq	r2, r6
 8003166:	1e4b      	subs	r3, r1, #1
 8003168:	f8c7 2410 	str.w	r2, [r7, #1040]	; 0x410
 800316c:	f8c4 3414 	str.w	r3, [r4, #1044]	; 0x414
 8003170:	2b00      	cmp	r3, #0
 8003172:	d1e5      	bne.n	8003140 <deal_cmd_+0x58>
 8003174:	6868      	ldr	r0, [r5, #4]
 8003176:	6028      	str	r0, [r5, #0]
 8003178:	2000      	movs	r0, #0
 800317a:	e8bd 81f0 	ldmia.w	sp!, {r4, r5, r6, r7, r8, pc}
 800317e:	bf00      	nop
 8003180:	20001318 	.word	0x20001318
 8003184:	20001398 	.word	0x20001398
 8003188:	200000c0 	.word	0x200000c0
 800318c:	08004e81 	.word	0x08004e81

08003190 <vout_srv>:
 8003190:	f240 1154 	movw	r1, #340	; 0x154
 8003194:	f2c2 0100 	movt	r1, #8192	; 0x2000
 8003198:	f7ff bf78 	b.w	800308c <deal_cmd__>

0800319c <adc_srv>:
 800319c:	f240 0130 	movw	r1, #48	; 0x30
 80031a0:	f2c2 0100 	movt	r1, #8192	; 0x2000
 80031a4:	f7ff bf72 	b.w	800308c <deal_cmd__>

080031a8 <motor_srv>:
 80031a8:	f240 01f8 	movw	r1, #248	; 0xf8
 80031ac:	f2c2 0100 	movt	r1, #8192	; 0x2000
 80031b0:	f7ff bf6c 	b.w	800308c <deal_cmd__>

080031b4 <calib_srv>:
 80031b4:	f240 01a8 	movw	r1, #168	; 0xa8
 80031b8:	f2c2 0100 	movt	r1, #8192	; 0x2000
 80031bc:	f7ff bf66 	b.w	800308c <deal_cmd__>

080031c0 <cmd_dealer_init>:
 80031c0:	b538      	push	{r3, r4, r5, lr}
 80031c2:	f241 3498 	movw	r4, #5016	; 0x1398
 80031c6:	f2c2 0400 	movt	r4, #8192	; 0x2000
 80031ca:	f44f 7503 	mov.w	r5, #524	; 0x20c
 80031ce:	2100      	movs	r1, #0
 80031d0:	462a      	mov	r2, r5
 80031d2:	4620      	mov	r0, r4
 80031d4:	f002 ff9c 	bl	8006110 <rt_memset>
 80031d8:	2100      	movs	r1, #0
 80031da:	1960      	adds	r0, r4, r5
 80031dc:	462a      	mov	r2, r5
 80031de:	f002 ff97 	bl	8006110 <rt_memset>
 80031e2:	f642 63d9 	movw	r3, #11993	; 0x2ed9
 80031e6:	f243 00e9 	movw	r0, #12521	; 0x30e9
 80031ea:	f642 61ed 	movw	r1, #12013	; 0x2eed
 80031ee:	f6c0 0300 	movt	r3, #2048	; 0x800
 80031f2:	f6c0 0000 	movt	r0, #2048	; 0x800
 80031f6:	f6c0 0100 	movt	r1, #2048	; 0x800
 80031fa:	f8c4 041c 	str.w	r0, [r4, #1052]	; 0x41c
 80031fe:	f8c4 3418 	str.w	r3, [r4, #1048]	; 0x418
 8003202:	f8c4 1420 	str.w	r1, [r4, #1056]	; 0x420
 8003206:	2000      	movs	r0, #0
 8003208:	bd38      	pop	{r3, r4, r5, pc}
 800320a:	bf00      	nop

0800320c <cmd_thread_entry>:
 800320c:	b538      	push	{r3, r4, r5, lr}
 800320e:	f7ff ffd7 	bl	80031c0 <cmd_dealer_init>
 8003212:	f000 f859 	bl	80032c8 <hardware_init>
 8003216:	4c0a      	ldr	r4, [pc, #40]	; (8003240 <cmd_thread_entry+0x34>)
 8003218:	4625      	mov	r5, r4
 800321a:	f8d4 3418 	ldr.w	r3, [r4, #1048]	; 0x418
 800321e:	4798      	blx	r3
 8003220:	b948      	cbnz	r0, 8003236 <cmd_thread_entry+0x2a>
 8003222:	f004 f995 	bl	8007550 <rt_thread_yield>
 8003226:	201e      	movs	r0, #30
 8003228:	f004 fa28 	bl	800767c <rt_thread_delay>
 800322c:	f8d4 3418 	ldr.w	r3, [r4, #1048]	; 0x418
 8003230:	4798      	blx	r3
 8003232:	2800      	cmp	r0, #0
 8003234:	d0f5      	beq.n	8003222 <cmd_thread_entry+0x16>
 8003236:	f8d5 041c 	ldr.w	r0, [r5, #1052]	; 0x41c
 800323a:	4780      	blx	r0
 800323c:	e7ed      	b.n	800321a <cmd_thread_entry+0xe>
 800323e:	bf00      	nop
 8003240:	20001398 	.word	0x20001398

08003244 <TIM3_IRQHandler>:
 8003244:	f44f 6280 	mov.w	r2, #1024	; 0x400
 8003248:	f2c4 0200 	movt	r2, #16384	; 0x4000
 800324c:	b508      	push	{r3, lr}
 800324e:	8a13      	ldrh	r3, [r2, #16]
 8003250:	4610      	mov	r0, r2
 8003252:	f023 0101 	bic.w	r1, r3, #1
 8003256:	040b      	lsls	r3, r1, #16
 8003258:	0c19      	lsrs	r1, r3, #16
 800325a:	8211      	strh	r1, [r2, #16]
 800325c:	2101      	movs	r1, #1
 800325e:	f7fe f8c5 	bl	80013ec <TIM_ClearFlag>
 8003262:	4809      	ldr	r0, [pc, #36]	; (8003288 <TIM3_IRQHandler+0x44>)
 8003264:	6a42      	ldr	r2, [r0, #36]	; 0x24
 8003266:	2a01      	cmp	r2, #1
 8003268:	d008      	beq.n	800327c <TIM3_IRQHandler+0x38>
 800326a:	6a43      	ldr	r3, [r0, #36]	; 0x24
 800326c:	2b02      	cmp	r3, #2
 800326e:	d000      	beq.n	8003272 <TIM3_IRQHandler+0x2e>
 8003270:	bd08      	pop	{r3, pc}
 8003272:	4906      	ldr	r1, [pc, #24]	; (800328c <TIM3_IRQHandler+0x48>)
 8003274:	6c08      	ldr	r0, [r1, #64]	; 0x40
 8003276:	1e42      	subs	r2, r0, #1
 8003278:	640a      	str	r2, [r1, #64]	; 0x40
 800327a:	bd08      	pop	{r3, pc}
 800327c:	4b03      	ldr	r3, [pc, #12]	; (800328c <TIM3_IRQHandler+0x48>)
 800327e:	6c19      	ldr	r1, [r3, #64]	; 0x40
 8003280:	1c48      	adds	r0, r1, #1
 8003282:	6418      	str	r0, [r3, #64]	; 0x40
 8003284:	bd08      	pop	{r3, pc}
 8003286:	bf00      	nop
 8003288:	20000120 	.word	0x20000120
 800328c:	20000e54 	.word	0x20000e54

08003290 <tim3_init>:
 8003290:	4770      	bx	lr
 8003292:	bf00      	nop

08003294 <RCC_Configuration_motor>:
 8003294:	201d      	movs	r0, #29
 8003296:	2101      	movs	r1, #1
 8003298:	f7fd bcac 	b.w	8000bf4 <RCC_APB2PeriphClockCmd>

0800329c <NVIC_Configuration_motor>:
 800329c:	b500      	push	{lr}
 800329e:	f44f 60e0 	mov.w	r0, #1792	; 0x700
 80032a2:	b083      	sub	sp, #12
 80032a4:	f7ff fa5e 	bl	8002764 <NVIC_PriorityGroupConfig>
 80032a8:	2300      	movs	r3, #0
 80032aa:	221d      	movs	r2, #29
 80032ac:	2101      	movs	r1, #1
 80032ae:	a801      	add	r0, sp, #4
 80032b0:	f88d 2004 	strb.w	r2, [sp, #4]
 80032b4:	f88d 3005 	strb.w	r3, [sp, #5]
 80032b8:	f88d 3006 	strb.w	r3, [sp, #6]
 80032bc:	f88d 1007 	strb.w	r1, [sp, #7]
 80032c0:	f7ff fa72 	bl	80027a8 <NVIC_Init>
 80032c4:	b003      	add	sp, #12
 80032c6:	bd00      	pop	{pc}

080032c8 <hardware_init>:
 80032c8:	b508      	push	{r3, lr}
 80032ca:	f7ff ffe3 	bl	8003294 <RCC_Configuration_motor>
 80032ce:	f7ff ffe5 	bl	800329c <NVIC_Configuration_motor>
 80032d2:	f7ff ffdd 	bl	8003290 <tim3_init>
 80032d6:	f7ff fd67 	bl	8002da8 <adc_config>
 80032da:	f000 fa47 	bl	800376c <vout_init>
 80032de:	f001 f807 	bl	80042f0 <usb_init>
 80032e2:	f648 2074 	movw	r0, #35444	; 0x8a74
 80032e6:	f6c0 0000 	movt	r0, #2048	; 0x800
 80032ea:	f003 fa8b 	bl	8006804 <rt_kprintf>
 80032ee:	2000      	movs	r0, #0
 80032f0:	bd08      	pop	{r3, pc}
 80032f2:	bf00      	nop

080032f4 <motor_set_auto>:
 80032f4:	b508      	push	{r3, lr}
 80032f6:	7803      	ldrb	r3, [r0, #0]
 80032f8:	2b4e      	cmp	r3, #78	; 0x4e
 80032fa:	d007      	beq.n	800330c <motor_set_auto+0x18>
 80032fc:	2b59      	cmp	r3, #89	; 0x59
 80032fe:	d00a      	beq.n	8003316 <motor_set_auto+0x22>
 8003300:	4807      	ldr	r0, [pc, #28]	; (8003320 <motor_set_auto+0x2c>)
 8003302:	f001 fdbd 	bl	8004e80 <print2usb>
 8003306:	f04f 30ff 	mov.w	r0, #4294967295
 800330a:	bd08      	pop	{r3, pc}
 800330c:	4805      	ldr	r0, [pc, #20]	; (8003324 <motor_set_auto+0x30>)
 800330e:	2200      	movs	r2, #0
 8003310:	6282      	str	r2, [r0, #40]	; 0x28
 8003312:	2001      	movs	r0, #1
 8003314:	bd08      	pop	{r3, pc}
 8003316:	4903      	ldr	r1, [pc, #12]	; (8003324 <motor_set_auto+0x30>)
 8003318:	2001      	movs	r0, #1
 800331a:	6288      	str	r0, [r1, #40]	; 0x28
 800331c:	bd08      	pop	{r3, pc}
 800331e:	bf00      	nop
 8003320:	08008a90 	.word	0x08008a90
 8003324:	20000120 	.word	0x20000120

08003328 <motor_setup>:
 8003328:	b508      	push	{r3, lr}
 800332a:	f005 f8ab 	bl	8008484 <atoi>
 800332e:	f240 1320 	movw	r3, #288	; 0x120
 8003332:	f2c2 0300 	movt	r3, #8192	; 0x2000
 8003336:	8598      	strh	r0, [r3, #44]	; 0x2c
 8003338:	2001      	movs	r0, #1
 800333a:	bd08      	pop	{r3, pc}

0800333c <middle_Y_led>:
 800333c:	2001      	movs	r0, #1
 800333e:	f7fd b8bd 	b.w	80004bc <rt_hw_led_off>
 8003342:	bf00      	nop

08003344 <middle_N_led>:
 8003344:	2001      	movs	r0, #1
 8003346:	f7fd b8a5 	b.w	8000494 <rt_hw_led_on>
 800334a:	bf00      	nop

0800334c <middle_status_update>:
 800334c:	b538      	push	{r3, r4, r5, lr}
 800334e:	4c0b      	ldr	r4, [pc, #44]	; (800337c <middle_status_update+0x30>)
 8003350:	8aa1      	ldrh	r1, [r4, #20]
 8003352:	6920      	ldr	r0, [r4, #16]
 8003354:	f7fe faf8 	bl	8001948 <GPIO_ReadInputDataBit>
 8003358:	8ba1      	ldrh	r1, [r4, #28]
 800335a:	4605      	mov	r5, r0
 800335c:	69a0      	ldr	r0, [r4, #24]
 800335e:	f7fe faf3 	bl	8001948 <GPIO_ReadInputDataBit>
 8003362:	2d01      	cmp	r5, #1
 8003364:	d001      	beq.n	800336a <middle_status_update+0x1e>
 8003366:	2801      	cmp	r0, #1
 8003368:	d103      	bne.n	8003372 <middle_status_update+0x26>
 800336a:	f7ff ffeb 	bl	8003344 <middle_N_led>
 800336e:	2000      	movs	r0, #0
 8003370:	bd38      	pop	{r3, r4, r5, pc}
 8003372:	f7ff ffe3 	bl	800333c <middle_Y_led>
 8003376:	2001      	movs	r0, #1
 8003378:	bd38      	pop	{r3, r4, r5, pc}
 800337a:	bf00      	nop
 800337c:	20000120 	.word	0x20000120

08003380 <EXTI15_10_IRQHandler>:
 8003380:	b508      	push	{r3, lr}
 8003382:	f44f 6380 	mov.w	r3, #1024	; 0x400
 8003386:	f2c4 0301 	movt	r3, #16385	; 0x4001
 800338a:	695a      	ldr	r2, [r3, #20]
 800338c:	0412      	lsls	r2, r2, #16
 800338e:	d400      	bmi.n	8003392 <EXTI15_10_IRQHandler+0x12>
 8003390:	bd08      	pop	{r3, pc}
 8003392:	f44f 4000 	mov.w	r0, #32768	; 0x8000
 8003396:	6158      	str	r0, [r3, #20]
 8003398:	4b05      	ldr	r3, [pc, #20]	; (80033b0 <EXTI15_10_IRQHandler+0x30>)
 800339a:	2101      	movs	r1, #1
 800339c:	6019      	str	r1, [r3, #0]
 800339e:	f7ff ffd5 	bl	800334c <middle_status_update>
 80033a2:	2801      	cmp	r0, #1
 80033a4:	d1f4      	bne.n	8003390 <EXTI15_10_IRQHandler+0x10>
 80033a6:	4a03      	ldr	r2, [pc, #12]	; (80033b4 <EXTI15_10_IRQHandler+0x34>)
 80033a8:	f8d2 0094 	ldr.w	r0, [r2, #148]	; 0x94
 80033ac:	4780      	blx	r0
 80033ae:	e7ef      	b.n	8003390 <EXTI15_10_IRQHandler+0x10>
 80033b0:	2000098c 	.word	0x2000098c
 80033b4:	20000e54 	.word	0x20000e54

080033b8 <EXTI4_IRQHandler>:
 80033b8:	b508      	push	{r3, lr}
 80033ba:	f44f 6380 	mov.w	r3, #1024	; 0x400
 80033be:	f2c4 0301 	movt	r3, #16385	; 0x4001
 80033c2:	695a      	ldr	r2, [r3, #20]
 80033c4:	06d1      	lsls	r1, r2, #27
 80033c6:	d400      	bmi.n	80033ca <EXTI4_IRQHandler+0x12>
 80033c8:	bd08      	pop	{r3, pc}
 80033ca:	2010      	movs	r0, #16
 80033cc:	6158      	str	r0, [r3, #20]
 80033ce:	4b06      	ldr	r3, [pc, #24]	; (80033e8 <EXTI4_IRQHandler+0x30>)
 80033d0:	2101      	movs	r1, #1
 80033d2:	6019      	str	r1, [r3, #0]
 80033d4:	f7ff ffba 	bl	800334c <middle_status_update>
 80033d8:	2801      	cmp	r0, #1
 80033da:	d1f5      	bne.n	80033c8 <EXTI4_IRQHandler+0x10>
 80033dc:	4a03      	ldr	r2, [pc, #12]	; (80033ec <EXTI4_IRQHandler+0x34>)
 80033de:	f8d2 0094 	ldr.w	r0, [r2, #148]	; 0x94
 80033e2:	4780      	blx	r0
 80033e4:	e7f0      	b.n	80033c8 <EXTI4_IRQHandler+0x10>
 80033e6:	bf00      	nop
 80033e8:	20000990 	.word	0x20000990
 80033ec:	20000e54 	.word	0x20000e54

080033f0 <pwm_accl>:
 80033f0:	4b09      	ldr	r3, [pc, #36]	; (8003418 <pwm_accl+0x28>)
 80033f2:	f246 6267 	movw	r2, #26215	; 0x6667
 80033f6:	8dd9      	ldrh	r1, [r3, #46]	; 0x2e
 80033f8:	f2c6 6266 	movt	r2, #26214	; 0x6666
 80033fc:	00c8      	lsls	r0, r1, #3
 80033fe:	fb82 0100 	smull	r0, r1, r2, r0
 8003402:	8d9a      	ldrh	r2, [r3, #44]	; 0x2c
 8003404:	0889      	lsrs	r1, r1, #2
 8003406:	4291      	cmp	r1, r2
 8003408:	6a18      	ldr	r0, [r3, #32]
 800340a:	85d9      	strh	r1, [r3, #46]	; 0x2e
 800340c:	bf3c      	itt	cc
 800340e:	4611      	movcc	r1, r2
 8003410:	85da      	strhcc	r2, [r3, #46]	; 0x2e
 8003412:	f7fd bf7b 	b.w	800130c <TIM_SetAutoreload>
 8003416:	bf00      	nop
 8003418:	20000120 	.word	0x20000120

0800341c <pwm_dccl>:
 800341c:	4b07      	ldr	r3, [pc, #28]	; (800343c <pwm_dccl+0x20>)
 800341e:	8dd9      	ldrh	r1, [r3, #46]	; 0x2e
 8003420:	eb01 0081 	add.w	r0, r1, r1, lsl #2
 8003424:	f3c0 018f 	ubfx	r1, r0, #2, #16
 8003428:	f5b1 7f7a 	cmp.w	r1, #1000	; 0x3e8
 800342c:	6a18      	ldr	r0, [r3, #32]
 800342e:	bf88      	it	hi
 8003430:	f44f 717a 	movhi.w	r1, #1000	; 0x3e8
 8003434:	85d9      	strh	r1, [r3, #46]	; 0x2e
 8003436:	f7fd bf69 	b.w	800130c <TIM_SetAutoreload>
 800343a:	bf00      	nop
 800343c:	20000120 	.word	0x20000120

08003440 <motor_accl>:
 8003440:	b508      	push	{r3, lr}
 8003442:	7803      	ldrb	r3, [r0, #0]
 8003444:	2b78      	cmp	r3, #120	; 0x78
 8003446:	d001      	beq.n	800344c <motor_accl+0xc>
 8003448:	2001      	movs	r0, #1
 800344a:	bd08      	pop	{r3, pc}
 800344c:	7840      	ldrb	r0, [r0, #1]
 800344e:	282b      	cmp	r0, #43	; 0x2b
 8003450:	d007      	beq.n	8003462 <motor_accl+0x22>
 8003452:	282d      	cmp	r0, #45	; 0x2d
 8003454:	d1f8      	bne.n	8003448 <motor_accl+0x8>
 8003456:	f7ff ffe1 	bl	800341c <pwm_dccl>
 800345a:	4805      	ldr	r0, [pc, #20]	; (8003470 <motor_accl+0x30>)
 800345c:	f001 fd10 	bl	8004e80 <print2usb>
 8003460:	e7f2      	b.n	8003448 <motor_accl+0x8>
 8003462:	f7ff ffc5 	bl	80033f0 <pwm_accl>
 8003466:	4803      	ldr	r0, [pc, #12]	; (8003474 <motor_accl+0x34>)
 8003468:	f001 fd0a 	bl	8004e80 <print2usb>
 800346c:	e7ec      	b.n	8003448 <motor_accl+0x8>
 800346e:	bf00      	nop
 8003470:	08008acc 	.word	0x08008acc
 8003474:	08008ab4 	.word	0x08008ab4

08003478 <pwm_stop>:
 8003478:	b510      	push	{r4, lr}
 800347a:	f240 1420 	movw	r4, #288	; 0x120
 800347e:	f2c2 0400 	movt	r4, #8192	; 0x2000
 8003482:	b082      	sub	sp, #8
 8003484:	6a20      	ldr	r0, [r4, #32]
 8003486:	2100      	movs	r1, #0
 8003488:	f7fd fe4c 	bl	8001124 <TIM_Cmd>
 800348c:	88a3      	ldrh	r3, [r4, #4]
 800348e:	f44f 727a 	mov.w	r2, #1000	; 0x3e8
 8003492:	85e2      	strh	r2, [r4, #46]	; 0x2e
 8003494:	2200      	movs	r2, #0
 8003496:	6820      	ldr	r0, [r4, #0]
 8003498:	a901      	add	r1, sp, #4
 800349a:	6262      	str	r2, [r4, #36]	; 0x24
 800349c:	f8ad 3004 	strh.w	r3, [sp, #4]
 80034a0:	2203      	movs	r2, #3
 80034a2:	2310      	movs	r3, #16
 80034a4:	f88d 3007 	strb.w	r3, [sp, #7]
 80034a8:	f88d 2006 	strb.w	r2, [sp, #6]
 80034ac:	f7fe f8b0 	bl	8001610 <GPIO_Init>
 80034b0:	6820      	ldr	r0, [r4, #0]
 80034b2:	88a1      	ldrh	r1, [r4, #4]
 80034b4:	f7fe faea 	bl	8001a8c <GPIO_ResetBits>
 80034b8:	b002      	add	sp, #8
 80034ba:	bd10      	pop	{r4, pc}

080034bc <motor_stop>:
 80034bc:	b508      	push	{r3, lr}
 80034be:	f7ff ffdb 	bl	8003478 <pwm_stop>
 80034c2:	f648 20e4 	movw	r0, #35556	; 0x8ae4
 80034c6:	f6c0 0000 	movt	r0, #2048	; 0x800
 80034ca:	f001 fcd9 	bl	8004e80 <print2usb>
 80034ce:	2001      	movs	r0, #1
 80034d0:	bd08      	pop	{r3, pc}
 80034d2:	bf00      	nop

080034d4 <pollar_service>:
 80034d4:	b508      	push	{r3, lr}
 80034d6:	4b19      	ldr	r3, [pc, #100]	; (800353c <pollar_service+0x68>)
 80034d8:	681a      	ldr	r2, [r3, #0]
 80034da:	2a01      	cmp	r2, #1
 80034dc:	d019      	beq.n	8003512 <pollar_service+0x3e>
 80034de:	4918      	ldr	r1, [pc, #96]	; (8003540 <pollar_service+0x6c>)
 80034e0:	680b      	ldr	r3, [r1, #0]
 80034e2:	2b01      	cmp	r3, #1
 80034e4:	d000      	beq.n	80034e8 <pollar_service+0x14>
 80034e6:	bd08      	pop	{r3, pc}
 80034e8:	2200      	movs	r2, #0
 80034ea:	600a      	str	r2, [r1, #0]
 80034ec:	f7ff ff2e 	bl	800334c <middle_status_update>
 80034f0:	b9d0      	cbnz	r0, 8003528 <pollar_service+0x54>
 80034f2:	4814      	ldr	r0, [pc, #80]	; (8003544 <pollar_service+0x70>)
 80034f4:	f001 fcc4 	bl	8004e80 <print2usb>
 80034f8:	f7ff ffbe 	bl	8003478 <pwm_stop>
 80034fc:	4812      	ldr	r0, [pc, #72]	; (8003548 <pollar_service+0x74>)
 80034fe:	6a81      	ldr	r1, [r0, #40]	; 0x28
 8003500:	2901      	cmp	r1, #1
 8003502:	d1f0      	bne.n	80034e6 <pollar_service+0x12>
 8003504:	4b11      	ldr	r3, [pc, #68]	; (800354c <pollar_service+0x78>)
 8003506:	2102      	movs	r1, #2
 8003508:	f8d3 2420 	ldr.w	r2, [r3, #1056]	; 0x420
 800350c:	4810      	ldr	r0, [pc, #64]	; (8003550 <pollar_service+0x7c>)
 800350e:	4790      	blx	r2
 8003510:	bd08      	pop	{r3, pc}
 8003512:	2000      	movs	r0, #0
 8003514:	6018      	str	r0, [r3, #0]
 8003516:	f7ff ff19 	bl	800334c <middle_status_update>
 800351a:	b950      	cbnz	r0, 8003532 <pollar_service+0x5e>
 800351c:	480d      	ldr	r0, [pc, #52]	; (8003554 <pollar_service+0x80>)
 800351e:	f001 fcaf 	bl	8004e80 <print2usb>
 8003522:	f7ff ffa9 	bl	8003478 <pwm_stop>
 8003526:	e7da      	b.n	80034de <pollar_service+0xa>
 8003528:	480b      	ldr	r0, [pc, #44]	; (8003558 <pollar_service+0x84>)
 800352a:	e8bd 4008 	ldmia.w	sp!, {r3, lr}
 800352e:	f001 bca7 	b.w	8004e80 <print2usb>
 8003532:	480a      	ldr	r0, [pc, #40]	; (800355c <pollar_service+0x88>)
 8003534:	f001 fca4 	bl	8004e80 <print2usb>
 8003538:	e7d1      	b.n	80034de <pollar_service+0xa>
 800353a:	bf00      	nop
 800353c:	20000990 	.word	0x20000990
 8003540:	2000098c 	.word	0x2000098c
 8003544:	08008af8 	.word	0x08008af8
 8003548:	20000120 	.word	0x20000120
 800354c:	20001398 	.word	0x20001398
 8003550:	08008b10 	.word	0x08008b10
 8003554:	08008594 	.word	0x08008594
 8003558:	08008b20 	.word	0x08008b20
 800355c:	080085a8 	.word	0x080085a8

08003560 <event_thread_entry>:
 8003560:	b510      	push	{r4, lr}
 8003562:	f7ff fef3 	bl	800334c <middle_status_update>
 8003566:	4c04      	ldr	r4, [pc, #16]	; (8003578 <event_thread_entry+0x18>)
 8003568:	f7ff ffb4 	bl	80034d4 <pollar_service>
 800356c:	f8d4 30b0 	ldr.w	r3, [r4, #176]	; 0xb0
 8003570:	4798      	blx	r3
 8003572:	f003 ffed 	bl	8007550 <rt_thread_yield>
 8003576:	e7f7      	b.n	8003568 <event_thread_entry+0x8>
 8003578:	20000e54 	.word	0x20000e54

0800357c <pwm_run>:
 800357c:	b510      	push	{r4, lr}
 800357e:	f240 1420 	movw	r4, #288	; 0x120
 8003582:	f2c2 0400 	movt	r4, #8192	; 0x2000
 8003586:	88a3      	ldrh	r3, [r4, #4]
 8003588:	b082      	sub	sp, #8
 800358a:	6820      	ldr	r0, [r4, #0]
 800358c:	a901      	add	r1, sp, #4
 800358e:	f8ad 3004 	strh.w	r3, [sp, #4]
 8003592:	2218      	movs	r2, #24
 8003594:	2303      	movs	r3, #3
 8003596:	f88d 2007 	strb.w	r2, [sp, #7]
 800359a:	f88d 3006 	strb.w	r3, [sp, #6]
 800359e:	f7fe f837 	bl	8001610 <GPIO_Init>
 80035a2:	6a20      	ldr	r0, [r4, #32]
 80035a4:	2101      	movs	r1, #1
 80035a6:	f7fd fdbd 	bl	8001124 <TIM_Cmd>
 80035aa:	b002      	add	sp, #8
 80035ac:	bd10      	pop	{r4, pc}
 80035ae:	bf00      	nop

080035b0 <pwm_set_forward>:
 80035b0:	f240 1320 	movw	r3, #288	; 0x120
 80035b4:	f2c2 0300 	movt	r3, #8192	; 0x2000
 80035b8:	6898      	ldr	r0, [r3, #8]
 80035ba:	8999      	ldrh	r1, [r3, #12]
 80035bc:	2201      	movs	r2, #1
 80035be:	625a      	str	r2, [r3, #36]	; 0x24
 80035c0:	f7fe ba28 	b.w	8001a14 <GPIO_SetBits>

080035c4 <pwm_set_backward>:
 80035c4:	f240 1320 	movw	r3, #288	; 0x120
 80035c8:	f2c2 0300 	movt	r3, #8192	; 0x2000
 80035cc:	6898      	ldr	r0, [r3, #8]
 80035ce:	8999      	ldrh	r1, [r3, #12]
 80035d0:	2202      	movs	r2, #2
 80035d2:	625a      	str	r2, [r3, #36]	; 0x24
 80035d4:	f7fe ba5a 	b.w	8001a8c <GPIO_ResetBits>

080035d8 <motor_run>:
 80035d8:	b510      	push	{r4, lr}
 80035da:	4604      	mov	r4, r0
 80035dc:	f7ff ff4c 	bl	8003478 <pwm_stop>
 80035e0:	f44f 7096 	mov.w	r0, #300	; 0x12c
 80035e4:	f004 f84a 	bl	800767c <rt_thread_delay>
 80035e8:	2c01      	cmp	r4, #1
 80035ea:	d007      	beq.n	80035fc <motor_run+0x24>
 80035ec:	2c02      	cmp	r4, #2
 80035ee:	d019      	beq.n	8003624 <motor_run+0x4c>
 80035f0:	480e      	ldr	r0, [pc, #56]	; (800362c <motor_run+0x54>)
 80035f2:	f001 fc45 	bl	8004e80 <print2usb>
 80035f6:	f04f 30ff 	mov.w	r0, #4294967295
 80035fa:	bd10      	pop	{r4, pc}
 80035fc:	f7ff ffd8 	bl	80035b0 <pwm_set_forward>
 8003600:	4c0b      	ldr	r4, [pc, #44]	; (8003630 <motor_run+0x58>)
 8003602:	f7ff ffbb 	bl	800357c <pwm_run>
 8003606:	8de2      	ldrh	r2, [r4, #46]	; 0x2e
 8003608:	8da3      	ldrh	r3, [r4, #44]	; 0x2c
 800360a:	429a      	cmp	r2, r3
 800360c:	d908      	bls.n	8003620 <motor_run+0x48>
 800360e:	201e      	movs	r0, #30
 8003610:	f004 f834 	bl	800767c <rt_thread_delay>
 8003614:	f7ff feec 	bl	80033f0 <pwm_accl>
 8003618:	8de0      	ldrh	r0, [r4, #46]	; 0x2e
 800361a:	8da1      	ldrh	r1, [r4, #44]	; 0x2c
 800361c:	4288      	cmp	r0, r1
 800361e:	d8f6      	bhi.n	800360e <motor_run+0x36>
 8003620:	2001      	movs	r0, #1
 8003622:	bd10      	pop	{r4, pc}
 8003624:	f7ff ffce 	bl	80035c4 <pwm_set_backward>
 8003628:	e7ea      	b.n	8003600 <motor_run+0x28>
 800362a:	bf00      	nop
 800362c:	08008b38 	.word	0x08008b38
 8003630:	20000120 	.word	0x20000120

08003634 <motor_move>:
 8003634:	b508      	push	{r3, lr}
 8003636:	7803      	ldrb	r3, [r0, #0]
 8003638:	2b78      	cmp	r3, #120	; 0x78
 800363a:	d005      	beq.n	8003648 <motor_move+0x14>
 800363c:	4818      	ldr	r0, [pc, #96]	; (80036a0 <motor_move+0x6c>)
 800363e:	f001 fc1f 	bl	8004e80 <print2usb>
 8003642:	f04f 30ff 	mov.w	r0, #4294967295
 8003646:	bd08      	pop	{r3, pc}
 8003648:	7840      	ldrb	r0, [r0, #1]
 800364a:	282b      	cmp	r0, #43	; 0x2b
 800364c:	d00d      	beq.n	800366a <motor_move+0x36>
 800364e:	282d      	cmp	r0, #45	; 0x2d
 8003650:	d014      	beq.n	800367c <motor_move+0x48>
 8003652:	283e      	cmp	r0, #62	; 0x3e
 8003654:	d01b      	beq.n	800368e <motor_move+0x5a>
 8003656:	283c      	cmp	r0, #60	; 0x3c
 8003658:	d1f0      	bne.n	800363c <motor_move+0x8>
 800365a:	4812      	ldr	r0, [pc, #72]	; (80036a4 <motor_move+0x70>)
 800365c:	f001 fc10 	bl	8004e80 <print2usb>
 8003660:	2002      	movs	r0, #2
 8003662:	f7ff ffb9 	bl	80035d8 <motor_run>
 8003666:	2001      	movs	r0, #1
 8003668:	bd08      	pop	{r3, pc}
 800366a:	480f      	ldr	r0, [pc, #60]	; (80036a8 <motor_move+0x74>)
 800366c:	f001 fc08 	bl	8004e80 <print2usb>
 8003670:	f7ff ff9e 	bl	80035b0 <pwm_set_forward>
 8003674:	f7ff ff82 	bl	800357c <pwm_run>
 8003678:	2001      	movs	r0, #1
 800367a:	bd08      	pop	{r3, pc}
 800367c:	480b      	ldr	r0, [pc, #44]	; (80036ac <motor_move+0x78>)
 800367e:	f001 fbff 	bl	8004e80 <print2usb>
 8003682:	f7ff ff9f 	bl	80035c4 <pwm_set_backward>
 8003686:	f7ff ff79 	bl	800357c <pwm_run>
 800368a:	2001      	movs	r0, #1
 800368c:	bd08      	pop	{r3, pc}
 800368e:	4808      	ldr	r0, [pc, #32]	; (80036b0 <motor_move+0x7c>)
 8003690:	f001 fbf6 	bl	8004e80 <print2usb>
 8003694:	2001      	movs	r0, #1
 8003696:	f7ff ff9f 	bl	80035d8 <motor_run>
 800369a:	2001      	movs	r0, #1
 800369c:	bd08      	pop	{r3, pc}
 800369e:	bf00      	nop
 80036a0:	08008bc8 	.word	0x08008bc8
 80036a4:	08008bac 	.word	0x08008bac
 80036a8:	08008b58 	.word	0x08008b58
 80036ac:	08008b74 	.word	0x08008b74
 80036b0:	08008b90 	.word	0x08008b90

080036b4 <vout_set>:
 80036b4:	b510      	push	{r4, lr}
 80036b6:	4604      	mov	r4, r0
 80036b8:	f648 4004 	movw	r0, #35844	; 0x8c04
 80036bc:	f6c0 0000 	movt	r0, #2048	; 0x800
 80036c0:	f003 f8a0 	bl	8006804 <rt_kprintf>
 80036c4:	4620      	mov	r0, r4
 80036c6:	f004 fedd 	bl	8008484 <atoi>
 80036ca:	f240 1350 	movw	r3, #336	; 0x150
 80036ce:	f2c2 0300 	movt	r3, #8192	; 0x2000
 80036d2:	6018      	str	r0, [r3, #0]
 80036d4:	2001      	movs	r0, #1
 80036d6:	bd10      	pop	{r4, pc}

080036d8 <RCC_vout_init>:
 80036d8:	200c      	movs	r0, #12
 80036da:	2101      	movs	r1, #1
 80036dc:	b508      	push	{r3, lr}
 80036de:	f7fd fa89 	bl	8000bf4 <RCC_APB2PeriphClockCmd>
 80036e2:	2001      	movs	r0, #1
 80036e4:	4601      	mov	r1, r0
 80036e6:	e8bd 4008 	ldmia.w	sp!, {r3, lr}
 80036ea:	f7fd ba83 	b.w	8000bf4 <RCC_APB2PeriphClockCmd>
 80036ee:	bf00      	nop

080036f0 <GPIO_vout_init>:
 80036f0:	b570      	push	{r4, r5, r6, lr}
 80036f2:	f44f 6080 	mov.w	r0, #1024	; 0x400
 80036f6:	f44f 6640 	mov.w	r6, #3072	; 0xc00
 80036fa:	b082      	sub	sp, #8
 80036fc:	f2c0 0030 	movt	r0, #48	; 0x30
 8003700:	2101      	movs	r1, #1
 8003702:	f2c4 0601 	movt	r6, #16385	; 0x4001
 8003706:	f7fe f9fd 	bl	8001b04 <GPIO_PinRemapConfig>
 800370a:	2510      	movs	r5, #16
 800370c:	f44f 7300 	mov.w	r3, #512	; 0x200
 8003710:	2402      	movs	r4, #2
 8003712:	4630      	mov	r0, r6
 8003714:	a901      	add	r1, sp, #4
 8003716:	f8ad 3004 	strh.w	r3, [sp, #4]
 800371a:	f88d 5007 	strb.w	r5, [sp, #7]
 800371e:	f88d 4006 	strb.w	r4, [sp, #6]
 8003722:	f7fd ff75 	bl	8001610 <GPIO_Init>
 8003726:	f44f 7280 	mov.w	r2, #256	; 0x100
 800372a:	4630      	mov	r0, r6
 800372c:	a901      	add	r1, sp, #4
 800372e:	f8ad 2004 	strh.w	r2, [sp, #4]
 8003732:	f88d 5007 	strb.w	r5, [sp, #7]
 8003736:	f88d 4006 	strb.w	r4, [sp, #6]
 800373a:	f7fd ff69 	bl	8001610 <GPIO_Init>
 800373e:	f44f 6000 	mov.w	r0, #2048	; 0x800
 8003742:	f2c4 0001 	movt	r0, #16385	; 0x4001
 8003746:	a901      	add	r1, sp, #4
 8003748:	f44f 4300 	mov.w	r3, #32768	; 0x8000
 800374c:	f8ad 3004 	strh.w	r3, [sp, #4]
 8003750:	f88d 5007 	strb.w	r5, [sp, #7]
 8003754:	f88d 4006 	strb.w	r4, [sp, #6]
 8003758:	f7fd ff5a 	bl	8001610 <GPIO_Init>
 800375c:	f641 4034 	movw	r0, #7220	; 0x1c34
 8003760:	f2c2 0000 	movt	r0, #8192	; 0x2000
 8003764:	2180      	movs	r1, #128	; 0x80
 8003766:	6001      	str	r1, [r0, #0]
 8003768:	b002      	add	sp, #8
 800376a:	bd70      	pop	{r4, r5, r6, pc}

0800376c <vout_init>:
 800376c:	b508      	push	{r3, lr}
 800376e:	f7ff ffb3 	bl	80036d8 <RCC_vout_init>
 8003772:	e8bd 4008 	ldmia.w	sp!, {r3, lr}
 8003776:	f7ff bfbb 	b.w	80036f0 <GPIO_vout_init>
 800377a:	bf00      	nop

0800377c <delay>:
 800377c:	4770      	bx	lr
 800377e:	bf00      	nop

08003780 <write_reg>:
 8003780:	b510      	push	{r4, lr}
 8003782:	4604      	mov	r4, r0
 8003784:	48e5      	ldr	r0, [pc, #916]	; (8003b1c <write_reg+0x39c>)
 8003786:	f003 f83d 	bl	8006804 <rt_kprintf>
 800378a:	f44f 6000 	mov.w	r0, #2048	; 0x800
 800378e:	f2c4 0001 	movt	r0, #16385	; 0x4001
 8003792:	f44f 4100 	mov.w	r1, #32768	; 0x8000
 8003796:	f7fe f979 	bl	8001a8c <GPIO_ResetBits>
 800379a:	f44f 6040 	mov.w	r0, #3072	; 0xc00
 800379e:	f2c4 0001 	movt	r0, #16385	; 0x4001
 80037a2:	f44f 7100 	mov.w	r1, #512	; 0x200
 80037a6:	f7fe f971 	bl	8001a8c <GPIO_ResetBits>
 80037aa:	f44f 6040 	mov.w	r0, #3072	; 0xc00
 80037ae:	f2c4 0001 	movt	r0, #16385	; 0x4001
 80037b2:	f44f 7180 	mov.w	r1, #256	; 0x100
 80037b6:	f7fe f969 	bl	8001a8c <GPIO_ResetBits>
 80037ba:	f44f 6040 	mov.w	r0, #3072	; 0xc00
 80037be:	f2c4 0001 	movt	r0, #16385	; 0x4001
 80037c2:	f44f 7100 	mov.w	r1, #512	; 0x200
 80037c6:	f7fe f925 	bl	8001a14 <GPIO_SetBits>
 80037ca:	f44f 6040 	mov.w	r0, #3072	; 0xc00
 80037ce:	f2c4 0001 	movt	r0, #16385	; 0x4001
 80037d2:	f44f 7100 	mov.w	r1, #512	; 0x200
 80037d6:	f7fe f959 	bl	8001a8c <GPIO_ResetBits>
 80037da:	f44f 6040 	mov.w	r0, #3072	; 0xc00
 80037de:	f2c4 0001 	movt	r0, #16385	; 0x4001
 80037e2:	f44f 7180 	mov.w	r1, #256	; 0x100
 80037e6:	f7fe f951 	bl	8001a8c <GPIO_ResetBits>
 80037ea:	f44f 6040 	mov.w	r0, #3072	; 0xc00
 80037ee:	f2c4 0001 	movt	r0, #16385	; 0x4001
 80037f2:	f44f 7100 	mov.w	r1, #512	; 0x200
 80037f6:	f7fe f90d 	bl	8001a14 <GPIO_SetBits>
 80037fa:	f44f 6040 	mov.w	r0, #3072	; 0xc00
 80037fe:	f2c4 0001 	movt	r0, #16385	; 0x4001
 8003802:	f44f 7100 	mov.w	r1, #512	; 0x200
 8003806:	f7fe f941 	bl	8001a8c <GPIO_ResetBits>
 800380a:	f44f 6040 	mov.w	r0, #3072	; 0xc00
 800380e:	f2c4 0001 	movt	r0, #16385	; 0x4001
 8003812:	f44f 7180 	mov.w	r1, #256	; 0x100
 8003816:	f7fe f939 	bl	8001a8c <GPIO_ResetBits>
 800381a:	f44f 6040 	mov.w	r0, #3072	; 0xc00
 800381e:	f2c4 0001 	movt	r0, #16385	; 0x4001
 8003822:	f44f 7100 	mov.w	r1, #512	; 0x200
 8003826:	f7fe f8f5 	bl	8001a14 <GPIO_SetBits>
 800382a:	f44f 6040 	mov.w	r0, #3072	; 0xc00
 800382e:	f2c4 0001 	movt	r0, #16385	; 0x4001
 8003832:	f44f 7100 	mov.w	r1, #512	; 0x200
 8003836:	f7fe f929 	bl	8001a8c <GPIO_ResetBits>
 800383a:	f44f 6040 	mov.w	r0, #3072	; 0xc00
 800383e:	f2c4 0001 	movt	r0, #16385	; 0x4001
 8003842:	f44f 7180 	mov.w	r1, #256	; 0x100
 8003846:	f7fe f8e5 	bl	8001a14 <GPIO_SetBits>
 800384a:	f44f 6040 	mov.w	r0, #3072	; 0xc00
 800384e:	f2c4 0001 	movt	r0, #16385	; 0x4001
 8003852:	f44f 7100 	mov.w	r1, #512	; 0x200
 8003856:	f7fe f8dd 	bl	8001a14 <GPIO_SetBits>
 800385a:	f44f 6040 	mov.w	r0, #3072	; 0xc00
 800385e:	f2c4 0001 	movt	r0, #16385	; 0x4001
 8003862:	f44f 7100 	mov.w	r1, #512	; 0x200
 8003866:	f7fe f911 	bl	8001a8c <GPIO_ResetBits>
 800386a:	f44f 6040 	mov.w	r0, #3072	; 0xc00
 800386e:	f2c4 0001 	movt	r0, #16385	; 0x4001
 8003872:	f44f 7180 	mov.w	r1, #256	; 0x100
 8003876:	f7fe f909 	bl	8001a8c <GPIO_ResetBits>
 800387a:	f44f 6040 	mov.w	r0, #3072	; 0xc00
 800387e:	f2c4 0001 	movt	r0, #16385	; 0x4001
 8003882:	f44f 7100 	mov.w	r1, #512	; 0x200
 8003886:	f7fe f8c5 	bl	8001a14 <GPIO_SetBits>
 800388a:	f44f 6040 	mov.w	r0, #3072	; 0xc00
 800388e:	f2c4 0001 	movt	r0, #16385	; 0x4001
 8003892:	f44f 7100 	mov.w	r1, #512	; 0x200
 8003896:	f7fe f8f9 	bl	8001a8c <GPIO_ResetBits>
 800389a:	f44f 6040 	mov.w	r0, #3072	; 0xc00
 800389e:	f2c4 0001 	movt	r0, #16385	; 0x4001
 80038a2:	f44f 7180 	mov.w	r1, #256	; 0x100
 80038a6:	f7fe f8f1 	bl	8001a8c <GPIO_ResetBits>
 80038aa:	f44f 6040 	mov.w	r0, #3072	; 0xc00
 80038ae:	f2c4 0001 	movt	r0, #16385	; 0x4001
 80038b2:	f44f 7100 	mov.w	r1, #512	; 0x200
 80038b6:	f7fe f8ad 	bl	8001a14 <GPIO_SetBits>
 80038ba:	f44f 6040 	mov.w	r0, #3072	; 0xc00
 80038be:	f2c4 0001 	movt	r0, #16385	; 0x4001
 80038c2:	f44f 7100 	mov.w	r1, #512	; 0x200
 80038c6:	f7fe f8e1 	bl	8001a8c <GPIO_ResetBits>
 80038ca:	f44f 6040 	mov.w	r0, #3072	; 0xc00
 80038ce:	f2c4 0001 	movt	r0, #16385	; 0x4001
 80038d2:	f44f 7180 	mov.w	r1, #256	; 0x100
 80038d6:	f7fe f8d9 	bl	8001a8c <GPIO_ResetBits>
 80038da:	f44f 6040 	mov.w	r0, #3072	; 0xc00
 80038de:	f2c4 0001 	movt	r0, #16385	; 0x4001
 80038e2:	f44f 7100 	mov.w	r1, #512	; 0x200
 80038e6:	f7fe f895 	bl	8001a14 <GPIO_SetBits>
 80038ea:	f44f 6040 	mov.w	r0, #3072	; 0xc00
 80038ee:	f2c4 0001 	movt	r0, #16385	; 0x4001
 80038f2:	f44f 7100 	mov.w	r1, #512	; 0x200
 80038f6:	f7fe f8c9 	bl	8001a8c <GPIO_ResetBits>
 80038fa:	f44f 6040 	mov.w	r0, #3072	; 0xc00
 80038fe:	f2c4 0001 	movt	r0, #16385	; 0x4001
 8003902:	f44f 7180 	mov.w	r1, #256	; 0x100
 8003906:	f7fe f885 	bl	8001a14 <GPIO_SetBits>
 800390a:	f44f 6040 	mov.w	r0, #3072	; 0xc00
 800390e:	f2c4 0001 	movt	r0, #16385	; 0x4001
 8003912:	f44f 7100 	mov.w	r1, #512	; 0x200
 8003916:	f7fe f87d 	bl	8001a14 <GPIO_SetBits>
 800391a:	f44f 6040 	mov.w	r0, #3072	; 0xc00
 800391e:	f2c4 0001 	movt	r0, #16385	; 0x4001
 8003922:	f44f 7100 	mov.w	r1, #512	; 0x200
 8003926:	f7fe f8b1 	bl	8001a8c <GPIO_ResetBits>
 800392a:	f44f 6040 	mov.w	r0, #3072	; 0xc00
 800392e:	0622      	lsls	r2, r4, #24
 8003930:	f2c4 0001 	movt	r0, #16385	; 0x4001
 8003934:	f44f 7180 	mov.w	r1, #256	; 0x100
 8003938:	f100 80d8 	bmi.w	8003aec <write_reg+0x36c>
 800393c:	f7fe f8a6 	bl	8001a8c <GPIO_ResetBits>
 8003940:	f44f 6040 	mov.w	r0, #3072	; 0xc00
 8003944:	f2c4 0001 	movt	r0, #16385	; 0x4001
 8003948:	f44f 7100 	mov.w	r1, #512	; 0x200
 800394c:	f7fe f862 	bl	8001a14 <GPIO_SetBits>
 8003950:	0061      	lsls	r1, r4, #1
 8003952:	f44f 6040 	mov.w	r0, #3072	; 0xc00
 8003956:	b2cc      	uxtb	r4, r1
 8003958:	f2c4 0001 	movt	r0, #16385	; 0x4001
 800395c:	f44f 7100 	mov.w	r1, #512	; 0x200
 8003960:	f7fe f894 	bl	8001a8c <GPIO_ResetBits>
 8003964:	f44f 6040 	mov.w	r0, #3072	; 0xc00
 8003968:	0623      	lsls	r3, r4, #24
 800396a:	f2c4 0001 	movt	r0, #16385	; 0x4001
 800396e:	f44f 7180 	mov.w	r1, #256	; 0x100
 8003972:	f100 80d0 	bmi.w	8003b16 <write_reg+0x396>
 8003976:	f7fe f889 	bl	8001a8c <GPIO_ResetBits>
 800397a:	f44f 6040 	mov.w	r0, #3072	; 0xc00
 800397e:	f2c4 0001 	movt	r0, #16385	; 0x4001
 8003982:	f44f 7100 	mov.w	r1, #512	; 0x200
 8003986:	f7fe f845 	bl	8001a14 <GPIO_SetBits>
 800398a:	0062      	lsls	r2, r4, #1
 800398c:	f44f 6040 	mov.w	r0, #3072	; 0xc00
 8003990:	b2d4      	uxtb	r4, r2
 8003992:	f2c4 0001 	movt	r0, #16385	; 0x4001
 8003996:	f44f 7100 	mov.w	r1, #512	; 0x200
 800399a:	f7fe f877 	bl	8001a8c <GPIO_ResetBits>
 800399e:	f44f 6040 	mov.w	r0, #3072	; 0xc00
 80039a2:	0622      	lsls	r2, r4, #24
 80039a4:	f2c4 0001 	movt	r0, #16385	; 0x4001
 80039a8:	f44f 7180 	mov.w	r1, #256	; 0x100
 80039ac:	f100 80b0 	bmi.w	8003b10 <write_reg+0x390>
 80039b0:	f7fe f86c 	bl	8001a8c <GPIO_ResetBits>
 80039b4:	f44f 6040 	mov.w	r0, #3072	; 0xc00
 80039b8:	f2c4 0001 	movt	r0, #16385	; 0x4001
 80039bc:	f44f 7100 	mov.w	r1, #512	; 0x200
 80039c0:	f7fe f828 	bl	8001a14 <GPIO_SetBits>
 80039c4:	0063      	lsls	r3, r4, #1
 80039c6:	f44f 6040 	mov.w	r0, #3072	; 0xc00
 80039ca:	b2dc      	uxtb	r4, r3
 80039cc:	f2c4 0001 	movt	r0, #16385	; 0x4001
 80039d0:	f44f 7100 	mov.w	r1, #512	; 0x200
 80039d4:	f7fe f85a 	bl	8001a8c <GPIO_ResetBits>
 80039d8:	f44f 6040 	mov.w	r0, #3072	; 0xc00
 80039dc:	0623      	lsls	r3, r4, #24
 80039de:	f2c4 0001 	movt	r0, #16385	; 0x4001
 80039e2:	f44f 7180 	mov.w	r1, #256	; 0x100
 80039e6:	f100 8090 	bmi.w	8003b0a <write_reg+0x38a>
 80039ea:	f7fe f84f 	bl	8001a8c <GPIO_ResetBits>
 80039ee:	f44f 6040 	mov.w	r0, #3072	; 0xc00
 80039f2:	f2c4 0001 	movt	r0, #16385	; 0x4001
 80039f6:	f44f 7100 	mov.w	r1, #512	; 0x200
 80039fa:	f7fe f80b 	bl	8001a14 <GPIO_SetBits>
 80039fe:	0061      	lsls	r1, r4, #1
 8003a00:	f44f 6040 	mov.w	r0, #3072	; 0xc00
 8003a04:	b2cc      	uxtb	r4, r1
 8003a06:	f2c4 0001 	movt	r0, #16385	; 0x4001
 8003a0a:	f44f 7100 	mov.w	r1, #512	; 0x200
 8003a0e:	f7fe f83d 	bl	8001a8c <GPIO_ResetBits>
 8003a12:	f44f 6040 	mov.w	r0, #3072	; 0xc00
 8003a16:	0622      	lsls	r2, r4, #24
 8003a18:	f2c4 0001 	movt	r0, #16385	; 0x4001
 8003a1c:	f44f 7180 	mov.w	r1, #256	; 0x100
 8003a20:	d470      	bmi.n	8003b04 <write_reg+0x384>
 8003a22:	f7fe f833 	bl	8001a8c <GPIO_ResetBits>
 8003a26:	f44f 6040 	mov.w	r0, #3072	; 0xc00
 8003a2a:	f2c4 0001 	movt	r0, #16385	; 0x4001
 8003a2e:	f44f 7100 	mov.w	r1, #512	; 0x200
 8003a32:	f7fd ffef 	bl	8001a14 <GPIO_SetBits>
 8003a36:	0062      	lsls	r2, r4, #1
 8003a38:	f44f 6040 	mov.w	r0, #3072	; 0xc00
 8003a3c:	b2d4      	uxtb	r4, r2
 8003a3e:	f2c4 0001 	movt	r0, #16385	; 0x4001
 8003a42:	f44f 7100 	mov.w	r1, #512	; 0x200
 8003a46:	f7fe f821 	bl	8001a8c <GPIO_ResetBits>
 8003a4a:	f44f 6040 	mov.w	r0, #3072	; 0xc00
 8003a4e:	0623      	lsls	r3, r4, #24
 8003a50:	f2c4 0001 	movt	r0, #16385	; 0x4001
 8003a54:	f44f 7180 	mov.w	r1, #256	; 0x100
 8003a58:	d451      	bmi.n	8003afe <write_reg+0x37e>
 8003a5a:	f7fe f817 	bl	8001a8c <GPIO_ResetBits>
 8003a5e:	f44f 6040 	mov.w	r0, #3072	; 0xc00
 8003a62:	f2c4 0001 	movt	r0, #16385	; 0x4001
 8003a66:	f44f 7100 	mov.w	r1, #512	; 0x200
 8003a6a:	f7fd ffd3 	bl	8001a14 <GPIO_SetBits>
 8003a6e:	0063      	lsls	r3, r4, #1
 8003a70:	f44f 6040 	mov.w	r0, #3072	; 0xc00
 8003a74:	b2dc      	uxtb	r4, r3
 8003a76:	f2c4 0001 	movt	r0, #16385	; 0x4001
 8003a7a:	f44f 7100 	mov.w	r1, #512	; 0x200
 8003a7e:	f7fe f805 	bl	8001a8c <GPIO_ResetBits>
 8003a82:	f44f 6040 	mov.w	r0, #3072	; 0xc00
 8003a86:	0622      	lsls	r2, r4, #24
 8003a88:	f2c4 0001 	movt	r0, #16385	; 0x4001
 8003a8c:	f44f 7180 	mov.w	r1, #256	; 0x100
 8003a90:	d432      	bmi.n	8003af8 <write_reg+0x378>
 8003a92:	f7fd fffb 	bl	8001a8c <GPIO_ResetBits>
 8003a96:	f44f 6040 	mov.w	r0, #3072	; 0xc00
 8003a9a:	f2c4 0001 	movt	r0, #16385	; 0x4001
 8003a9e:	f44f 7100 	mov.w	r1, #512	; 0x200
 8003aa2:	f7fd ffb7 	bl	8001a14 <GPIO_SetBits>
 8003aa6:	f44f 6040 	mov.w	r0, #3072	; 0xc00
 8003aaa:	f2c4 0001 	movt	r0, #16385	; 0x4001
 8003aae:	f44f 7100 	mov.w	r1, #512	; 0x200
 8003ab2:	f7fd ffeb 	bl	8001a8c <GPIO_ResetBits>
 8003ab6:	f44f 6040 	mov.w	r0, #3072	; 0xc00
 8003aba:	0663      	lsls	r3, r4, #25
 8003abc:	f2c4 0001 	movt	r0, #16385	; 0x4001
 8003ac0:	f44f 7180 	mov.w	r1, #256	; 0x100
 8003ac4:	d415      	bmi.n	8003af2 <write_reg+0x372>
 8003ac6:	f7fd ffe1 	bl	8001a8c <GPIO_ResetBits>
 8003aca:	f44f 6040 	mov.w	r0, #3072	; 0xc00
 8003ace:	f2c4 0001 	movt	r0, #16385	; 0x4001
 8003ad2:	f44f 7100 	mov.w	r1, #512	; 0x200
 8003ad6:	f7fd ff9d 	bl	8001a14 <GPIO_SetBits>
 8003ada:	f44f 6000 	mov.w	r0, #2048	; 0x800
 8003ade:	f2c4 0001 	movt	r0, #16385	; 0x4001
 8003ae2:	f44f 4100 	mov.w	r1, #32768	; 0x8000
 8003ae6:	f7fd ff95 	bl	8001a14 <GPIO_SetBits>
 8003aea:	bd10      	pop	{r4, pc}
 8003aec:	f7fd ff92 	bl	8001a14 <GPIO_SetBits>
 8003af0:	e726      	b.n	8003940 <write_reg+0x1c0>
 8003af2:	f7fd ff8f 	bl	8001a14 <GPIO_SetBits>
 8003af6:	e7e8      	b.n	8003aca <write_reg+0x34a>
 8003af8:	f7fd ff8c 	bl	8001a14 <GPIO_SetBits>
 8003afc:	e7cb      	b.n	8003a96 <write_reg+0x316>
 8003afe:	f7fd ff89 	bl	8001a14 <GPIO_SetBits>
 8003b02:	e7ac      	b.n	8003a5e <write_reg+0x2de>
 8003b04:	f7fd ff86 	bl	8001a14 <GPIO_SetBits>
 8003b08:	e78d      	b.n	8003a26 <write_reg+0x2a6>
 8003b0a:	f7fd ff83 	bl	8001a14 <GPIO_SetBits>
 8003b0e:	e76e      	b.n	80039ee <write_reg+0x26e>
 8003b10:	f7fd ff80 	bl	8001a14 <GPIO_SetBits>
 8003b14:	e74e      	b.n	80039b4 <write_reg+0x234>
 8003b16:	f7fd ff7d 	bl	8001a14 <GPIO_SetBits>
 8003b1a:	e72e      	b.n	800397a <write_reg+0x1fa>
 8003b1c:	08008c20 	.word	0x08008c20

08003b20 <vout_adj>:
 8003b20:	4b0a      	ldr	r3, [pc, #40]	; (8003b4c <vout_adj+0x2c>)
 8003b22:	2801      	cmp	r0, #1
 8003b24:	681a      	ldr	r2, [r3, #0]
 8003b26:	bf0c      	ite	eq
 8003b28:	1889      	addeq	r1, r1, r2
 8003b2a:	ebc1 0102 	rsbne	r1, r1, r2
 8003b2e:	2900      	cmp	r1, #0
 8003b30:	6019      	str	r1, [r3, #0]
 8003b32:	db05      	blt.n	8003b40 <vout_adj+0x20>
 8003b34:	29ff      	cmp	r1, #255	; 0xff
 8003b36:	dd06      	ble.n	8003b46 <vout_adj+0x26>
 8003b38:	20ff      	movs	r0, #255	; 0xff
 8003b3a:	6018      	str	r0, [r3, #0]
 8003b3c:	f7ff be20 	b.w	8003780 <write_reg>
 8003b40:	2000      	movs	r0, #0
 8003b42:	6018      	str	r0, [r3, #0]
 8003b44:	e7fa      	b.n	8003b3c <vout_adj+0x1c>
 8003b46:	b2c8      	uxtb	r0, r1
 8003b48:	e7f8      	b.n	8003b3c <vout_adj+0x1c>
 8003b4a:	bf00      	nop
 8003b4c:	20001c34 	.word	0x20001c34

08003b50 <vout_decrease>:
 8003b50:	b510      	push	{r4, lr}
 8003b52:	4604      	mov	r4, r0
 8003b54:	f648 4034 	movw	r0, #35892	; 0x8c34
 8003b58:	f6c0 0000 	movt	r0, #2048	; 0x800
 8003b5c:	f002 fe52 	bl	8006804 <rt_kprintf>
 8003b60:	4620      	mov	r0, r4
 8003b62:	f004 fc8f 	bl	8008484 <atoi>
 8003b66:	b281      	uxth	r1, r0
 8003b68:	2000      	movs	r0, #0
 8003b6a:	f7ff ffd9 	bl	8003b20 <vout_adj>
 8003b6e:	2001      	movs	r0, #1
 8003b70:	bd10      	pop	{r4, pc}
 8003b72:	bf00      	nop

08003b74 <vout_increase>:
 8003b74:	b510      	push	{r4, lr}
 8003b76:	4604      	mov	r4, r0
 8003b78:	f648 404c 	movw	r0, #35916	; 0x8c4c
 8003b7c:	f6c0 0000 	movt	r0, #2048	; 0x800
 8003b80:	f002 fe40 	bl	8006804 <rt_kprintf>
 8003b84:	4620      	mov	r0, r4
 8003b86:	f004 fc7d 	bl	8008484 <atoi>
 8003b8a:	b281      	uxth	r1, r0
 8003b8c:	2001      	movs	r0, #1
 8003b8e:	f7ff ffc7 	bl	8003b20 <vout_adj>
 8003b92:	2001      	movs	r0, #1
 8003b94:	bd10      	pop	{r4, pc}
 8003b96:	bf00      	nop

08003b98 <RCC_pga_init>:
 8003b98:	200c      	movs	r0, #12
 8003b9a:	2101      	movs	r1, #1
 8003b9c:	f7fd b82a 	b.w	8000bf4 <RCC_APB2PeriphClockCmd>

08003ba0 <GPIO_pga_init>:
 8003ba0:	b570      	push	{r4, r5, r6, lr}
 8003ba2:	f240 1474 	movw	r4, #372	; 0x174
 8003ba6:	f2c2 0400 	movt	r4, #8192	; 0x2000
 8003baa:	b082      	sub	sp, #8
 8003bac:	68a0      	ldr	r0, [r4, #8]
 8003bae:	89a1      	ldrh	r1, [r4, #12]
 8003bb0:	f7fd ff30 	bl	8001a14 <GPIO_SetBits>
 8003bb4:	88a3      	ldrh	r3, [r4, #4]
 8003bb6:	2610      	movs	r6, #16
 8003bb8:	2502      	movs	r5, #2
 8003bba:	6820      	ldr	r0, [r4, #0]
 8003bbc:	a901      	add	r1, sp, #4
 8003bbe:	f8ad 3004 	strh.w	r3, [sp, #4]
 8003bc2:	f88d 6007 	strb.w	r6, [sp, #7]
 8003bc6:	f88d 5006 	strb.w	r5, [sp, #6]
 8003bca:	f7fd fd21 	bl	8001610 <GPIO_Init>
 8003bce:	89a2      	ldrh	r2, [r4, #12]
 8003bd0:	68a0      	ldr	r0, [r4, #8]
 8003bd2:	a901      	add	r1, sp, #4
 8003bd4:	f8ad 2004 	strh.w	r2, [sp, #4]
 8003bd8:	f88d 6007 	strb.w	r6, [sp, #7]
 8003bdc:	f88d 5006 	strb.w	r5, [sp, #6]
 8003be0:	f7fd fd16 	bl	8001610 <GPIO_Init>
 8003be4:	8aa3      	ldrh	r3, [r4, #20]
 8003be6:	6920      	ldr	r0, [r4, #16]
 8003be8:	a901      	add	r1, sp, #4
 8003bea:	f8ad 3004 	strh.w	r3, [sp, #4]
 8003bee:	f88d 6007 	strb.w	r6, [sp, #7]
 8003bf2:	f88d 5006 	strb.w	r5, [sp, #6]
 8003bf6:	f7fd fd0b 	bl	8001610 <GPIO_Init>
 8003bfa:	6a20      	ldr	r0, [r4, #32]
 8003bfc:	8ca1      	ldrh	r1, [r4, #36]	; 0x24
 8003bfe:	f7fd ff09 	bl	8001a14 <GPIO_SetBits>
 8003c02:	8ba2      	ldrh	r2, [r4, #28]
 8003c04:	69a0      	ldr	r0, [r4, #24]
 8003c06:	a901      	add	r1, sp, #4
 8003c08:	f8ad 2004 	strh.w	r2, [sp, #4]
 8003c0c:	f88d 6007 	strb.w	r6, [sp, #7]
 8003c10:	f88d 5006 	strb.w	r5, [sp, #6]
 8003c14:	f7fd fcfc 	bl	8001610 <GPIO_Init>
 8003c18:	8ca3      	ldrh	r3, [r4, #36]	; 0x24
 8003c1a:	6a20      	ldr	r0, [r4, #32]
 8003c1c:	a901      	add	r1, sp, #4
 8003c1e:	f8ad 3004 	strh.w	r3, [sp, #4]
 8003c22:	f88d 6007 	strb.w	r6, [sp, #7]
 8003c26:	f88d 5006 	strb.w	r5, [sp, #6]
 8003c2a:	f7fd fcf1 	bl	8001610 <GPIO_Init>
 8003c2e:	8da2      	ldrh	r2, [r4, #44]	; 0x2c
 8003c30:	6aa0      	ldr	r0, [r4, #40]	; 0x28
 8003c32:	a901      	add	r1, sp, #4
 8003c34:	f8ad 2004 	strh.w	r2, [sp, #4]
 8003c38:	f88d 6007 	strb.w	r6, [sp, #7]
 8003c3c:	f88d 5006 	strb.w	r5, [sp, #6]
 8003c40:	f7fd fce6 	bl	8001610 <GPIO_Init>
 8003c44:	6ba0      	ldr	r0, [r4, #56]	; 0x38
 8003c46:	8fa1      	ldrh	r1, [r4, #60]	; 0x3c
 8003c48:	f7fd fee4 	bl	8001a14 <GPIO_SetBits>
 8003c4c:	8ea3      	ldrh	r3, [r4, #52]	; 0x34
 8003c4e:	6b20      	ldr	r0, [r4, #48]	; 0x30
 8003c50:	a901      	add	r1, sp, #4
 8003c52:	f8ad 3004 	strh.w	r3, [sp, #4]
 8003c56:	f88d 6007 	strb.w	r6, [sp, #7]
 8003c5a:	f88d 5006 	strb.w	r5, [sp, #6]
 8003c5e:	f7fd fcd7 	bl	8001610 <GPIO_Init>
 8003c62:	8fa2      	ldrh	r2, [r4, #60]	; 0x3c
 8003c64:	6ba0      	ldr	r0, [r4, #56]	; 0x38
 8003c66:	a901      	add	r1, sp, #4
 8003c68:	f8ad 2004 	strh.w	r2, [sp, #4]
 8003c6c:	f88d 6007 	strb.w	r6, [sp, #7]
 8003c70:	f88d 5006 	strb.w	r5, [sp, #6]
 8003c74:	f7fd fccc 	bl	8001610 <GPIO_Init>
 8003c78:	f8b4 3044 	ldrh.w	r3, [r4, #68]	; 0x44
 8003c7c:	6c20      	ldr	r0, [r4, #64]	; 0x40
 8003c7e:	a901      	add	r1, sp, #4
 8003c80:	f8ad 3004 	strh.w	r3, [sp, #4]
 8003c84:	f88d 6007 	strb.w	r6, [sp, #7]
 8003c88:	f88d 5006 	strb.w	r5, [sp, #6]
 8003c8c:	f7fd fcc0 	bl	8001610 <GPIO_Init>
 8003c90:	b002      	add	sp, #8
 8003c92:	bd70      	pop	{r4, r5, r6, pc}

08003c94 <pga_init>:
 8003c94:	b508      	push	{r3, lr}
 8003c96:	f7ff ff7f 	bl	8003b98 <RCC_pga_init>
 8003c9a:	e8bd 4008 	ldmia.w	sp!, {r3, lr}
 8003c9e:	f7ff bf7f 	b.w	8003ba0 <GPIO_pga_init>
 8003ca2:	bf00      	nop

08003ca4 <write_sport>:
 8003ca4:	b570      	push	{r4, r5, r6, lr}
 8003ca6:	4604      	mov	r4, r0
 8003ca8:	4d72      	ldr	r5, [pc, #456]	; (8003e74 <write_sport+0x1d0>)
 8003caa:	4873      	ldr	r0, [pc, #460]	; (8003e78 <write_sport+0x1d4>)
 8003cac:	460e      	mov	r6, r1
 8003cae:	f002 fda9 	bl	8006804 <rt_kprintf>
 8003cb2:	88a1      	ldrh	r1, [r4, #4]
 8003cb4:	6820      	ldr	r0, [r4, #0]
 8003cb6:	f7fd fee9 	bl	8001a8c <GPIO_ResetBits>
 8003cba:	6828      	ldr	r0, [r5, #0]
 8003cbc:	f7ff fd5e 	bl	800377c <delay>
 8003cc0:	0632      	lsls	r2, r6, #24
 8003cc2:	6920      	ldr	r0, [r4, #16]
 8003cc4:	8aa1      	ldrh	r1, [r4, #20]
 8003cc6:	f100 80bc 	bmi.w	8003e42 <write_sport+0x19e>
 8003cca:	f7fd fedf 	bl	8001a8c <GPIO_ResetBits>
 8003cce:	6828      	ldr	r0, [r5, #0]
 8003cd0:	f7ff fd54 	bl	800377c <delay>
 8003cd4:	88a1      	ldrh	r1, [r4, #4]
 8003cd6:	6820      	ldr	r0, [r4, #0]
 8003cd8:	f7fd fe9c 	bl	8001a14 <GPIO_SetBits>
 8003cdc:	6828      	ldr	r0, [r5, #0]
 8003cde:	f7ff fd4d 	bl	800377c <delay>
 8003ce2:	0072      	lsls	r2, r6, #1
 8003ce4:	88a1      	ldrh	r1, [r4, #4]
 8003ce6:	6820      	ldr	r0, [r4, #0]
 8003ce8:	b2d6      	uxtb	r6, r2
 8003cea:	f7fd fecf 	bl	8001a8c <GPIO_ResetBits>
 8003cee:	6828      	ldr	r0, [r5, #0]
 8003cf0:	f7ff fd44 	bl	800377c <delay>
 8003cf4:	0633      	lsls	r3, r6, #24
 8003cf6:	6920      	ldr	r0, [r4, #16]
 8003cf8:	8aa1      	ldrh	r1, [r4, #20]
 8003cfa:	f100 80b7 	bmi.w	8003e6c <write_sport+0x1c8>
 8003cfe:	f7fd fec5 	bl	8001a8c <GPIO_ResetBits>
 8003d02:	6828      	ldr	r0, [r5, #0]
 8003d04:	f7ff fd3a 	bl	800377c <delay>
 8003d08:	88a1      	ldrh	r1, [r4, #4]
 8003d0a:	6820      	ldr	r0, [r4, #0]
 8003d0c:	f7fd fe82 	bl	8001a14 <GPIO_SetBits>
 8003d10:	6828      	ldr	r0, [r5, #0]
 8003d12:	f7ff fd33 	bl	800377c <delay>
 8003d16:	0073      	lsls	r3, r6, #1
 8003d18:	88a1      	ldrh	r1, [r4, #4]
 8003d1a:	6820      	ldr	r0, [r4, #0]
 8003d1c:	b2de      	uxtb	r6, r3
 8003d1e:	f7fd feb5 	bl	8001a8c <GPIO_ResetBits>
 8003d22:	6828      	ldr	r0, [r5, #0]
 8003d24:	f7ff fd2a 	bl	800377c <delay>
 8003d28:	0632      	lsls	r2, r6, #24
 8003d2a:	6920      	ldr	r0, [r4, #16]
 8003d2c:	8aa1      	ldrh	r1, [r4, #20]
 8003d2e:	f100 809a 	bmi.w	8003e66 <write_sport+0x1c2>
 8003d32:	f7fd feab 	bl	8001a8c <GPIO_ResetBits>
 8003d36:	6828      	ldr	r0, [r5, #0]
 8003d38:	f7ff fd20 	bl	800377c <delay>
 8003d3c:	88a1      	ldrh	r1, [r4, #4]
 8003d3e:	6820      	ldr	r0, [r4, #0]
 8003d40:	f7fd fe68 	bl	8001a14 <GPIO_SetBits>
 8003d44:	6828      	ldr	r0, [r5, #0]
 8003d46:	f7ff fd19 	bl	800377c <delay>
 8003d4a:	0072      	lsls	r2, r6, #1
 8003d4c:	88a1      	ldrh	r1, [r4, #4]
 8003d4e:	6820      	ldr	r0, [r4, #0]
 8003d50:	b2d6      	uxtb	r6, r2
 8003d52:	f7fd fe9b 	bl	8001a8c <GPIO_ResetBits>
 8003d56:	6828      	ldr	r0, [r5, #0]
 8003d58:	f7ff fd10 	bl	800377c <delay>
 8003d5c:	0633      	lsls	r3, r6, #24
 8003d5e:	6920      	ldr	r0, [r4, #16]
 8003d60:	8aa1      	ldrh	r1, [r4, #20]
 8003d62:	d47d      	bmi.n	8003e60 <write_sport+0x1bc>
 8003d64:	f7fd fe92 	bl	8001a8c <GPIO_ResetBits>
 8003d68:	6828      	ldr	r0, [r5, #0]
 8003d6a:	f7ff fd07 	bl	800377c <delay>
 8003d6e:	88a1      	ldrh	r1, [r4, #4]
 8003d70:	6820      	ldr	r0, [r4, #0]
 8003d72:	f7fd fe4f 	bl	8001a14 <GPIO_SetBits>
 8003d76:	6828      	ldr	r0, [r5, #0]
 8003d78:	f7ff fd00 	bl	800377c <delay>
 8003d7c:	0073      	lsls	r3, r6, #1
 8003d7e:	88a1      	ldrh	r1, [r4, #4]
 8003d80:	6820      	ldr	r0, [r4, #0]
 8003d82:	b2de      	uxtb	r6, r3
 8003d84:	f7fd fe82 	bl	8001a8c <GPIO_ResetBits>
 8003d88:	6828      	ldr	r0, [r5, #0]
 8003d8a:	f7ff fcf7 	bl	800377c <delay>
 8003d8e:	0632      	lsls	r2, r6, #24
 8003d90:	6920      	ldr	r0, [r4, #16]
 8003d92:	8aa1      	ldrh	r1, [r4, #20]
 8003d94:	d461      	bmi.n	8003e5a <write_sport+0x1b6>
 8003d96:	f7fd fe79 	bl	8001a8c <GPIO_ResetBits>
 8003d9a:	6828      	ldr	r0, [r5, #0]
 8003d9c:	f7ff fcee 	bl	800377c <delay>
 8003da0:	88a1      	ldrh	r1, [r4, #4]
 8003da2:	6820      	ldr	r0, [r4, #0]
 8003da4:	f7fd fe36 	bl	8001a14 <GPIO_SetBits>
 8003da8:	6828      	ldr	r0, [r5, #0]
 8003daa:	f7ff fce7 	bl	800377c <delay>
 8003dae:	0072      	lsls	r2, r6, #1
 8003db0:	88a1      	ldrh	r1, [r4, #4]
 8003db2:	6820      	ldr	r0, [r4, #0]
 8003db4:	b2d6      	uxtb	r6, r2
 8003db6:	f7fd fe69 	bl	8001a8c <GPIO_ResetBits>
 8003dba:	6828      	ldr	r0, [r5, #0]
 8003dbc:	f7ff fcde 	bl	800377c <delay>
 8003dc0:	0633      	lsls	r3, r6, #24
 8003dc2:	6920      	ldr	r0, [r4, #16]
 8003dc4:	8aa1      	ldrh	r1, [r4, #20]
 8003dc6:	d445      	bmi.n	8003e54 <write_sport+0x1b0>
 8003dc8:	f7fd fe60 	bl	8001a8c <GPIO_ResetBits>
 8003dcc:	6828      	ldr	r0, [r5, #0]
 8003dce:	f7ff fcd5 	bl	800377c <delay>
 8003dd2:	88a1      	ldrh	r1, [r4, #4]
 8003dd4:	6820      	ldr	r0, [r4, #0]
 8003dd6:	f7fd fe1d 	bl	8001a14 <GPIO_SetBits>
 8003dda:	6828      	ldr	r0, [r5, #0]
 8003ddc:	f7ff fcce 	bl	800377c <delay>
 8003de0:	0073      	lsls	r3, r6, #1
 8003de2:	88a1      	ldrh	r1, [r4, #4]
 8003de4:	6820      	ldr	r0, [r4, #0]
 8003de6:	b2de      	uxtb	r6, r3
 8003de8:	f7fd fe50 	bl	8001a8c <GPIO_ResetBits>
 8003dec:	6828      	ldr	r0, [r5, #0]
 8003dee:	f7ff fcc5 	bl	800377c <delay>
 8003df2:	0632      	lsls	r2, r6, #24
 8003df4:	6920      	ldr	r0, [r4, #16]
 8003df6:	8aa1      	ldrh	r1, [r4, #20]
 8003df8:	d429      	bmi.n	8003e4e <write_sport+0x1aa>
 8003dfa:	f7fd fe47 	bl	8001a8c <GPIO_ResetBits>
 8003dfe:	6828      	ldr	r0, [r5, #0]
 8003e00:	f7ff fcbc 	bl	800377c <delay>
 8003e04:	88a1      	ldrh	r1, [r4, #4]
 8003e06:	6820      	ldr	r0, [r4, #0]
 8003e08:	f7fd fe04 	bl	8001a14 <GPIO_SetBits>
 8003e0c:	6828      	ldr	r0, [r5, #0]
 8003e0e:	f7ff fcb5 	bl	800377c <delay>
 8003e12:	88a1      	ldrh	r1, [r4, #4]
 8003e14:	6820      	ldr	r0, [r4, #0]
 8003e16:	f7fd fe39 	bl	8001a8c <GPIO_ResetBits>
 8003e1a:	6828      	ldr	r0, [r5, #0]
 8003e1c:	f7ff fcae 	bl	800377c <delay>
 8003e20:	0673      	lsls	r3, r6, #25
 8003e22:	6920      	ldr	r0, [r4, #16]
 8003e24:	8aa1      	ldrh	r1, [r4, #20]
 8003e26:	d40f      	bmi.n	8003e48 <write_sport+0x1a4>
 8003e28:	f7fd fe30 	bl	8001a8c <GPIO_ResetBits>
 8003e2c:	6828      	ldr	r0, [r5, #0]
 8003e2e:	f7ff fca5 	bl	800377c <delay>
 8003e32:	6820      	ldr	r0, [r4, #0]
 8003e34:	88a1      	ldrh	r1, [r4, #4]
 8003e36:	f7fd fded 	bl	8001a14 <GPIO_SetBits>
 8003e3a:	6828      	ldr	r0, [r5, #0]
 8003e3c:	f7ff fc9e 	bl	800377c <delay>
 8003e40:	bd70      	pop	{r4, r5, r6, pc}
 8003e42:	f7fd fde7 	bl	8001a14 <GPIO_SetBits>
 8003e46:	e742      	b.n	8003cce <write_sport+0x2a>
 8003e48:	f7fd fde4 	bl	8001a14 <GPIO_SetBits>
 8003e4c:	e7ee      	b.n	8003e2c <write_sport+0x188>
 8003e4e:	f7fd fde1 	bl	8001a14 <GPIO_SetBits>
 8003e52:	e7d4      	b.n	8003dfe <write_sport+0x15a>
 8003e54:	f7fd fdde 	bl	8001a14 <GPIO_SetBits>
 8003e58:	e7b8      	b.n	8003dcc <write_sport+0x128>
 8003e5a:	f7fd fddb 	bl	8001a14 <GPIO_SetBits>
 8003e5e:	e79c      	b.n	8003d9a <write_sport+0xf6>
 8003e60:	f7fd fdd8 	bl	8001a14 <GPIO_SetBits>
 8003e64:	e780      	b.n	8003d68 <write_sport+0xc4>
 8003e66:	f7fd fdd5 	bl	8001a14 <GPIO_SetBits>
 8003e6a:	e764      	b.n	8003d36 <write_sport+0x92>
 8003e6c:	f7fd fdd2 	bl	8001a14 <GPIO_SetBits>
 8003e70:	e747      	b.n	8003d02 <write_sport+0x5e>
 8003e72:	bf00      	nop
 8003e74:	20000150 	.word	0x20000150
 8003e78:	08008c6c 	.word	0x08008c6c

08003e7c <pga_set>:
 8003e7c:	b570      	push	{r4, r5, r6, lr}
 8003e7e:	4604      	mov	r4, r0
 8003e80:	3002      	adds	r0, #2
 8003e82:	f004 faff 	bl	8008484 <atoi>
 8003e86:	7823      	ldrb	r3, [r4, #0]
 8003e88:	4605      	mov	r5, r0
 8003e8a:	2b42      	cmp	r3, #66	; 0x42
 8003e8c:	d016      	beq.n	8003ebc <pga_set+0x40>
 8003e8e:	2b52      	cmp	r3, #82	; 0x52
 8003e90:	d00f      	beq.n	8003eb2 <pga_set+0x36>
 8003e92:	2b41      	cmp	r3, #65	; 0x41
 8003e94:	d008      	beq.n	8003ea8 <pga_set+0x2c>
 8003e96:	480c      	ldr	r0, [pc, #48]	; (8003ec8 <pga_set+0x4c>)
 8003e98:	f002 fcb4 	bl	8006804 <rt_kprintf>
 8003e9c:	4630      	mov	r0, r6
 8003e9e:	b2e9      	uxtb	r1, r5
 8003ea0:	f7ff ff00 	bl	8003ca4 <write_sport>
 8003ea4:	2001      	movs	r0, #1
 8003ea6:	bd70      	pop	{r4, r5, r6, pc}
 8003ea8:	4808      	ldr	r0, [pc, #32]	; (8003ecc <pga_set+0x50>)
 8003eaa:	f002 fcab 	bl	8006804 <rt_kprintf>
 8003eae:	4e08      	ldr	r6, [pc, #32]	; (8003ed0 <pga_set+0x54>)
 8003eb0:	e7f4      	b.n	8003e9c <pga_set+0x20>
 8003eb2:	4808      	ldr	r0, [pc, #32]	; (8003ed4 <pga_set+0x58>)
 8003eb4:	f002 fca6 	bl	8006804 <rt_kprintf>
 8003eb8:	4e07      	ldr	r6, [pc, #28]	; (8003ed8 <pga_set+0x5c>)
 8003eba:	e7ef      	b.n	8003e9c <pga_set+0x20>
 8003ebc:	4807      	ldr	r0, [pc, #28]	; (8003edc <pga_set+0x60>)
 8003ebe:	f002 fca1 	bl	8006804 <rt_kprintf>
 8003ec2:	4e03      	ldr	r6, [pc, #12]	; (8003ed0 <pga_set+0x54>)
 8003ec4:	e7ea      	b.n	8003e9c <pga_set+0x20>
 8003ec6:	bf00      	nop
 8003ec8:	08008cb8 	.word	0x08008cb8
 8003ecc:	08008c90 	.word	0x08008c90
 8003ed0:	2000018c 	.word	0x2000018c
 8003ed4:	08008c7c 	.word	0x08008c7c
 8003ed8:	20000174 	.word	0x20000174
 8003edc:	08008ca4 	.word	0x08008ca4

08003ee0 <RCC_ds18b20_setup_out>:
 8003ee0:	2004      	movs	r0, #4
 8003ee2:	2101      	movs	r1, #1
 8003ee4:	f7fc be86 	b.w	8000bf4 <RCC_APB2PeriphClockCmd>

08003ee8 <GPIO_ds18b20_setup_out>:
 8003ee8:	b500      	push	{lr}
 8003eea:	f240 13bc 	movw	r3, #444	; 0x1bc
 8003eee:	f2c2 0300 	movt	r3, #8192	; 0x2000
 8003ef2:	889a      	ldrh	r2, [r3, #4]
 8003ef4:	b083      	sub	sp, #12
 8003ef6:	6818      	ldr	r0, [r3, #0]
 8003ef8:	f8ad 2004 	strh.w	r2, [sp, #4]
 8003efc:	2314      	movs	r3, #20
 8003efe:	2202      	movs	r2, #2
 8003f00:	a901      	add	r1, sp, #4
 8003f02:	f88d 3007 	strb.w	r3, [sp, #7]
 8003f06:	f88d 2006 	strb.w	r2, [sp, #6]
 8003f0a:	f7fd fb81 	bl	8001610 <GPIO_Init>
 8003f0e:	b003      	add	sp, #12
 8003f10:	bd00      	pop	{pc}
 8003f12:	bf00      	nop

08003f14 <GPIO_ds18b20_setup_in>:
 8003f14:	b500      	push	{lr}
 8003f16:	f240 13bc 	movw	r3, #444	; 0x1bc
 8003f1a:	f2c2 0300 	movt	r3, #8192	; 0x2000
 8003f1e:	889a      	ldrh	r2, [r3, #4]
 8003f20:	b083      	sub	sp, #12
 8003f22:	6818      	ldr	r0, [r3, #0]
 8003f24:	f8ad 2004 	strh.w	r2, [sp, #4]
 8003f28:	2348      	movs	r3, #72	; 0x48
 8003f2a:	2202      	movs	r2, #2
 8003f2c:	a901      	add	r1, sp, #4
 8003f2e:	f88d 3007 	strb.w	r3, [sp, #7]
 8003f32:	f88d 2006 	strb.w	r2, [sp, #6]
 8003f36:	f7fd fb6b 	bl	8001610 <GPIO_Init>
 8003f3a:	b003      	add	sp, #12
 8003f3c:	bd00      	pop	{pc}
 8003f3e:	bf00      	nop

08003f40 <ds18b20_init>:
 8003f40:	b508      	push	{r3, lr}
 8003f42:	f7ff ffcd 	bl	8003ee0 <RCC_ds18b20_setup_out>
 8003f46:	e8bd 4008 	ldmia.w	sp!, {r3, lr}
 8003f4a:	f7ff bfcd 	b.w	8003ee8 <GPIO_ds18b20_setup_out>
 8003f4e:	bf00      	nop

08003f50 <ds18b20_reset>:
 8003f50:	b538      	push	{r3, r4, r5, lr}
 8003f52:	4c18      	ldr	r4, [pc, #96]	; (8003fb4 <ds18b20_reset+0x64>)
 8003f54:	f7ff ffc8 	bl	8003ee8 <GPIO_ds18b20_setup_out>
 8003f58:	88a1      	ldrh	r1, [r4, #4]
 8003f5a:	6820      	ldr	r0, [r4, #0]
 8003f5c:	f7fd fd5a 	bl	8001a14 <GPIO_SetBits>
 8003f60:	2022      	movs	r0, #34	; 0x22
 8003f62:	f7fe fe89 	bl	8002c78 <delay_loop>
 8003f66:	88a1      	ldrh	r1, [r4, #4]
 8003f68:	6820      	ldr	r0, [r4, #0]
 8003f6a:	f7fd fd8f 	bl	8001a8c <GPIO_ResetBits>
 8003f6e:	f242 70d8 	movw	r0, #10200	; 0x27d8
 8003f72:	f7fe fe81 	bl	8002c78 <delay_loop>
 8003f76:	6820      	ldr	r0, [r4, #0]
 8003f78:	88a1      	ldrh	r1, [r4, #4]
 8003f7a:	f7fd fd4b 	bl	8001a14 <GPIO_SetBits>
 8003f7e:	f7ff ffc9 	bl	8003f14 <GPIO_ds18b20_setup_in>
 8003f82:	6820      	ldr	r0, [r4, #0]
 8003f84:	88a1      	ldrh	r1, [r4, #4]
 8003f86:	f7fd fcdf 	bl	8001948 <GPIO_ReadInputDataBit>
 8003f8a:	2800      	cmp	r0, #0
 8003f8c:	d1f9      	bne.n	8003f82 <ds18b20_reset+0x32>
 8003f8e:	6820      	ldr	r0, [r4, #0]
 8003f90:	88a1      	ldrh	r1, [r4, #4]
 8003f92:	4d08      	ldr	r5, [pc, #32]	; (8003fb4 <ds18b20_reset+0x64>)
 8003f94:	f7fd fcd8 	bl	8001948 <GPIO_ReadInputDataBit>
 8003f98:	2800      	cmp	r0, #0
 8003f9a:	d0f8      	beq.n	8003f8e <ds18b20_reset+0x3e>
 8003f9c:	f7ff ffa4 	bl	8003ee8 <GPIO_ds18b20_setup_out>
 8003fa0:	6828      	ldr	r0, [r5, #0]
 8003fa2:	88a9      	ldrh	r1, [r5, #4]
 8003fa4:	f7fd fd36 	bl	8001a14 <GPIO_SetBits>
 8003fa8:	f242 70d8 	movw	r0, #10200	; 0x27d8
 8003fac:	e8bd 4038 	ldmia.w	sp!, {r3, r4, r5, lr}
 8003fb0:	f7fe be62 	b.w	8002c78 <delay_loop>
 8003fb4:	200001bc 	.word	0x200001bc

08003fb8 <read_bit>:
 8003fb8:	b510      	push	{r4, lr}
 8003fba:	f240 14bc 	movw	r4, #444	; 0x1bc
 8003fbe:	f2c2 0400 	movt	r4, #8192	; 0x2000
 8003fc2:	f7ff ff91 	bl	8003ee8 <GPIO_ds18b20_setup_out>
 8003fc6:	88a1      	ldrh	r1, [r4, #4]
 8003fc8:	6820      	ldr	r0, [r4, #0]
 8003fca:	f7fd fd5f 	bl	8001a8c <GPIO_ResetBits>
 8003fce:	2022      	movs	r0, #34	; 0x22
 8003fd0:	f7fe fe52 	bl	8002c78 <delay_loop>
 8003fd4:	88a1      	ldrh	r1, [r4, #4]
 8003fd6:	6820      	ldr	r0, [r4, #0]
 8003fd8:	f7fd fd1c 	bl	8001a14 <GPIO_SetBits>
 8003fdc:	f7ff ff9a 	bl	8003f14 <GPIO_ds18b20_setup_in>
 8003fe0:	20aa      	movs	r0, #170	; 0xaa
 8003fe2:	f7fe fe49 	bl	8002c78 <delay_loop>
 8003fe6:	88a1      	ldrh	r1, [r4, #4]
 8003fe8:	6820      	ldr	r0, [r4, #0]
 8003fea:	f7fd fcad 	bl	8001948 <GPIO_ReadInputDataBit>
 8003fee:	4604      	mov	r4, r0
 8003ff0:	f240 20fd 	movw	r0, #765	; 0x2fd
 8003ff4:	f7fe fe40 	bl	8002c78 <delay_loop>
 8003ff8:	4620      	mov	r0, r4
 8003ffa:	bd10      	pop	{r4, pc}

08003ffc <temp_read_byte>:
 8003ffc:	b538      	push	{r3, r4, r5, lr}
 8003ffe:	f7ff ffdb 	bl	8003fb8 <read_bit>
 8004002:	4604      	mov	r4, r0
 8004004:	f7ff ffd8 	bl	8003fb8 <read_bit>
 8004008:	01a1      	lsls	r1, r4, #6
 800400a:	f001 0240 	and.w	r2, r1, #64	; 0x40
 800400e:	ea42 10c0 	orr.w	r0, r2, r0, lsl #7
 8004012:	b2c5      	uxtb	r5, r0
 8004014:	f7ff ffd0 	bl	8003fb8 <read_bit>
 8004018:	4604      	mov	r4, r0
 800401a:	f7ff ffcd 	bl	8003fb8 <read_bit>
 800401e:	086b      	lsrs	r3, r5, #1
 8004020:	ea43 11c4 	orr.w	r1, r3, r4, lsl #7
 8004024:	b2ca      	uxtb	r2, r1
 8004026:	01c0      	lsls	r0, r0, #7
 8004028:	ea40 0552 	orr.w	r5, r0, r2, lsr #1
 800402c:	f7ff ffc4 	bl	8003fb8 <read_bit>
 8004030:	b2ec      	uxtb	r4, r5
 8004032:	01c3      	lsls	r3, r0, #7
 8004034:	ea43 0154 	orr.w	r1, r3, r4, lsr #1
 8004038:	b2cd      	uxtb	r5, r1
 800403a:	f7ff ffbd 	bl	8003fb8 <read_bit>
 800403e:	4604      	mov	r4, r0
 8004040:	f7ff ffba 	bl	8003fb8 <read_bit>
 8004044:	086d      	lsrs	r5, r5, #1
 8004046:	ea45 12c4 	orr.w	r2, r5, r4, lsl #7
 800404a:	b2d3      	uxtb	r3, r2
 800404c:	01c0      	lsls	r0, r0, #7
 800404e:	ea40 0153 	orr.w	r1, r0, r3, lsr #1
 8004052:	b2cc      	uxtb	r4, r1
 8004054:	f7ff ffb0 	bl	8003fb8 <read_bit>
 8004058:	01c2      	lsls	r2, r0, #7
 800405a:	ea42 0354 	orr.w	r3, r2, r4, lsr #1
 800405e:	b2d8      	uxtb	r0, r3
 8004060:	bd38      	pop	{r3, r4, r5, pc}
 8004062:	bf00      	nop

08004064 <temp_write_byte>:
 8004064:	b538      	push	{r3, r4, r5, lr}
 8004066:	4c8e      	ldr	r4, [pc, #568]	; (80042a0 <temp_write_byte+0x23c>)
 8004068:	4605      	mov	r5, r0
 800406a:	88a1      	ldrh	r1, [r4, #4]
 800406c:	6820      	ldr	r0, [r4, #0]
 800406e:	f7fd fcd1 	bl	8001a14 <GPIO_SetBits>
 8004072:	2022      	movs	r0, #34	; 0x22
 8004074:	f7fe fe00 	bl	8002c78 <delay_loop>
 8004078:	07eb      	lsls	r3, r5, #31
 800407a:	88a1      	ldrh	r1, [r4, #4]
 800407c:	6820      	ldr	r0, [r4, #0]
 800407e:	f100 809e 	bmi.w	80041be <temp_write_byte+0x15a>
 8004082:	f7fd fd03 	bl	8001a8c <GPIO_ResetBits>
 8004086:	f240 40a6 	movw	r0, #1190	; 0x4a6
 800408a:	f7fe fdf5 	bl	8002c78 <delay_loop>
 800408e:	6820      	ldr	r0, [r4, #0]
 8004090:	88a1      	ldrh	r1, [r4, #4]
 8004092:	f7fd fcbf 	bl	8001a14 <GPIO_SetBits>
 8004096:	2022      	movs	r0, #34	; 0x22
 8004098:	f7fe fdee 	bl	8002c78 <delay_loop>
 800409c:	f005 0302 	and.w	r3, r5, #2
 80040a0:	b2da      	uxtb	r2, r3
 80040a2:	88a1      	ldrh	r1, [r4, #4]
 80040a4:	6820      	ldr	r0, [r4, #0]
 80040a6:	2a00      	cmp	r2, #0
 80040a8:	f040 80ec 	bne.w	8004284 <temp_write_byte+0x220>
 80040ac:	f7fd fcee 	bl	8001a8c <GPIO_ResetBits>
 80040b0:	f240 40a6 	movw	r0, #1190	; 0x4a6
 80040b4:	f7fe fde0 	bl	8002c78 <delay_loop>
 80040b8:	6820      	ldr	r0, [r4, #0]
 80040ba:	88a1      	ldrh	r1, [r4, #4]
 80040bc:	f7fd fcaa 	bl	8001a14 <GPIO_SetBits>
 80040c0:	2022      	movs	r0, #34	; 0x22
 80040c2:	f7fe fdd9 	bl	8002c78 <delay_loop>
 80040c6:	f005 0004 	and.w	r0, r5, #4
 80040ca:	b2c3      	uxtb	r3, r0
 80040cc:	88a1      	ldrh	r1, [r4, #4]
 80040ce:	6820      	ldr	r0, [r4, #0]
 80040d0:	2b00      	cmp	r3, #0
 80040d2:	f040 80c9 	bne.w	8004268 <temp_write_byte+0x204>
 80040d6:	f7fd fcd9 	bl	8001a8c <GPIO_ResetBits>
 80040da:	f240 40a6 	movw	r0, #1190	; 0x4a6
 80040de:	f7fe fdcb 	bl	8002c78 <delay_loop>
 80040e2:	6820      	ldr	r0, [r4, #0]
 80040e4:	88a1      	ldrh	r1, [r4, #4]
 80040e6:	f7fd fc95 	bl	8001a14 <GPIO_SetBits>
 80040ea:	2022      	movs	r0, #34	; 0x22
 80040ec:	f7fe fdc4 	bl	8002c78 <delay_loop>
 80040f0:	f005 0108 	and.w	r1, r5, #8
 80040f4:	b2ca      	uxtb	r2, r1
 80040f6:	6820      	ldr	r0, [r4, #0]
 80040f8:	88a1      	ldrh	r1, [r4, #4]
 80040fa:	2a00      	cmp	r2, #0
 80040fc:	f040 80a6 	bne.w	800424c <temp_write_byte+0x1e8>
 8004100:	f7fd fcc4 	bl	8001a8c <GPIO_ResetBits>
 8004104:	f240 40a6 	movw	r0, #1190	; 0x4a6
 8004108:	f7fe fdb6 	bl	8002c78 <delay_loop>
 800410c:	6820      	ldr	r0, [r4, #0]
 800410e:	88a1      	ldrh	r1, [r4, #4]
 8004110:	f7fd fc80 	bl	8001a14 <GPIO_SetBits>
 8004114:	2022      	movs	r0, #34	; 0x22
 8004116:	f7fe fdaf 	bl	8002c78 <delay_loop>
 800411a:	f005 0010 	and.w	r0, r5, #16
 800411e:	b2c3      	uxtb	r3, r0
 8004120:	88a1      	ldrh	r1, [r4, #4]
 8004122:	6820      	ldr	r0, [r4, #0]
 8004124:	2b00      	cmp	r3, #0
 8004126:	f040 8083 	bne.w	8004230 <temp_write_byte+0x1cc>
 800412a:	f7fd fcaf 	bl	8001a8c <GPIO_ResetBits>
 800412e:	f240 40a6 	movw	r0, #1190	; 0x4a6
 8004132:	f7fe fda1 	bl	8002c78 <delay_loop>
 8004136:	6820      	ldr	r0, [r4, #0]
 8004138:	88a1      	ldrh	r1, [r4, #4]
 800413a:	f7fd fc6b 	bl	8001a14 <GPIO_SetBits>
 800413e:	2022      	movs	r0, #34	; 0x22
 8004140:	f7fe fd9a 	bl	8002c78 <delay_loop>
 8004144:	f005 0120 	and.w	r1, r5, #32
 8004148:	b2ca      	uxtb	r2, r1
 800414a:	6820      	ldr	r0, [r4, #0]
 800414c:	88a1      	ldrh	r1, [r4, #4]
 800414e:	2a00      	cmp	r2, #0
 8004150:	d160      	bne.n	8004214 <temp_write_byte+0x1b0>
 8004152:	f7fd fc9b 	bl	8001a8c <GPIO_ResetBits>
 8004156:	f240 40a6 	movw	r0, #1190	; 0x4a6
 800415a:	f7fe fd8d 	bl	8002c78 <delay_loop>
 800415e:	6820      	ldr	r0, [r4, #0]
 8004160:	88a1      	ldrh	r1, [r4, #4]
 8004162:	f7fd fc57 	bl	8001a14 <GPIO_SetBits>
 8004166:	2022      	movs	r0, #34	; 0x22
 8004168:	f7fe fd86 	bl	8002c78 <delay_loop>
 800416c:	f005 0040 	and.w	r0, r5, #64	; 0x40
 8004170:	b2c3      	uxtb	r3, r0
 8004172:	88a1      	ldrh	r1, [r4, #4]
 8004174:	6820      	ldr	r0, [r4, #0]
 8004176:	2b00      	cmp	r3, #0
 8004178:	d13e      	bne.n	80041f8 <temp_write_byte+0x194>
 800417a:	f7fd fc87 	bl	8001a8c <GPIO_ResetBits>
 800417e:	f240 40a6 	movw	r0, #1190	; 0x4a6
 8004182:	f7fe fd79 	bl	8002c78 <delay_loop>
 8004186:	6820      	ldr	r0, [r4, #0]
 8004188:	88a1      	ldrh	r1, [r4, #4]
 800418a:	f7fd fc43 	bl	8001a14 <GPIO_SetBits>
 800418e:	2022      	movs	r0, #34	; 0x22
 8004190:	f7fe fd72 	bl	8002c78 <delay_loop>
 8004194:	f005 0580 	and.w	r5, r5, #128	; 0x80
 8004198:	b2ed      	uxtb	r5, r5
 800419a:	88a1      	ldrh	r1, [r4, #4]
 800419c:	6820      	ldr	r0, [r4, #0]
 800419e:	b1e5      	cbz	r5, 80041da <temp_write_byte+0x176>
 80041a0:	f7fd fc74 	bl	8001a8c <GPIO_ResetBits>
 80041a4:	2055      	movs	r0, #85	; 0x55
 80041a6:	f7fe fd67 	bl	8002c78 <delay_loop>
 80041aa:	6820      	ldr	r0, [r4, #0]
 80041ac:	88a1      	ldrh	r1, [r4, #4]
 80041ae:	f7fd fc31 	bl	8001a14 <GPIO_SetBits>
 80041b2:	f240 40a6 	movw	r0, #1190	; 0x4a6
 80041b6:	e8bd 4038 	ldmia.w	sp!, {r3, r4, r5, lr}
 80041ba:	f7fe bd5d 	b.w	8002c78 <delay_loop>
 80041be:	f7fd fc65 	bl	8001a8c <GPIO_ResetBits>
 80041c2:	2055      	movs	r0, #85	; 0x55
 80041c4:	f7fe fd58 	bl	8002c78 <delay_loop>
 80041c8:	6820      	ldr	r0, [r4, #0]
 80041ca:	88a1      	ldrh	r1, [r4, #4]
 80041cc:	f7fd fc22 	bl	8001a14 <GPIO_SetBits>
 80041d0:	f240 40a6 	movw	r0, #1190	; 0x4a6
 80041d4:	f7fe fd50 	bl	8002c78 <delay_loop>
 80041d8:	e760      	b.n	800409c <temp_write_byte+0x38>
 80041da:	f7fd fc57 	bl	8001a8c <GPIO_ResetBits>
 80041de:	f240 40a6 	movw	r0, #1190	; 0x4a6
 80041e2:	f7fe fd49 	bl	8002c78 <delay_loop>
 80041e6:	6820      	ldr	r0, [r4, #0]
 80041e8:	88a1      	ldrh	r1, [r4, #4]
 80041ea:	f7fd fc13 	bl	8001a14 <GPIO_SetBits>
 80041ee:	2022      	movs	r0, #34	; 0x22
 80041f0:	e8bd 4038 	ldmia.w	sp!, {r3, r4, r5, lr}
 80041f4:	f7fe bd40 	b.w	8002c78 <delay_loop>
 80041f8:	f7fd fc48 	bl	8001a8c <GPIO_ResetBits>
 80041fc:	2055      	movs	r0, #85	; 0x55
 80041fe:	f7fe fd3b 	bl	8002c78 <delay_loop>
 8004202:	6820      	ldr	r0, [r4, #0]
 8004204:	88a1      	ldrh	r1, [r4, #4]
 8004206:	f7fd fc05 	bl	8001a14 <GPIO_SetBits>
 800420a:	f240 40a6 	movw	r0, #1190	; 0x4a6
 800420e:	f7fe fd33 	bl	8002c78 <delay_loop>
 8004212:	e7bf      	b.n	8004194 <temp_write_byte+0x130>
 8004214:	f7fd fc3a 	bl	8001a8c <GPIO_ResetBits>
 8004218:	2055      	movs	r0, #85	; 0x55
 800421a:	f7fe fd2d 	bl	8002c78 <delay_loop>
 800421e:	6820      	ldr	r0, [r4, #0]
 8004220:	88a1      	ldrh	r1, [r4, #4]
 8004222:	f7fd fbf7 	bl	8001a14 <GPIO_SetBits>
 8004226:	f240 40a6 	movw	r0, #1190	; 0x4a6
 800422a:	f7fe fd25 	bl	8002c78 <delay_loop>
 800422e:	e79d      	b.n	800416c <temp_write_byte+0x108>
 8004230:	f7fd fc2c 	bl	8001a8c <GPIO_ResetBits>
 8004234:	2055      	movs	r0, #85	; 0x55
 8004236:	f7fe fd1f 	bl	8002c78 <delay_loop>
 800423a:	6820      	ldr	r0, [r4, #0]
 800423c:	88a1      	ldrh	r1, [r4, #4]
 800423e:	f7fd fbe9 	bl	8001a14 <GPIO_SetBits>
 8004242:	f240 40a6 	movw	r0, #1190	; 0x4a6
 8004246:	f7fe fd17 	bl	8002c78 <delay_loop>
 800424a:	e77b      	b.n	8004144 <temp_write_byte+0xe0>
 800424c:	f7fd fc1e 	bl	8001a8c <GPIO_ResetBits>
 8004250:	2055      	movs	r0, #85	; 0x55
 8004252:	f7fe fd11 	bl	8002c78 <delay_loop>
 8004256:	6820      	ldr	r0, [r4, #0]
 8004258:	88a1      	ldrh	r1, [r4, #4]
 800425a:	f7fd fbdb 	bl	8001a14 <GPIO_SetBits>
 800425e:	f240 40a6 	movw	r0, #1190	; 0x4a6
 8004262:	f7fe fd09 	bl	8002c78 <delay_loop>
 8004266:	e758      	b.n	800411a <temp_write_byte+0xb6>
 8004268:	f7fd fc10 	bl	8001a8c <GPIO_ResetBits>
 800426c:	2055      	movs	r0, #85	; 0x55
 800426e:	f7fe fd03 	bl	8002c78 <delay_loop>
 8004272:	6820      	ldr	r0, [r4, #0]
 8004274:	88a1      	ldrh	r1, [r4, #4]
 8004276:	f7fd fbcd 	bl	8001a14 <GPIO_SetBits>
 800427a:	f240 40a6 	movw	r0, #1190	; 0x4a6
 800427e:	f7fe fcfb 	bl	8002c78 <delay_loop>
 8004282:	e735      	b.n	80040f0 <temp_write_byte+0x8c>
 8004284:	f7fd fc02 	bl	8001a8c <GPIO_ResetBits>
 8004288:	2055      	movs	r0, #85	; 0x55
 800428a:	f7fe fcf5 	bl	8002c78 <delay_loop>
 800428e:	6820      	ldr	r0, [r4, #0]
 8004290:	88a1      	ldrh	r1, [r4, #4]
 8004292:	f7fd fbbf 	bl	8001a14 <GPIO_SetBits>
 8004296:	f240 40a6 	movw	r0, #1190	; 0x4a6
 800429a:	f7fe fced 	bl	8002c78 <delay_loop>
 800429e:	e712      	b.n	80040c6 <temp_write_byte+0x62>
 80042a0:	200001bc 	.word	0x200001bc

080042a4 <temp_trig>:
 80042a4:	b508      	push	{r3, lr}
 80042a6:	f7ff fe53 	bl	8003f50 <ds18b20_reset>
 80042aa:	20cc      	movs	r0, #204	; 0xcc
 80042ac:	f7ff feda 	bl	8004064 <temp_write_byte>
 80042b0:	2044      	movs	r0, #68	; 0x44
 80042b2:	e8bd 4008 	ldmia.w	sp!, {r3, lr}
 80042b6:	f7ff bed5 	b.w	8004064 <temp_write_byte>
 80042ba:	bf00      	nop

080042bc <get_temp_>:
 80042bc:	b510      	push	{r4, lr}
 80042be:	f7ff fff1 	bl	80042a4 <temp_trig>
 80042c2:	f246 6040 	movw	r0, #26176	; 0x6640
 80042c6:	f2c0 1003 	movt	r0, #259	; 0x103
 80042ca:	f7fe fcd5 	bl	8002c78 <delay_loop>
 80042ce:	f7ff fe3f 	bl	8003f50 <ds18b20_reset>
 80042d2:	20cc      	movs	r0, #204	; 0xcc
 80042d4:	f7ff fec6 	bl	8004064 <temp_write_byte>
 80042d8:	20be      	movs	r0, #190	; 0xbe
 80042da:	f7ff fec3 	bl	8004064 <temp_write_byte>
 80042de:	f7ff fe8d 	bl	8003ffc <temp_read_byte>
 80042e2:	4604      	mov	r4, r0
 80042e4:	f7ff fe8a 	bl	8003ffc <temp_read_byte>
 80042e8:	ea44 2000 	orr.w	r0, r4, r0, lsl #8
 80042ec:	bd10      	pop	{r4, pc}
 80042ee:	bf00      	nop

080042f0 <usb_init>:
 80042f0:	b508      	push	{r3, lr}
 80042f2:	f000 f8bb 	bl	800446c <Set_System>
 80042f6:	f000 f86d 	bl	80043d4 <USB_Interrupts_Config>
 80042fa:	f000 f85f 	bl	80043bc <Set_USBClock>
 80042fe:	f000 fe1d 	bl	8004f3c <USB_Init>
 8004302:	f648 40e4 	movw	r0, #36068	; 0x8ce4
 8004306:	f6c0 0000 	movt	r0, #2048	; 0x800
 800430a:	2101      	movs	r1, #1
 800430c:	2200      	movs	r2, #0
 800430e:	f001 fc63 	bl	8005bd8 <rt_sem_create>
 8004312:	f640 139c 	movw	r3, #2460	; 0x99c
 8004316:	f2c2 0300 	movt	r3, #8192	; 0x2000
 800431a:	6018      	str	r0, [r3, #0]
 800431c:	bd08      	pop	{r3, pc}
 800431e:	bf00      	nop

08004320 <Delay>:
 8004320:	b082      	sub	sp, #8
 8004322:	9001      	str	r0, [sp, #4]
 8004324:	9a01      	ldr	r2, [sp, #4]
 8004326:	4b06      	ldr	r3, [pc, #24]	; (8004340 <Delay+0x20>)
 8004328:	601a      	str	r2, [r3, #0]
 800432a:	9801      	ldr	r0, [sp, #4]
 800432c:	b128      	cbz	r0, 800433a <Delay+0x1a>
 800432e:	9901      	ldr	r1, [sp, #4]
 8004330:	1e4a      	subs	r2, r1, #1
 8004332:	9201      	str	r2, [sp, #4]
 8004334:	9b01      	ldr	r3, [sp, #4]
 8004336:	2b00      	cmp	r3, #0
 8004338:	d1f9      	bne.n	800432e <Delay+0xe>
 800433a:	b002      	add	sp, #8
 800433c:	4770      	bx	lr
 800433e:	bf00      	nop
 8004340:	20000994 	.word	0x20000994

08004344 <IntToUnicode>:
 8004344:	b470      	push	{r4, r5, r6}
 8004346:	b38a      	cbz	r2, 80043ac <IntToUnicode+0x68>
 8004348:	1e56      	subs	r6, r2, #1
 800434a:	b2f2      	uxtb	r2, r6
 800434c:	1c53      	adds	r3, r2, #1
 800434e:	005e      	lsls	r6, r3, #1
 8004350:	0f03      	lsrs	r3, r0, #28
 8004352:	1eb2      	subs	r2, r6, #2
 8004354:	2400      	movs	r4, #0
 8004356:	2b09      	cmp	r3, #9
 8004358:	f3c2 0240 	ubfx	r2, r2, #1, #1
 800435c:	d928      	bls.n	80043b0 <IntToUnicode+0x6c>
 800435e:	3337      	adds	r3, #55	; 0x37
 8004360:	700b      	strb	r3, [r1, #0]
 8004362:	2302      	movs	r3, #2
 8004364:	0100      	lsls	r0, r0, #4
 8004366:	42b3      	cmp	r3, r6
 8004368:	704c      	strb	r4, [r1, #1]
 800436a:	d01f      	beq.n	80043ac <IntToUnicode+0x68>
 800436c:	b152      	cbz	r2, 8004384 <IntToUnicode+0x40>
 800436e:	0f02      	lsrs	r2, r0, #28
 8004370:	2a09      	cmp	r2, #9
 8004372:	d913      	bls.n	800439c <IntToUnicode+0x58>
 8004374:	3237      	adds	r2, #55	; 0x37
 8004376:	54ca      	strb	r2, [r1, r3]
 8004378:	18ca      	adds	r2, r1, r3
 800437a:	3302      	adds	r3, #2
 800437c:	0100      	lsls	r0, r0, #4
 800437e:	42b3      	cmp	r3, r6
 8004380:	7054      	strb	r4, [r2, #1]
 8004382:	d013      	beq.n	80043ac <IntToUnicode+0x68>
 8004384:	0f05      	lsrs	r5, r0, #28
 8004386:	2d09      	cmp	r5, #9
 8004388:	d815      	bhi.n	80043b6 <IntToUnicode+0x72>
 800438a:	3530      	adds	r5, #48	; 0x30
 800438c:	54cd      	strb	r5, [r1, r3]
 800438e:	0100      	lsls	r0, r0, #4
 8004390:	0f02      	lsrs	r2, r0, #28
 8004392:	18cd      	adds	r5, r1, r3
 8004394:	3302      	adds	r3, #2
 8004396:	2a09      	cmp	r2, #9
 8004398:	706c      	strb	r4, [r5, #1]
 800439a:	d8eb      	bhi.n	8004374 <IntToUnicode+0x30>
 800439c:	3230      	adds	r2, #48	; 0x30
 800439e:	54ca      	strb	r2, [r1, r3]
 80043a0:	18ca      	adds	r2, r1, r3
 80043a2:	3302      	adds	r3, #2
 80043a4:	0100      	lsls	r0, r0, #4
 80043a6:	42b3      	cmp	r3, r6
 80043a8:	7054      	strb	r4, [r2, #1]
 80043aa:	d1eb      	bne.n	8004384 <IntToUnicode+0x40>
 80043ac:	bc70      	pop	{r4, r5, r6}
 80043ae:	4770      	bx	lr
 80043b0:	3330      	adds	r3, #48	; 0x30
 80043b2:	700b      	strb	r3, [r1, #0]
 80043b4:	e7d5      	b.n	8004362 <IntToUnicode+0x1e>
 80043b6:	3537      	adds	r5, #55	; 0x37
 80043b8:	54cd      	strb	r5, [r1, r3]
 80043ba:	e7e8      	b.n	800438e <IntToUnicode+0x4a>

080043bc <Set_USBClock>:
 80043bc:	2000      	movs	r0, #0
 80043be:	b508      	push	{r3, lr}
 80043c0:	f7fc fb6a 	bl	8000a98 <RCC_USBCLKConfig>
 80043c4:	f44f 0000 	mov.w	r0, #8388608	; 0x800000
 80043c8:	2101      	movs	r1, #1
 80043ca:	e8bd 4008 	ldmia.w	sp!, {r3, lr}
 80043ce:	f7fc bc3d 	b.w	8000c4c <RCC_APB1PeriphClockCmd>
 80043d2:	bf00      	nop

080043d4 <USB_Interrupts_Config>:
 80043d4:	b530      	push	{r4, r5, lr}
 80043d6:	f44f 60a0 	mov.w	r0, #1280	; 0x500
 80043da:	b083      	sub	sp, #12
 80043dc:	f7fe f9c2 	bl	8002764 <NVIC_PriorityGroupConfig>
 80043e0:	2401      	movs	r4, #1
 80043e2:	2500      	movs	r5, #0
 80043e4:	a801      	add	r0, sp, #4
 80043e6:	2314      	movs	r3, #20
 80043e8:	f88d 3004 	strb.w	r3, [sp, #4]
 80043ec:	f88d 4005 	strb.w	r4, [sp, #5]
 80043f0:	f88d 5006 	strb.w	r5, [sp, #6]
 80043f4:	f88d 4007 	strb.w	r4, [sp, #7]
 80043f8:	f7fe f9d6 	bl	80027a8 <NVIC_Init>
 80043fc:	212a      	movs	r1, #42	; 0x2a
 80043fe:	a801      	add	r0, sp, #4
 8004400:	f88d 1004 	strb.w	r1, [sp, #4]
 8004404:	f88d 5005 	strb.w	r5, [sp, #5]
 8004408:	f88d 4007 	strb.w	r4, [sp, #7]
 800440c:	f7fe f9cc 	bl	80027a8 <NVIC_Init>
 8004410:	b003      	add	sp, #12
 8004412:	bd30      	pop	{r4, r5, pc}

08004414 <USB_Cable_Config>:
 8004414:	b938      	cbnz	r0, 8004426 <USB_Cable_Config+0x12>
 8004416:	f44f 50a0 	mov.w	r0, #5120	; 0x1400
 800441a:	f2c4 0001 	movt	r0, #16385	; 0x4001
 800441e:	f44f 7100 	mov.w	r1, #512	; 0x200
 8004422:	f7fd baf7 	b.w	8001a14 <GPIO_SetBits>
 8004426:	f44f 50a0 	mov.w	r0, #5120	; 0x1400
 800442a:	f2c4 0001 	movt	r0, #16385	; 0x4001
 800442e:	f44f 7100 	mov.w	r1, #512	; 0x200
 8004432:	f7fd bb2b 	b.w	8001a8c <GPIO_ResetBits>
 8004436:	bf00      	nop

08004438 <GPIO_Configuration>:
 8004438:	b500      	push	{lr}
 800443a:	2020      	movs	r0, #32
 800443c:	b083      	sub	sp, #12
 800443e:	2101      	movs	r1, #1
 8004440:	f7fc fbd8 	bl	8000bf4 <RCC_APB2PeriphClockCmd>
 8004444:	f44f 7300 	mov.w	r3, #512	; 0x200
 8004448:	f44f 50a0 	mov.w	r0, #5120	; 0x1400
 800444c:	f8ad 3004 	strh.w	r3, [sp, #4]
 8004450:	2203      	movs	r2, #3
 8004452:	2314      	movs	r3, #20
 8004454:	f2c4 0001 	movt	r0, #16385	; 0x4001
 8004458:	a901      	add	r1, sp, #4
 800445a:	f88d 2006 	strb.w	r2, [sp, #6]
 800445e:	f88d 3007 	strb.w	r3, [sp, #7]
 8004462:	f7fd f8d5 	bl	8001610 <GPIO_Init>
 8004466:	b003      	add	sp, #12
 8004468:	bd00      	pop	{pc}
 800446a:	bf00      	nop

0800446c <Set_System>:
 800446c:	b508      	push	{r3, lr}
 800446e:	2020      	movs	r0, #32
 8004470:	2101      	movs	r1, #1
 8004472:	f7fc fbbf 	bl	8000bf4 <RCC_APB2PeriphClockCmd>
 8004476:	f44f 4040 	mov.w	r0, #49152	; 0xc000
 800447a:	f7fc fb1d 	bl	8000ab8 <RCC_ADCCLKConfig>
 800447e:	e8bd 4008 	ldmia.w	sp!, {r3, lr}
 8004482:	f7ff bfd9 	b.w	8004438 <GPIO_Configuration>
 8004486:	bf00      	nop

08004488 <Get_SerialNum>:
 8004488:	f24f 72e8 	movw	r2, #63464	; 0xf7e8
 800448c:	f24f 73f0 	movw	r3, #63472	; 0xf7f0
 8004490:	f6c1 72ff 	movt	r2, #8191	; 0x1fff
 8004494:	f6c1 73ff 	movt	r3, #8191	; 0x1fff
 8004498:	6810      	ldr	r0, [r2, #0]
 800449a:	681a      	ldr	r2, [r3, #0]
 800449c:	f24f 71ec 	movw	r1, #63468	; 0xf7ec
 80044a0:	f6c1 71ff 	movt	r1, #8191	; 0x1fff
 80044a4:	1880      	adds	r0, r0, r2
 80044a6:	b510      	push	{r4, lr}
 80044a8:	680c      	ldr	r4, [r1, #0]
 80044aa:	d100      	bne.n	80044ae <Get_SerialNum+0x26>
 80044ac:	bd10      	pop	{r4, pc}
 80044ae:	2208      	movs	r2, #8
 80044b0:	4904      	ldr	r1, [pc, #16]	; (80044c4 <Get_SerialNum+0x3c>)
 80044b2:	f7ff ff47 	bl	8004344 <IntToUnicode>
 80044b6:	4904      	ldr	r1, [pc, #16]	; (80044c8 <Get_SerialNum+0x40>)
 80044b8:	4620      	mov	r0, r4
 80044ba:	2204      	movs	r2, #4
 80044bc:	e8bd 4010 	ldmia.w	sp!, {r4, lr}
 80044c0:	f7ff bf40 	b.w	8004344 <IntToUnicode>
 80044c4:	200001da 	.word	0x200001da
 80044c8:	200001ea 	.word	0x200001ea

080044cc <STM_EVAL_LEDOn>:
 80044cc:	f240 12c8 	movw	r2, #456	; 0x1c8
 80044d0:	f648 43e8 	movw	r3, #36072	; 0x8ce8
 80044d4:	f2c2 0200 	movt	r2, #8192	; 0x2000
 80044d8:	f6c0 0300 	movt	r3, #2048	; 0x800
 80044dc:	f852 1020 	ldr.w	r1, [r2, r0, lsl #2]
 80044e0:	f833 0010 	ldrh.w	r0, [r3, r0, lsl #1]
 80044e4:	6108      	str	r0, [r1, #16]
 80044e6:	4770      	bx	lr

080044e8 <STM_EVAL_LEDOff>:
 80044e8:	f240 12c8 	movw	r2, #456	; 0x1c8
 80044ec:	f648 43e8 	movw	r3, #36072	; 0x8ce8
 80044f0:	f2c2 0200 	movt	r2, #8192	; 0x2000
 80044f4:	f6c0 0300 	movt	r3, #2048	; 0x800
 80044f8:	f852 1020 	ldr.w	r1, [r2, r0, lsl #2]
 80044fc:	f833 0010 	ldrh.w	r0, [r3, r0, lsl #1]
 8004500:	6148      	str	r0, [r1, #20]
 8004502:	4770      	bx	lr

08004504 <USB_LP_CAN1_RX0_IRQHandler>:
 8004504:	f000 be16 	b.w	8005134 <USB_Istr>

08004508 <USBWakeUp_IRQHandler>:
 8004508:	f44f 2080 	mov.w	r0, #262144	; 0x40000
 800450c:	f7fc bbcc 	b.w	8000ca8 <EXTI_ClearITPendingBit>

08004510 <Standard_GetConfiguration>:
 8004510:	b508      	push	{r3, lr}
 8004512:	b138      	cbz	r0, 8004524 <Standard_GetConfiguration+0x14>
 8004514:	4b06      	ldr	r3, [pc, #24]	; (8004530 <Standard_GetConfiguration+0x20>)
 8004516:	6818      	ldr	r0, [r3, #0]
 8004518:	6801      	ldr	r1, [r0, #0]
 800451a:	4788      	blx	r1
 800451c:	4a05      	ldr	r2, [pc, #20]	; (8004534 <Standard_GetConfiguration+0x24>)
 800451e:	6810      	ldr	r0, [r2, #0]
 8004520:	300a      	adds	r0, #10
 8004522:	bd08      	pop	{r3, pc}
 8004524:	4b03      	ldr	r3, [pc, #12]	; (8004534 <Standard_GetConfiguration+0x24>)
 8004526:	2201      	movs	r2, #1
 8004528:	6819      	ldr	r1, [r3, #0]
 800452a:	820a      	strh	r2, [r1, #16]
 800452c:	bd08      	pop	{r3, pc}
 800452e:	bf00      	nop
 8004530:	20001c64 	.word	0x20001c64
 8004534:	20001c68 	.word	0x20001c68

08004538 <Standard_GetInterface>:
 8004538:	b508      	push	{r3, lr}
 800453a:	b138      	cbz	r0, 800454c <Standard_GetInterface+0x14>
 800453c:	4b06      	ldr	r3, [pc, #24]	; (8004558 <Standard_GetInterface+0x20>)
 800453e:	6818      	ldr	r0, [r3, #0]
 8004540:	6881      	ldr	r1, [r0, #8]
 8004542:	4788      	blx	r1
 8004544:	4a05      	ldr	r2, [pc, #20]	; (800455c <Standard_GetInterface+0x24>)
 8004546:	6810      	ldr	r0, [r2, #0]
 8004548:	300c      	adds	r0, #12
 800454a:	bd08      	pop	{r3, pc}
 800454c:	4b03      	ldr	r3, [pc, #12]	; (800455c <Standard_GetInterface+0x24>)
 800454e:	2201      	movs	r2, #1
 8004550:	6819      	ldr	r1, [r3, #0]
 8004552:	820a      	strh	r2, [r1, #16]
 8004554:	bd08      	pop	{r3, pc}
 8004556:	bf00      	nop
 8004558:	20001c64 	.word	0x20001c64
 800455c:	20001c68 	.word	0x20001c68

08004560 <Standard_GetStatus>:
 8004560:	b508      	push	{r3, lr}
 8004562:	2800      	cmp	r0, #0
 8004564:	d03b      	beq.n	80045de <Standard_GetStatus+0x7e>
 8004566:	4b23      	ldr	r3, [pc, #140]	; (80045f4 <Standard_GetStatus+0x94>)
 8004568:	4823      	ldr	r0, [pc, #140]	; (80045f8 <Standard_GetStatus+0x98>)
 800456a:	2100      	movs	r1, #0
 800456c:	681a      	ldr	r2, [r3, #0]
 800456e:	8001      	strh	r1, [r0, #0]
 8004570:	7813      	ldrb	r3, [r2, #0]
 8004572:	f013 037f 	ands.w	r3, r3, #127	; 0x7f
 8004576:	d112      	bne.n	800459e <Standard_GetStatus+0x3e>
 8004578:	7a53      	ldrb	r3, [r2, #9]
 800457a:	f003 0220 	and.w	r2, r3, #32
 800457e:	b2d1      	uxtb	r1, r2
 8004580:	bb59      	cbnz	r1, 80045da <Standard_GetStatus+0x7a>
 8004582:	7802      	ldrb	r2, [r0, #0]
 8004584:	f003 0340 	and.w	r3, r3, #64	; 0x40
 8004588:	b2d9      	uxtb	r1, r3
 800458a:	b311      	cbz	r1, 80045d2 <Standard_GetStatus+0x72>
 800458c:	f042 0301 	orr.w	r3, r2, #1
 8004590:	7003      	strb	r3, [r0, #0]
 8004592:	481a      	ldr	r0, [pc, #104]	; (80045fc <Standard_GetStatus+0x9c>)
 8004594:	6801      	ldr	r1, [r0, #0]
 8004596:	690a      	ldr	r2, [r1, #16]
 8004598:	4790      	blx	r2
 800459a:	4817      	ldr	r0, [pc, #92]	; (80045f8 <Standard_GetStatus+0x98>)
 800459c:	bd08      	pop	{r3, pc}
 800459e:	2b01      	cmp	r3, #1
 80045a0:	d016      	beq.n	80045d0 <Standard_GetStatus+0x70>
 80045a2:	2b02      	cmp	r3, #2
 80045a4:	d113      	bne.n	80045ce <Standard_GetStatus+0x6e>
 80045a6:	7951      	ldrb	r1, [r2, #5]
 80045a8:	f001 020f 	and.w	r2, r1, #15
 80045ac:	0093      	lsls	r3, r2, #2
 80045ae:	f103 4280 	add.w	r2, r3, #1073741824	; 0x40000000
 80045b2:	f502 43b8 	add.w	r3, r2, #23552	; 0x5c00
 80045b6:	f011 0f80 	tst.w	r1, #128	; 0x80
 80045ba:	6819      	ldr	r1, [r3, #0]
 80045bc:	d114      	bne.n	80045e8 <Standard_GetStatus+0x88>
 80045be:	f401 5240 	and.w	r2, r1, #12288	; 0x3000
 80045c2:	f5b2 5f80 	cmp.w	r2, #4096	; 0x1000
 80045c6:	d1e4      	bne.n	8004592 <Standard_GetStatus+0x32>
 80045c8:	2101      	movs	r1, #1
 80045ca:	7001      	strb	r1, [r0, #0]
 80045cc:	e7e1      	b.n	8004592 <Standard_GetStatus+0x32>
 80045ce:	4608      	mov	r0, r1
 80045d0:	bd08      	pop	{r3, pc}
 80045d2:	f022 0201 	bic.w	r2, r2, #1
 80045d6:	7002      	strb	r2, [r0, #0]
 80045d8:	e7db      	b.n	8004592 <Standard_GetStatus+0x32>
 80045da:	2202      	movs	r2, #2
 80045dc:	e7d2      	b.n	8004584 <Standard_GetStatus+0x24>
 80045de:	4b05      	ldr	r3, [pc, #20]	; (80045f4 <Standard_GetStatus+0x94>)
 80045e0:	2202      	movs	r2, #2
 80045e2:	6819      	ldr	r1, [r3, #0]
 80045e4:	820a      	strh	r2, [r1, #16]
 80045e6:	bd08      	pop	{r3, pc}
 80045e8:	f001 0330 	and.w	r3, r1, #48	; 0x30
 80045ec:	2b10      	cmp	r3, #16
 80045ee:	d1d0      	bne.n	8004592 <Standard_GetStatus+0x32>
 80045f0:	e7ea      	b.n	80045c8 <Standard_GetStatus+0x68>
 80045f2:	bf00      	nop
 80045f4:	20001c68 	.word	0x20001c68
 80045f8:	20001c38 	.word	0x20001c38
 80045fc:	20001c64 	.word	0x20001c64

08004600 <DataStageIn>:
 8004600:	e92d 41f0 	stmdb	sp!, {r4, r5, r6, r7, r8, lr}
 8004604:	4e27      	ldr	r6, [pc, #156]	; (80046a4 <DataStageIn+0xa4>)
 8004606:	6834      	ldr	r4, [r6, #0]
 8004608:	8a23      	ldrh	r3, [r4, #16]
 800460a:	7a27      	ldrb	r7, [r4, #8]
 800460c:	b923      	cbnz	r3, 8004618 <DataStageIn+0x18>
 800460e:	2f04      	cmp	r7, #4
 8004610:	d02a      	beq.n	8004668 <DataStageIn+0x68>
 8004612:	8aa5      	ldrh	r5, [r4, #20]
 8004614:	2704      	movs	r7, #4
 8004616:	e003      	b.n	8004620 <DataStageIn+0x20>
 8004618:	8aa5      	ldrh	r5, [r4, #20]
 800461a:	42ab      	cmp	r3, r5
 800461c:	d9fa      	bls.n	8004614 <DataStageIn+0x14>
 800461e:	2702      	movs	r7, #2
 8004620:	429d      	cmp	r5, r3
 8004622:	bf28      	it	cs
 8004624:	461d      	movcs	r5, r3
 8004626:	69a1      	ldr	r1, [r4, #24]
 8004628:	4628      	mov	r0, r5
 800462a:	4788      	blx	r1
 800462c:	4680      	mov	r8, r0
 800462e:	2000      	movs	r0, #0
 8004630:	f001 f86a 	bl	8005708 <GetEPTxAddr>
 8004634:	462a      	mov	r2, r5
 8004636:	4601      	mov	r1, r0
 8004638:	4640      	mov	r0, r8
 800463a:	f000 fda7 	bl	800518c <UserToPMABufferCopy>
 800463e:	4629      	mov	r1, r5
 8004640:	2000      	movs	r0, #0
 8004642:	f001 f881 	bl	8005748 <SetEPTxCount>
 8004646:	8a20      	ldrh	r0, [r4, #16]
 8004648:	8a62      	ldrh	r2, [r4, #18]
 800464a:	1b43      	subs	r3, r0, r5
 800464c:	8223      	strh	r3, [r4, #16]
 800464e:	18ad      	adds	r5, r5, r2
 8004650:	4815      	ldr	r0, [pc, #84]	; (80046a8 <DataStageIn+0xa8>)
 8004652:	4b16      	ldr	r3, [pc, #88]	; (80046ac <DataStageIn+0xac>)
 8004654:	8265      	strh	r5, [r4, #18]
 8004656:	2130      	movs	r1, #48	; 0x30
 8004658:	f44f 5240 	mov.w	r2, #12288	; 0x3000
 800465c:	6834      	ldr	r4, [r6, #0]
 800465e:	8001      	strh	r1, [r0, #0]
 8004660:	801a      	strh	r2, [r3, #0]
 8004662:	7227      	strb	r7, [r4, #8]
 8004664:	e8bd 81f0 	ldmia.w	sp!, {r4, r5, r6, r7, r8, pc}
 8004668:	4a11      	ldr	r2, [pc, #68]	; (80046b0 <DataStageIn+0xb0>)
 800466a:	7811      	ldrb	r1, [r2, #0]
 800466c:	2901      	cmp	r1, #1
 800466e:	d006      	beq.n	800467e <DataStageIn+0x7e>
 8004670:	480d      	ldr	r0, [pc, #52]	; (80046a8 <DataStageIn+0xa8>)
 8004672:	2710      	movs	r7, #16
 8004674:	8007      	strh	r7, [r0, #0]
 8004676:	2707      	movs	r7, #7
 8004678:	7227      	strb	r7, [r4, #8]
 800467a:	e8bd 81f0 	ldmia.w	sp!, {r4, r5, r6, r7, r8, pc}
 800467e:	f645 4150 	movw	r1, #23632	; 0x5c50
 8004682:	f2c4 0100 	movt	r1, #16384	; 0x4000
 8004686:	6808      	ldr	r0, [r1, #0]
 8004688:	f243 0102 	movw	r1, #12290	; 0x3002
 800468c:	b280      	uxth	r0, r0
 800468e:	f2c2 0100 	movt	r1, #8192	; 0x2000
 8004692:	1841      	adds	r1, r0, r1
 8004694:	0048      	lsls	r0, r1, #1
 8004696:	4904      	ldr	r1, [pc, #16]	; (80046a8 <DataStageIn+0xa8>)
 8004698:	6003      	str	r3, [r0, #0]
 800469a:	2030      	movs	r0, #48	; 0x30
 800469c:	8008      	strh	r0, [r1, #0]
 800469e:	7013      	strb	r3, [r2, #0]
 80046a0:	e7df      	b.n	8004662 <DataStageIn+0x62>
 80046a2:	bf00      	nop
 80046a4:	20001c68 	.word	0x20001c68
 80046a8:	20001c70 	.word	0x20001c70
 80046ac:	20001c6e 	.word	0x20001c6e
 80046b0:	20000998 	.word	0x20000998

080046b4 <Standard_SetConfiguration>:
 80046b4:	b510      	push	{r4, lr}
 80046b6:	4b0b      	ldr	r3, [pc, #44]	; (80046e4 <Standard_SetConfiguration+0x30>)
 80046b8:	4a0b      	ldr	r2, [pc, #44]	; (80046e8 <Standard_SetConfiguration+0x34>)
 80046ba:	6818      	ldr	r0, [r3, #0]
 80046bc:	7851      	ldrb	r1, [r2, #1]
 80046be:	78c3      	ldrb	r3, [r0, #3]
 80046c0:	4299      	cmp	r1, r3
 80046c2:	d201      	bcs.n	80046c8 <Standard_SetConfiguration+0x14>
 80046c4:	2002      	movs	r0, #2
 80046c6:	bd10      	pop	{r4, pc}
 80046c8:	7882      	ldrb	r2, [r0, #2]
 80046ca:	2a00      	cmp	r2, #0
 80046cc:	d1fa      	bne.n	80046c4 <Standard_SetConfiguration+0x10>
 80046ce:	8884      	ldrh	r4, [r0, #4]
 80046d0:	2c00      	cmp	r4, #0
 80046d2:	d1f7      	bne.n	80046c4 <Standard_SetConfiguration+0x10>
 80046d4:	7283      	strb	r3, [r0, #10]
 80046d6:	4805      	ldr	r0, [pc, #20]	; (80046ec <Standard_SetConfiguration+0x38>)
 80046d8:	6801      	ldr	r1, [r0, #0]
 80046da:	684b      	ldr	r3, [r1, #4]
 80046dc:	4798      	blx	r3
 80046de:	4620      	mov	r0, r4
 80046e0:	bd10      	pop	{r4, pc}
 80046e2:	bf00      	nop
 80046e4:	20001c68 	.word	0x20001c68
 80046e8:	200002c0 	.word	0x200002c0
 80046ec:	20001c64 	.word	0x20001c64

080046f0 <Standard_SetInterface>:
 80046f0:	b538      	push	{r3, r4, r5, lr}
 80046f2:	4a10      	ldr	r2, [pc, #64]	; (8004734 <Standard_SetInterface+0x44>)
 80046f4:	4c10      	ldr	r4, [pc, #64]	; (8004738 <Standard_SetInterface+0x48>)
 80046f6:	6811      	ldr	r1, [r2, #0]
 80046f8:	6823      	ldr	r3, [r4, #0]
 80046fa:	698a      	ldr	r2, [r1, #24]
 80046fc:	7958      	ldrb	r0, [r3, #5]
 80046fe:	78d9      	ldrb	r1, [r3, #3]
 8004700:	4790      	blx	r2
 8004702:	6823      	ldr	r3, [r4, #0]
 8004704:	7a99      	ldrb	r1, [r3, #10]
 8004706:	b909      	cbnz	r1, 800470c <Standard_SetInterface+0x1c>
 8004708:	2002      	movs	r0, #2
 800470a:	bd38      	pop	{r3, r4, r5, pc}
 800470c:	2800      	cmp	r0, #0
 800470e:	d1fb      	bne.n	8004708 <Standard_SetInterface+0x18>
 8004710:	7918      	ldrb	r0, [r3, #4]
 8004712:	2800      	cmp	r0, #0
 8004714:	d1f8      	bne.n	8004708 <Standard_SetInterface+0x18>
 8004716:	789d      	ldrb	r5, [r3, #2]
 8004718:	2d00      	cmp	r5, #0
 800471a:	d1f5      	bne.n	8004708 <Standard_SetInterface+0x18>
 800471c:	4a07      	ldr	r2, [pc, #28]	; (800473c <Standard_SetInterface+0x4c>)
 800471e:	6813      	ldr	r3, [r2, #0]
 8004720:	68d9      	ldr	r1, [r3, #12]
 8004722:	4788      	blx	r1
 8004724:	6823      	ldr	r3, [r4, #0]
 8004726:	4628      	mov	r0, r5
 8004728:	7959      	ldrb	r1, [r3, #5]
 800472a:	78da      	ldrb	r2, [r3, #3]
 800472c:	72d9      	strb	r1, [r3, #11]
 800472e:	731a      	strb	r2, [r3, #12]
 8004730:	bd38      	pop	{r3, r4, r5, pc}
 8004732:	bf00      	nop
 8004734:	20001c40 	.word	0x20001c40
 8004738:	20001c68 	.word	0x20001c68
 800473c:	20001c64 	.word	0x20001c64

08004740 <Standard_ClearFeature>:
 8004740:	b538      	push	{r3, r4, r5, lr}
 8004742:	4b35      	ldr	r3, [pc, #212]	; (8004818 <Standard_ClearFeature+0xd8>)
 8004744:	681b      	ldr	r3, [r3, #0]
 8004746:	7818      	ldrb	r0, [r3, #0]
 8004748:	f010 007f 	ands.w	r0, r0, #127	; 0x7f
 800474c:	d003      	beq.n	8004756 <Standard_ClearFeature+0x16>
 800474e:	2802      	cmp	r0, #2
 8004750:	d006      	beq.n	8004760 <Standard_ClearFeature+0x20>
 8004752:	2002      	movs	r0, #2
 8004754:	bd38      	pop	{r3, r4, r5, pc}
 8004756:	7a5a      	ldrb	r2, [r3, #9]
 8004758:	f022 0120 	bic.w	r1, r2, #32
 800475c:	7259      	strb	r1, [r3, #9]
 800475e:	bd38      	pop	{r3, r4, r5, pc}
 8004760:	885a      	ldrh	r2, [r3, #2]
 8004762:	2a00      	cmp	r2, #0
 8004764:	d1f6      	bne.n	8004754 <Standard_ClearFeature+0x14>
 8004766:	7919      	ldrb	r1, [r3, #4]
 8004768:	2900      	cmp	r1, #0
 800476a:	d1f3      	bne.n	8004754 <Standard_ClearFeature+0x14>
 800476c:	795a      	ldrb	r2, [r3, #5]
 800476e:	f022 0080 	bic.w	r0, r2, #128	; 0x80
 8004772:	0081      	lsls	r1, r0, #2
 8004774:	f101 4480 	add.w	r4, r1, #1073741824	; 0x40000000
 8004778:	0615      	lsls	r5, r2, #24
 800477a:	f504 44b8 	add.w	r4, r4, #23552	; 0x5c00
 800477e:	bf56      	itet	pl
 8004780:	6824      	ldrpl	r4, [r4, #0]
 8004782:	6825      	ldrmi	r5, [r4, #0]
 8004784:	f404 5540 	andpl.w	r5, r4, #12288	; 0x3000
 8004788:	4c24      	ldr	r4, [pc, #144]	; (800481c <Standard_ClearFeature+0xdc>)
 800478a:	bf48      	it	mi
 800478c:	f005 0530 	andmi.w	r5, r5, #48	; 0x30
 8004790:	7824      	ldrb	r4, [r4, #0]
 8004792:	42a0      	cmp	r0, r4
 8004794:	d2dd      	bcs.n	8004752 <Standard_ClearFeature+0x12>
 8004796:	2d00      	cmp	r5, #0
 8004798:	d0db      	beq.n	8004752 <Standard_ClearFeature+0x12>
 800479a:	7a9b      	ldrb	r3, [r3, #10]
 800479c:	2b00      	cmp	r3, #0
 800479e:	d0d8      	beq.n	8004752 <Standard_ClearFeature+0x12>
 80047a0:	f002 0280 	and.w	r2, r2, #128	; 0x80
 80047a4:	b2d3      	uxtb	r3, r2
 80047a6:	b173      	cbz	r3, 80047c6 <Standard_ClearFeature+0x86>
 80047a8:	f101 4280 	add.w	r2, r1, #1073741824	; 0x40000000
 80047ac:	f502 43b8 	add.w	r3, r2, #23552	; 0x5c00
 80047b0:	6819      	ldr	r1, [r3, #0]
 80047b2:	f001 0230 	and.w	r2, r1, #48	; 0x30
 80047b6:	2a10      	cmp	r2, #16
 80047b8:	d021      	beq.n	80047fe <Standard_ClearFeature+0xbe>
 80047ba:	4819      	ldr	r0, [pc, #100]	; (8004820 <Standard_ClearFeature+0xe0>)
 80047bc:	6803      	ldr	r3, [r0, #0]
 80047be:	6959      	ldr	r1, [r3, #20]
 80047c0:	4788      	blx	r1
 80047c2:	2000      	movs	r0, #0
 80047c4:	bd38      	pop	{r3, r4, r5, pc}
 80047c6:	f101 4180 	add.w	r1, r1, #1073741824	; 0x40000000
 80047ca:	f501 44b8 	add.w	r4, r1, #23552	; 0x5c00
 80047ce:	6822      	ldr	r2, [r4, #0]
 80047d0:	f402 5340 	and.w	r3, r2, #12288	; 0x3000
 80047d4:	f5b3 5f80 	cmp.w	r3, #4096	; 0x1000
 80047d8:	d1ef      	bne.n	80047ba <Standard_ClearFeature+0x7a>
 80047da:	b9c8      	cbnz	r0, 8004810 <Standard_ClearFeature+0xd0>
 80047dc:	4911      	ldr	r1, [pc, #68]	; (8004824 <Standard_ClearFeature+0xe4>)
 80047de:	f891 102c 	ldrb.w	r1, [r1, #44]	; 0x2c
 80047e2:	f000 ffc1 	bl	8005768 <SetEPRxCount>
 80047e6:	6820      	ldr	r0, [r4, #0]
 80047e8:	f64b 728f 	movw	r2, #49039	; 0xbf8f
 80047ec:	4002      	ands	r2, r0
 80047ee:	f482 5340 	eor.w	r3, r2, #12288	; 0x3000
 80047f2:	f443 4100 	orr.w	r1, r3, #32768	; 0x8000
 80047f6:	f041 0080 	orr.w	r0, r1, #128	; 0x80
 80047fa:	6020      	str	r0, [r4, #0]
 80047fc:	e7dd      	b.n	80047ba <Standard_ClearFeature+0x7a>
 80047fe:	b2c4      	uxtb	r4, r0
 8004800:	4620      	mov	r0, r4
 8004802:	f000 ff49 	bl	8005698 <ClearDTOG_TX>
 8004806:	4620      	mov	r0, r4
 8004808:	2130      	movs	r1, #48	; 0x30
 800480a:	f000 febf 	bl	800558c <SetEPTxStatus>
 800480e:	e7d4      	b.n	80047ba <Standard_ClearFeature+0x7a>
 8004810:	f000 ff30 	bl	8005674 <ClearDTOG_RX>
 8004814:	e7e7      	b.n	80047e6 <Standard_ClearFeature+0xa6>
 8004816:	bf00      	nop
 8004818:	20001c68 	.word	0x20001c68
 800481c:	200002c0 	.word	0x200002c0
 8004820:	20001c64 	.word	0x20001c64
 8004824:	20000234 	.word	0x20000234

08004828 <Standard_SetEndPointFeature>:
 8004828:	b538      	push	{r3, r4, r5, lr}
 800482a:	4b22      	ldr	r3, [pc, #136]	; (80048b4 <Standard_SetEndPointFeature+0x8c>)
 800482c:	6819      	ldr	r1, [r3, #0]
 800482e:	794b      	ldrb	r3, [r1, #5]
 8004830:	f023 0280 	bic.w	r2, r3, #128	; 0x80
 8004834:	0090      	lsls	r0, r2, #2
 8004836:	f100 4480 	add.w	r4, r0, #1073741824	; 0x40000000
 800483a:	061d      	lsls	r5, r3, #24
 800483c:	f504 44b8 	add.w	r4, r4, #23552	; 0x5c00
 8004840:	bf56      	itet	pl
 8004842:	6824      	ldrpl	r4, [r4, #0]
 8004844:	6825      	ldrmi	r5, [r4, #0]
 8004846:	f404 5540 	andpl.w	r5, r4, #12288	; 0x3000
 800484a:	4c1b      	ldr	r4, [pc, #108]	; (80048b8 <Standard_SetEndPointFeature+0x90>)
 800484c:	bf48      	it	mi
 800484e:	f005 0530 	andmi.w	r5, r5, #48	; 0x30
 8004852:	7824      	ldrb	r4, [r4, #0]
 8004854:	42a2      	cmp	r2, r4
 8004856:	d301      	bcc.n	800485c <Standard_SetEndPointFeature+0x34>
 8004858:	2002      	movs	r0, #2
 800485a:	bd38      	pop	{r3, r4, r5, pc}
 800485c:	884a      	ldrh	r2, [r1, #2]
 800485e:	2a00      	cmp	r2, #0
 8004860:	d1fa      	bne.n	8004858 <Standard_SetEndPointFeature+0x30>
 8004862:	2d00      	cmp	r5, #0
 8004864:	d0f8      	beq.n	8004858 <Standard_SetEndPointFeature+0x30>
 8004866:	7a89      	ldrb	r1, [r1, #10]
 8004868:	2900      	cmp	r1, #0
 800486a:	d0f5      	beq.n	8004858 <Standard_SetEndPointFeature+0x30>
 800486c:	f003 0380 	and.w	r3, r3, #128	; 0x80
 8004870:	f100 4080 	add.w	r0, r0, #1073741824	; 0x40000000
 8004874:	f500 42b8 	add.w	r2, r0, #23552	; 0x5c00
 8004878:	b2db      	uxtb	r3, r3
 800487a:	6811      	ldr	r1, [r2, #0]
 800487c:	b17b      	cbz	r3, 800489e <Standard_SetEndPointFeature+0x76>
 800487e:	f648 70bf 	movw	r0, #36799	; 0x8fbf
 8004882:	4008      	ands	r0, r1
 8004884:	f080 0110 	eor.w	r1, r0, #16
 8004888:	f441 4300 	orr.w	r3, r1, #32768	; 0x8000
 800488c:	f043 0080 	orr.w	r0, r3, #128	; 0x80
 8004890:	6010      	str	r0, [r2, #0]
 8004892:	4a0a      	ldr	r2, [pc, #40]	; (80048bc <Standard_SetEndPointFeature+0x94>)
 8004894:	6811      	ldr	r1, [r2, #0]
 8004896:	698b      	ldr	r3, [r1, #24]
 8004898:	4798      	blx	r3
 800489a:	2000      	movs	r0, #0
 800489c:	bd38      	pop	{r3, r4, r5, pc}
 800489e:	f64b 738f 	movw	r3, #49039	; 0xbf8f
 80048a2:	400b      	ands	r3, r1
 80048a4:	f483 5080 	eor.w	r0, r3, #4096	; 0x1000
 80048a8:	f440 4100 	orr.w	r1, r0, #32768	; 0x8000
 80048ac:	f041 0380 	orr.w	r3, r1, #128	; 0x80
 80048b0:	6013      	str	r3, [r2, #0]
 80048b2:	e7ee      	b.n	8004892 <Standard_SetEndPointFeature+0x6a>
 80048b4:	20001c68 	.word	0x20001c68
 80048b8:	200002c0 	.word	0x200002c0
 80048bc:	20001c64 	.word	0x20001c64

080048c0 <Standard_GetDescriptorData>:
 80048c0:	4b05      	ldr	r3, [pc, #20]	; (80048d8 <Standard_GetDescriptorData+0x18>)
 80048c2:	681b      	ldr	r3, [r3, #0]
 80048c4:	8a5a      	ldrh	r2, [r3, #18]
 80048c6:	b110      	cbz	r0, 80048ce <Standard_GetDescriptorData+0xe>
 80048c8:	6808      	ldr	r0, [r1, #0]
 80048ca:	1880      	adds	r0, r0, r2
 80048cc:	4770      	bx	lr
 80048ce:	8889      	ldrh	r1, [r1, #4]
 80048d0:	1a8a      	subs	r2, r1, r2
 80048d2:	821a      	strh	r2, [r3, #16]
 80048d4:	4770      	bx	lr
 80048d6:	bf00      	nop
 80048d8:	20001c68 	.word	0x20001c68

080048dc <Post0_Process>:
 80048dc:	b508      	push	{r3, lr}
 80048de:	4b0c      	ldr	r3, [pc, #48]	; (8004910 <Post0_Process+0x34>)
 80048e0:	2000      	movs	r0, #0
 80048e2:	f893 102c 	ldrb.w	r1, [r3, #44]	; 0x2c
 80048e6:	f000 ff3f 	bl	8005768 <SetEPRxCount>
 80048ea:	480a      	ldr	r0, [pc, #40]	; (8004914 <Post0_Process+0x38>)
 80048ec:	6801      	ldr	r1, [r0, #0]
 80048ee:	7a08      	ldrb	r0, [r1, #8]
 80048f0:	2808      	cmp	r0, #8
 80048f2:	d106      	bne.n	8004902 <Post0_Process+0x26>
 80048f4:	4b08      	ldr	r3, [pc, #32]	; (8004918 <Post0_Process+0x3c>)
 80048f6:	f44f 5280 	mov.w	r2, #4096	; 0x1000
 80048fa:	801a      	strh	r2, [r3, #0]
 80048fc:	4a07      	ldr	r2, [pc, #28]	; (800491c <Post0_Process+0x40>)
 80048fe:	2110      	movs	r1, #16
 8004900:	8011      	strh	r1, [r2, #0]
 8004902:	f1b0 0c09 	subs.w	ip, r0, #9
 8004906:	f1dc 0000 	rsbs	r0, ip, #0
 800490a:	eb50 000c 	adcs.w	r0, r0, ip
 800490e:	bd08      	pop	{r3, pc}
 8004910:	20000234 	.word	0x20000234
 8004914:	20001c68 	.word	0x20001c68
 8004918:	20001c6e 	.word	0x20001c6e
 800491c:	20001c70 	.word	0x20001c70

08004920 <Out0_Process>:
 8004920:	b5f8      	push	{r3, r4, r5, r6, r7, lr}
 8004922:	4d34      	ldr	r5, [pc, #208]	; (80049f4 <Out0_Process+0xd4>)
 8004924:	682c      	ldr	r4, [r5, #0]
 8004926:	7a23      	ldrb	r3, [r4, #8]
 8004928:	2b02      	cmp	r3, #2
 800492a:	d007      	beq.n	800493c <Out0_Process+0x1c>
 800492c:	2b04      	cmp	r3, #4
 800492e:	d005      	beq.n	800493c <Out0_Process+0x1c>
 8004930:	2b03      	cmp	r3, #3
 8004932:	d009      	beq.n	8004948 <Out0_Process+0x28>
 8004934:	2b05      	cmp	r3, #5
 8004936:	d007      	beq.n	8004948 <Out0_Process+0x28>
 8004938:	2b07      	cmp	r3, #7
 800493a:	d00e      	beq.n	800495a <Out0_Process+0x3a>
 800493c:	2208      	movs	r2, #8
 800493e:	7222      	strb	r2, [r4, #8]
 8004940:	e8bd 40f8 	ldmia.w	sp!, {r3, r4, r5, r6, r7, lr}
 8004944:	f7ff bfca 	b.w	80048dc <Post0_Process>
 8004948:	69a1      	ldr	r1, [r4, #24]
 800494a:	8a20      	ldrh	r0, [r4, #16]
 800494c:	b311      	cbz	r1, 8004994 <Out0_Process+0x74>
 800494e:	b958      	cbnz	r0, 8004968 <Out0_Process+0x48>
 8004950:	8aa4      	ldrh	r4, [r4, #20]
 8004952:	2c00      	cmp	r4, #0
 8004954:	d045      	beq.n	80049e2 <Out0_Process+0xc2>
 8004956:	4a28      	ldr	r2, [pc, #160]	; (80049f8 <Out0_Process+0xd8>)
 8004958:	e02e      	b.n	80049b8 <Out0_Process+0x98>
 800495a:	4828      	ldr	r0, [pc, #160]	; (80049fc <Out0_Process+0xdc>)
 800495c:	6801      	ldr	r1, [r0, #0]
 800495e:	68ca      	ldr	r2, [r1, #12]
 8004960:	4790      	blx	r2
 8004962:	682c      	ldr	r4, [r5, #0]
 8004964:	2208      	movs	r2, #8
 8004966:	e7ea      	b.n	800493e <Out0_Process+0x1e>
 8004968:	8aa6      	ldrh	r6, [r4, #20]
 800496a:	4286      	cmp	r6, r0
 800496c:	bf28      	it	cs
 800496e:	4606      	movcs	r6, r0
 8004970:	4630      	mov	r0, r6
 8004972:	4788      	blx	r1
 8004974:	8a63      	ldrh	r3, [r4, #18]
 8004976:	4607      	mov	r7, r0
 8004978:	8a20      	ldrh	r0, [r4, #16]
 800497a:	18f1      	adds	r1, r6, r3
 800497c:	1b82      	subs	r2, r0, r6
 800497e:	8222      	strh	r2, [r4, #16]
 8004980:	8261      	strh	r1, [r4, #18]
 8004982:	2000      	movs	r0, #0
 8004984:	f000 fed0 	bl	8005728 <GetEPRxAddr>
 8004988:	4632      	mov	r2, r6
 800498a:	4601      	mov	r1, r0
 800498c:	4638      	mov	r0, r7
 800498e:	f000 fc39 	bl	8005204 <PMAToUserBufferCopy>
 8004992:	8a20      	ldrh	r0, [r4, #16]
 8004994:	2800      	cmp	r0, #0
 8004996:	d0db      	beq.n	8004950 <Out0_Process+0x30>
 8004998:	2000      	movs	r0, #0
 800499a:	4b19      	ldr	r3, [pc, #100]	; (8004a00 <Out0_Process+0xe0>)
 800499c:	4601      	mov	r1, r0
 800499e:	f44f 5240 	mov.w	r2, #12288	; 0x3000
 80049a2:	801a      	strh	r2, [r3, #0]
 80049a4:	f000 fed0 	bl	8005748 <SetEPTxCount>
 80049a8:	8a23      	ldrh	r3, [r4, #16]
 80049aa:	8aa1      	ldrh	r1, [r4, #20]
 80049ac:	4a12      	ldr	r2, [pc, #72]	; (80049f8 <Out0_Process+0xd8>)
 80049ae:	2030      	movs	r0, #48	; 0x30
 80049b0:	4299      	cmp	r1, r3
 80049b2:	8010      	strh	r0, [r2, #0]
 80049b4:	d915      	bls.n	80049e2 <Out0_Process+0xc2>
 80049b6:	b9c3      	cbnz	r3, 80049ea <Out0_Process+0xca>
 80049b8:	682c      	ldr	r4, [r5, #0]
 80049ba:	2106      	movs	r1, #6
 80049bc:	f645 4350 	movw	r3, #23632	; 0x5c50
 80049c0:	7221      	strb	r1, [r4, #8]
 80049c2:	f2c4 0300 	movt	r3, #16384	; 0x4000
 80049c6:	6818      	ldr	r0, [r3, #0]
 80049c8:	f243 0302 	movw	r3, #12290	; 0x3002
 80049cc:	b281      	uxth	r1, r0
 80049ce:	f2c2 0300 	movt	r3, #8192	; 0x2000
 80049d2:	18c8      	adds	r0, r1, r3
 80049d4:	0043      	lsls	r3, r0, #1
 80049d6:	2100      	movs	r1, #0
 80049d8:	6019      	str	r1, [r3, #0]
 80049da:	2030      	movs	r0, #48	; 0x30
 80049dc:	8010      	strh	r0, [r2, #0]
 80049de:	7a22      	ldrb	r2, [r4, #8]
 80049e0:	e7ad      	b.n	800493e <Out0_Process+0x1e>
 80049e2:	682c      	ldr	r4, [r5, #0]
 80049e4:	2203      	movs	r2, #3
 80049e6:	7222      	strb	r2, [r4, #8]
 80049e8:	e7a9      	b.n	800493e <Out0_Process+0x1e>
 80049ea:	682c      	ldr	r4, [r5, #0]
 80049ec:	2205      	movs	r2, #5
 80049ee:	7222      	strb	r2, [r4, #8]
 80049f0:	e7a5      	b.n	800493e <Out0_Process+0x1e>
 80049f2:	bf00      	nop
 80049f4:	20001c68 	.word	0x20001c68
 80049f8:	20001c70 	.word	0x20001c70
 80049fc:	20001c40 	.word	0x20001c40
 8004a00:	20001c6e 	.word	0x20001c6e

08004a04 <Setup0_Process>:
 8004a04:	b570      	push	{r4, r5, r6, lr}
 8004a06:	f645 4350 	movw	r3, #23632	; 0x5c50
 8004a0a:	4d9f      	ldr	r5, [pc, #636]	; (8004c88 <Setup0_Process+0x284>)
 8004a0c:	f2c4 0300 	movt	r3, #16384	; 0x4000
 8004a10:	681a      	ldr	r2, [r3, #0]
 8004a12:	682c      	ldr	r4, [r5, #0]
 8004a14:	f243 0004 	movw	r0, #12292	; 0x3004
 8004a18:	b291      	uxth	r1, r2
 8004a1a:	f2c2 0000 	movt	r0, #8192	; 0x2000
 8004a1e:	7a22      	ldrb	r2, [r4, #8]
 8004a20:	180e      	adds	r6, r1, r0
 8004a22:	0073      	lsls	r3, r6, #1
 8004a24:	2a09      	cmp	r2, #9
 8004a26:	b082      	sub	sp, #8
 8004a28:	681e      	ldr	r6, [r3, #0]
 8004a2a:	d045      	beq.n	8004ab8 <Setup0_Process+0xb4>
 8004a2c:	b2b0      	uxth	r0, r6
 8004a2e:	0041      	lsls	r1, r0, #1
 8004a30:	f101 4680 	add.w	r6, r1, #1073741824	; 0x40000000
 8004a34:	f506 46c0 	add.w	r6, r6, #24576	; 0x6000
 8004a38:	7832      	ldrb	r2, [r6, #0]
 8004a3a:	7022      	strb	r2, [r4, #0]
 8004a3c:	7873      	ldrb	r3, [r6, #1]
 8004a3e:	7063      	strb	r3, [r4, #1]
 8004a40:	88b0      	ldrh	r0, [r6, #4]
 8004a42:	f000 fec5 	bl	80057d0 <ByteSwap>
 8004a46:	8060      	strh	r0, [r4, #2]
 8004a48:	8930      	ldrh	r0, [r6, #8]
 8004a4a:	682c      	ldr	r4, [r5, #0]
 8004a4c:	f000 fec0 	bl	80057d0 <ByteSwap>
 8004a50:	80a0      	strh	r0, [r4, #4]
 8004a52:	89b0      	ldrh	r0, [r6, #12]
 8004a54:	682c      	ldr	r4, [r5, #0]
 8004a56:	2101      	movs	r1, #1
 8004a58:	80e0      	strh	r0, [r4, #6]
 8004a5a:	7221      	strb	r1, [r4, #8]
 8004a5c:	2800      	cmp	r0, #0
 8004a5e:	d030      	beq.n	8004ac2 <Setup0_Process+0xbe>
 8004a60:	7861      	ldrb	r1, [r4, #1]
 8004a62:	2906      	cmp	r1, #6
 8004a64:	f000 8087 	beq.w	8004b76 <Setup0_Process+0x172>
 8004a68:	2900      	cmp	r1, #0
 8004a6a:	d15e      	bne.n	8004b2a <Setup0_Process+0x126>
 8004a6c:	8863      	ldrh	r3, [r4, #2]
 8004a6e:	2b00      	cmp	r3, #0
 8004a70:	f000 8094 	beq.w	8004b9c <Setup0_Process+0x198>
 8004a74:	4e85      	ldr	r6, [pc, #532]	; (8004c8c <Setup0_Process+0x288>)
 8004a76:	6833      	ldr	r3, [r6, #0]
 8004a78:	4608      	mov	r0, r1
 8004a7a:	6919      	ldr	r1, [r3, #16]
 8004a7c:	4788      	blx	r1
 8004a7e:	2803      	cmp	r0, #3
 8004a80:	682b      	ldr	r3, [r5, #0]
 8004a82:	d062      	beq.n	8004b4a <Setup0_Process+0x146>
 8004a84:	8a1a      	ldrh	r2, [r3, #16]
 8004a86:	f64f 71ff 	movw	r1, #65535	; 0xffff
 8004a8a:	428a      	cmp	r2, r1
 8004a8c:	d05d      	beq.n	8004b4a <Setup0_Process+0x146>
 8004a8e:	2802      	cmp	r0, #2
 8004a90:	d00c      	beq.n	8004aac <Setup0_Process+0xa8>
 8004a92:	b15a      	cbz	r2, 8004aac <Setup0_Process+0xa8>
 8004a94:	f993 1000 	ldrsb.w	r1, [r3]
 8004a98:	2900      	cmp	r1, #0
 8004a9a:	f2c0 80b5 	blt.w	8004c08 <Setup0_Process+0x204>
 8004a9e:	2203      	movs	r2, #3
 8004aa0:	721a      	strb	r2, [r3, #8]
 8004aa2:	4b7b      	ldr	r3, [pc, #492]	; (8004c90 <Setup0_Process+0x28c>)
 8004aa4:	f44f 5040 	mov.w	r0, #12288	; 0x3000
 8004aa8:	8018      	strh	r0, [r3, #0]
 8004aaa:	e001      	b.n	8004ab0 <Setup0_Process+0xac>
 8004aac:	2008      	movs	r0, #8
 8004aae:	7218      	strb	r0, [r3, #8]
 8004ab0:	f7ff ff14 	bl	80048dc <Post0_Process>
 8004ab4:	b002      	add	sp, #8
 8004ab6:	bd70      	pop	{r4, r5, r6, pc}
 8004ab8:	88e0      	ldrh	r0, [r4, #6]
 8004aba:	2101      	movs	r1, #1
 8004abc:	7221      	strb	r1, [r4, #8]
 8004abe:	2800      	cmp	r0, #0
 8004ac0:	d1ce      	bne.n	8004a60 <Setup0_Process+0x5c>
 8004ac2:	7823      	ldrb	r3, [r4, #0]
 8004ac4:	7866      	ldrb	r6, [r4, #1]
 8004ac6:	f013 027f 	ands.w	r2, r3, #127	; 0x7f
 8004aca:	d141      	bne.n	8004b50 <Setup0_Process+0x14c>
 8004acc:	2e09      	cmp	r6, #9
 8004ace:	f000 80fd 	beq.w	8004ccc <Setup0_Process+0x2c8>
 8004ad2:	2e05      	cmp	r6, #5
 8004ad4:	f000 80bf 	beq.w	8004c56 <Setup0_Process+0x252>
 8004ad8:	2e03      	cmp	r6, #3
 8004ada:	f000 80e5 	beq.w	8004ca8 <Setup0_Process+0x2a4>
 8004ade:	2e01      	cmp	r6, #1
 8004ae0:	d13b      	bne.n	8004b5a <Setup0_Process+0x156>
 8004ae2:	78e0      	ldrb	r0, [r4, #3]
 8004ae4:	2801      	cmp	r0, #1
 8004ae6:	d138      	bne.n	8004b5a <Setup0_Process+0x156>
 8004ae8:	88a1      	ldrh	r1, [r4, #4]
 8004aea:	2900      	cmp	r1, #0
 8004aec:	d135      	bne.n	8004b5a <Setup0_Process+0x156>
 8004aee:	7a64      	ldrb	r4, [r4, #9]
 8004af0:	f004 0320 	and.w	r3, r4, #32
 8004af4:	b2da      	uxtb	r2, r3
 8004af6:	2a00      	cmp	r2, #0
 8004af8:	d02f      	beq.n	8004b5a <Setup0_Process+0x156>
 8004afa:	f7ff fe21 	bl	8004740 <Standard_ClearFeature>
 8004afe:	bb60      	cbnz	r0, 8004b5a <Setup0_Process+0x156>
 8004b00:	682c      	ldr	r4, [r5, #0]
 8004b02:	f645 4050 	movw	r0, #23632	; 0x5c50
 8004b06:	f2c4 0000 	movt	r0, #16384	; 0x4000
 8004b0a:	6801      	ldr	r1, [r0, #0]
 8004b0c:	f243 0302 	movw	r3, #12290	; 0x3002
 8004b10:	b28a      	uxth	r2, r1
 8004b12:	f2c2 0300 	movt	r3, #8192	; 0x2000
 8004b16:	18d0      	adds	r0, r2, r3
 8004b18:	0041      	lsls	r1, r0, #1
 8004b1a:	2300      	movs	r3, #0
 8004b1c:	4a5d      	ldr	r2, [pc, #372]	; (8004c94 <Setup0_Process+0x290>)
 8004b1e:	600b      	str	r3, [r1, #0]
 8004b20:	2030      	movs	r0, #48	; 0x30
 8004b22:	2106      	movs	r1, #6
 8004b24:	8010      	strh	r0, [r2, #0]
 8004b26:	7221      	strb	r1, [r4, #8]
 8004b28:	e7c2      	b.n	8004ab0 <Setup0_Process+0xac>
 8004b2a:	2908      	cmp	r1, #8
 8004b2c:	d148      	bne.n	8004bc0 <Setup0_Process+0x1bc>
 8004b2e:	7820      	ldrb	r0, [r4, #0]
 8004b30:	0643      	lsls	r3, r0, #25
 8004b32:	d19f      	bne.n	8004a74 <Setup0_Process+0x70>
 8004b34:	4a58      	ldr	r2, [pc, #352]	; (8004c98 <Setup0_Process+0x294>)
 8004b36:	2000      	movs	r0, #0
 8004b38:	61a2      	str	r2, [r4, #24]
 8004b3a:	8260      	strh	r0, [r4, #18]
 8004b3c:	4790      	blx	r2
 8004b3e:	682b      	ldr	r3, [r5, #0]
 8004b40:	f64f 70ff 	movw	r0, #65535	; 0xffff
 8004b44:	8a1a      	ldrh	r2, [r3, #16]
 8004b46:	4282      	cmp	r2, r0
 8004b48:	d1a3      	bne.n	8004a92 <Setup0_Process+0x8e>
 8004b4a:	2109      	movs	r1, #9
 8004b4c:	7219      	strb	r1, [r3, #8]
 8004b4e:	e7af      	b.n	8004ab0 <Setup0_Process+0xac>
 8004b50:	2a01      	cmp	r2, #1
 8004b52:	d071      	beq.n	8004c38 <Setup0_Process+0x234>
 8004b54:	2a02      	cmp	r2, #2
 8004b56:	f000 808d 	beq.w	8004c74 <Setup0_Process+0x270>
 8004b5a:	4c4c      	ldr	r4, [pc, #304]	; (8004c8c <Setup0_Process+0x288>)
 8004b5c:	4630      	mov	r0, r6
 8004b5e:	6823      	ldr	r3, [r4, #0]
 8004b60:	695a      	ldr	r2, [r3, #20]
 8004b62:	4790      	blx	r2
 8004b64:	2803      	cmp	r0, #3
 8004b66:	f000 80ba 	beq.w	8004cde <Setup0_Process+0x2da>
 8004b6a:	682c      	ldr	r4, [r5, #0]
 8004b6c:	2800      	cmp	r0, #0
 8004b6e:	d0c8      	beq.n	8004b02 <Setup0_Process+0xfe>
 8004b70:	2108      	movs	r1, #8
 8004b72:	7221      	strb	r1, [r4, #8]
 8004b74:	e79c      	b.n	8004ab0 <Setup0_Process+0xac>
 8004b76:	7826      	ldrb	r6, [r4, #0]
 8004b78:	0673      	lsls	r3, r6, #25
 8004b7a:	f47f af7b 	bne.w	8004a74 <Setup0_Process+0x70>
 8004b7e:	78a2      	ldrb	r2, [r4, #2]
 8004b80:	4e42      	ldr	r6, [pc, #264]	; (8004c8c <Setup0_Process+0x288>)
 8004b82:	2a01      	cmp	r2, #1
 8004b84:	f000 80a5 	beq.w	8004cd2 <Setup0_Process+0x2ce>
 8004b88:	2a02      	cmp	r2, #2
 8004b8a:	d05e      	beq.n	8004c4a <Setup0_Process+0x246>
 8004b8c:	2a03      	cmp	r2, #3
 8004b8e:	f47f af72 	bne.w	8004a76 <Setup0_Process+0x72>
 8004b92:	6830      	ldr	r0, [r6, #0]
 8004b94:	6a42      	ldr	r2, [r0, #36]	; 0x24
 8004b96:	2a00      	cmp	r2, #0
 8004b98:	d1cd      	bne.n	8004b36 <Setup0_Process+0x132>
 8004b9a:	e76c      	b.n	8004a76 <Setup0_Process+0x72>
 8004b9c:	6860      	ldr	r0, [r4, #4]
 8004b9e:	f420 427f 	bic.w	r2, r0, #65280	; 0xff00
 8004ba2:	f5b2 3f00 	cmp.w	r2, #131072	; 0x20000
 8004ba6:	f47f af65 	bne.w	8004a74 <Setup0_Process+0x70>
 8004baa:	7823      	ldrb	r3, [r4, #0]
 8004bac:	f013 007f 	ands.w	r0, r3, #127	; 0x7f
 8004bb0:	f040 8099 	bne.w	8004ce6 <Setup0_Process+0x2e2>
 8004bb4:	88a3      	ldrh	r3, [r4, #4]
 8004bb6:	2b00      	cmp	r3, #0
 8004bb8:	f47f af5c 	bne.w	8004a74 <Setup0_Process+0x70>
 8004bbc:	4a37      	ldr	r2, [pc, #220]	; (8004c9c <Setup0_Process+0x298>)
 8004bbe:	e7ba      	b.n	8004b36 <Setup0_Process+0x132>
 8004bc0:	290a      	cmp	r1, #10
 8004bc2:	f47f af57 	bne.w	8004a74 <Setup0_Process+0x70>
 8004bc6:	7826      	ldrb	r6, [r4, #0]
 8004bc8:	f006 027f 	and.w	r2, r6, #127	; 0x7f
 8004bcc:	2a01      	cmp	r2, #1
 8004bce:	f47f af51 	bne.w	8004a74 <Setup0_Process+0x70>
 8004bd2:	7aa3      	ldrb	r3, [r4, #10]
 8004bd4:	2b00      	cmp	r3, #0
 8004bd6:	f43f af4d 	beq.w	8004a74 <Setup0_Process+0x70>
 8004bda:	8863      	ldrh	r3, [r4, #2]
 8004bdc:	2b00      	cmp	r3, #0
 8004bde:	f47f af49 	bne.w	8004a74 <Setup0_Process+0x70>
 8004be2:	6860      	ldr	r0, [r4, #4]
 8004be4:	4e29      	ldr	r6, [pc, #164]	; (8004c8c <Setup0_Process+0x288>)
 8004be6:	f420 427f 	bic.w	r2, r0, #65280	; 0xff00
 8004bea:	f5b2 3f80 	cmp.w	r2, #65536	; 0x10000
 8004bee:	f47f af42 	bne.w	8004a76 <Setup0_Process+0x72>
 8004bf2:	6832      	ldr	r2, [r6, #0]
 8004bf4:	4619      	mov	r1, r3
 8004bf6:	7960      	ldrb	r0, [r4, #5]
 8004bf8:	6993      	ldr	r3, [r2, #24]
 8004bfa:	4798      	blx	r3
 8004bfc:	2800      	cmp	r0, #0
 8004bfe:	f040 80ad 	bne.w	8004d5c <Setup0_Process+0x358>
 8004c02:	682c      	ldr	r4, [r5, #0]
 8004c04:	4a26      	ldr	r2, [pc, #152]	; (8004ca0 <Setup0_Process+0x29c>)
 8004c06:	e796      	b.n	8004b36 <Setup0_Process+0x132>
 8004c08:	88d9      	ldrh	r1, [r3, #6]
 8004c0a:	9101      	str	r1, [sp, #4]
 8004c0c:	9801      	ldr	r0, [sp, #4]
 8004c0e:	4282      	cmp	r2, r0
 8004c10:	d817      	bhi.n	8004c42 <Setup0_Process+0x23e>
 8004c12:	428a      	cmp	r2, r1
 8004c14:	491d      	ldr	r1, [pc, #116]	; (8004c8c <Setup0_Process+0x288>)
 8004c16:	d208      	bcs.n	8004c2a <Setup0_Process+0x226>
 8004c18:	6808      	ldr	r0, [r1, #0]
 8004c1a:	f890 002c 	ldrb.w	r0, [r0, #44]	; 0x2c
 8004c1e:	4282      	cmp	r2, r0
 8004c20:	f080 8084 	bcs.w	8004d2c <Setup0_Process+0x328>
 8004c24:	4a1f      	ldr	r2, [pc, #124]	; (8004ca4 <Setup0_Process+0x2a0>)
 8004c26:	2000      	movs	r0, #0
 8004c28:	7010      	strb	r0, [r2, #0]
 8004c2a:	6809      	ldr	r1, [r1, #0]
 8004c2c:	f891 202c 	ldrb.w	r2, [r1, #44]	; 0x2c
 8004c30:	829a      	strh	r2, [r3, #20]
 8004c32:	f7ff fce5 	bl	8004600 <DataStageIn>
 8004c36:	e73b      	b.n	8004ab0 <Setup0_Process+0xac>
 8004c38:	2e0b      	cmp	r6, #11
 8004c3a:	d18e      	bne.n	8004b5a <Setup0_Process+0x156>
 8004c3c:	f7ff fd58 	bl	80046f0 <Standard_SetInterface>
 8004c40:	e75d      	b.n	8004afe <Setup0_Process+0xfa>
 8004c42:	9801      	ldr	r0, [sp, #4]
 8004c44:	4911      	ldr	r1, [pc, #68]	; (8004c8c <Setup0_Process+0x288>)
 8004c46:	8218      	strh	r0, [r3, #16]
 8004c48:	e7ef      	b.n	8004c2a <Setup0_Process+0x226>
 8004c4a:	6833      	ldr	r3, [r6, #0]
 8004c4c:	6a1a      	ldr	r2, [r3, #32]
 8004c4e:	2a00      	cmp	r2, #0
 8004c50:	f47f af71 	bne.w	8004b36 <Setup0_Process+0x132>
 8004c54:	e70f      	b.n	8004a76 <Setup0_Process+0x72>
 8004c56:	f994 3003 	ldrsb.w	r3, [r4, #3]
 8004c5a:	2b00      	cmp	r3, #0
 8004c5c:	db88      	blt.n	8004b70 <Setup0_Process+0x16c>
 8004c5e:	78a2      	ldrb	r2, [r4, #2]
 8004c60:	2a00      	cmp	r2, #0
 8004c62:	d185      	bne.n	8004b70 <Setup0_Process+0x16c>
 8004c64:	88a0      	ldrh	r0, [r4, #4]
 8004c66:	2800      	cmp	r0, #0
 8004c68:	d182      	bne.n	8004b70 <Setup0_Process+0x16c>
 8004c6a:	7aa1      	ldrb	r1, [r4, #10]
 8004c6c:	2900      	cmp	r1, #0
 8004c6e:	f43f af48 	beq.w	8004b02 <Setup0_Process+0xfe>
 8004c72:	e77d      	b.n	8004b70 <Setup0_Process+0x16c>
 8004c74:	2e01      	cmp	r6, #1
 8004c76:	f43f af40 	beq.w	8004afa <Setup0_Process+0xf6>
 8004c7a:	2e03      	cmp	r6, #3
 8004c7c:	f47f af6d 	bne.w	8004b5a <Setup0_Process+0x156>
 8004c80:	f7ff fdd2 	bl	8004828 <Standard_SetEndPointFeature>
 8004c84:	e73b      	b.n	8004afe <Setup0_Process+0xfa>
 8004c86:	bf00      	nop
 8004c88:	20001c68 	.word	0x20001c68
 8004c8c:	20001c40 	.word	0x20001c40
 8004c90:	20001c6e 	.word	0x20001c6e
 8004c94:	20001c70 	.word	0x20001c70
 8004c98:	08004511 	.word	0x08004511
 8004c9c:	08004561 	.word	0x08004561
 8004ca0:	08004539 	.word	0x08004539
 8004ca4:	20000998 	.word	0x20000998
 8004ca8:	78e0      	ldrb	r0, [r4, #3]
 8004caa:	2801      	cmp	r0, #1
 8004cac:	f47f af55 	bne.w	8004b5a <Setup0_Process+0x156>
 8004cb0:	88a1      	ldrh	r1, [r4, #4]
 8004cb2:	2900      	cmp	r1, #0
 8004cb4:	f47f af51 	bne.w	8004b5a <Setup0_Process+0x156>
 8004cb8:	7a63      	ldrb	r3, [r4, #9]
 8004cba:	482a      	ldr	r0, [pc, #168]	; (8004d64 <Setup0_Process+0x360>)
 8004cbc:	f043 0220 	orr.w	r2, r3, #32
 8004cc0:	6801      	ldr	r1, [r0, #0]
 8004cc2:	7262      	strb	r2, [r4, #9]
 8004cc4:	69cc      	ldr	r4, [r1, #28]
 8004cc6:	47a0      	blx	r4
 8004cc8:	682c      	ldr	r4, [r5, #0]
 8004cca:	e71a      	b.n	8004b02 <Setup0_Process+0xfe>
 8004ccc:	f7ff fcf2 	bl	80046b4 <Standard_SetConfiguration>
 8004cd0:	e715      	b.n	8004afe <Setup0_Process+0xfa>
 8004cd2:	6832      	ldr	r2, [r6, #0]
 8004cd4:	69d2      	ldr	r2, [r2, #28]
 8004cd6:	2a00      	cmp	r2, #0
 8004cd8:	f47f af2d 	bne.w	8004b36 <Setup0_Process+0x132>
 8004cdc:	e6cb      	b.n	8004a76 <Setup0_Process+0x72>
 8004cde:	682c      	ldr	r4, [r5, #0]
 8004ce0:	2109      	movs	r1, #9
 8004ce2:	7221      	strb	r1, [r4, #8]
 8004ce4:	e6e4      	b.n	8004ab0 <Setup0_Process+0xac>
 8004ce6:	2801      	cmp	r0, #1
 8004ce8:	d02b      	beq.n	8004d42 <Setup0_Process+0x33e>
 8004cea:	2802      	cmp	r0, #2
 8004cec:	f47f aec2 	bne.w	8004a74 <Setup0_Process+0x70>
 8004cf0:	7963      	ldrb	r3, [r4, #5]
 8004cf2:	f003 020f 	and.w	r2, r3, #15
 8004cf6:	0096      	lsls	r6, r2, #2
 8004cf8:	f106 4080 	add.w	r0, r6, #1073741824	; 0x40000000
 8004cfc:	f500 40b8 	add.w	r0, r0, #23552	; 0x5c00
 8004d00:	061e      	lsls	r6, r3, #24
 8004d02:	bf56      	itet	pl
 8004d04:	6800      	ldrpl	r0, [r0, #0]
 8004d06:	6806      	ldrmi	r6, [r0, #0]
 8004d08:	f400 5640 	andpl.w	r6, r0, #12288	; 0x3000
 8004d0c:	4816      	ldr	r0, [pc, #88]	; (8004d68 <Setup0_Process+0x364>)
 8004d0e:	bf48      	it	mi
 8004d10:	f006 0630 	andmi.w	r6, r6, #48	; 0x30
 8004d14:	7800      	ldrb	r0, [r0, #0]
 8004d16:	4282      	cmp	r2, r0
 8004d18:	f4bf aeac 	bcs.w	8004a74 <Setup0_Process+0x70>
 8004d1c:	f013 0f70 	tst.w	r3, #112	; 0x70
 8004d20:	f47f aea8 	bne.w	8004a74 <Setup0_Process+0x70>
 8004d24:	2e00      	cmp	r6, #0
 8004d26:	f47f af49 	bne.w	8004bbc <Setup0_Process+0x1b8>
 8004d2a:	e6a3      	b.n	8004a74 <Setup0_Process+0x70>
 8004d2c:	fb92 f4f0 	sdiv	r4, r2, r0
 8004d30:	fb00 2214 	mls	r2, r0, r4, r2
 8004d34:	2a00      	cmp	r2, #0
 8004d36:	f47f af78 	bne.w	8004c2a <Setup0_Process+0x226>
 8004d3a:	4a0c      	ldr	r2, [pc, #48]	; (8004d6c <Setup0_Process+0x368>)
 8004d3c:	2001      	movs	r0, #1
 8004d3e:	7010      	strb	r0, [r2, #0]
 8004d40:	e773      	b.n	8004c2a <Setup0_Process+0x226>
 8004d42:	4e0b      	ldr	r6, [pc, #44]	; (8004d70 <Setup0_Process+0x36c>)
 8004d44:	7960      	ldrb	r0, [r4, #5]
 8004d46:	6833      	ldr	r3, [r6, #0]
 8004d48:	699a      	ldr	r2, [r3, #24]
 8004d4a:	4790      	blx	r2
 8004d4c:	b930      	cbnz	r0, 8004d5c <Setup0_Process+0x358>
 8004d4e:	682c      	ldr	r4, [r5, #0]
 8004d50:	7aa0      	ldrb	r0, [r4, #10]
 8004d52:	2800      	cmp	r0, #0
 8004d54:	f47f af32 	bne.w	8004bbc <Setup0_Process+0x1b8>
 8004d58:	7861      	ldrb	r1, [r4, #1]
 8004d5a:	e68c      	b.n	8004a76 <Setup0_Process+0x72>
 8004d5c:	6829      	ldr	r1, [r5, #0]
 8004d5e:	7849      	ldrb	r1, [r1, #1]
 8004d60:	e689      	b.n	8004a76 <Setup0_Process+0x72>
 8004d62:	bf00      	nop
 8004d64:	20001c64 	.word	0x20001c64
 8004d68:	200002c0 	.word	0x200002c0
 8004d6c:	20000998 	.word	0x20000998
 8004d70:	20001c40 	.word	0x20001c40

08004d74 <SetDeviceAddress>:
 8004d74:	b4f0      	push	{r4, r5, r6, r7}
 8004d76:	4b28      	ldr	r3, [pc, #160]	; (8004e18 <SetDeviceAddress+0xa4>)
 8004d78:	781e      	ldrb	r6, [r3, #0]
 8004d7a:	2e00      	cmp	r6, #0
 8004d7c:	d043      	beq.n	8004e06 <SetDeviceAddress+0x92>
 8004d7e:	f44f 42b8 	mov.w	r2, #23552	; 0x5c00
 8004d82:	f2c4 0200 	movt	r2, #16384	; 0x4000
 8004d86:	6814      	ldr	r4, [r2, #0]
 8004d88:	f640 710f 	movw	r1, #3855	; 0xf0f
 8004d8c:	4021      	ands	r1, r4
 8004d8e:	f441 4300 	orr.w	r3, r1, #32768	; 0x8000
 8004d92:	f043 0180 	orr.w	r1, r3, #128	; 0x80
 8004d96:	6011      	str	r1, [r2, #0]
 8004d98:	2201      	movs	r2, #1
 8004d9a:	1e74      	subs	r4, r6, #1
 8004d9c:	f645 4304 	movw	r3, #23556	; 0x5c04
 8004da0:	4296      	cmp	r6, r2
 8004da2:	f004 0401 	and.w	r4, r4, #1
 8004da6:	f2c4 0300 	movt	r3, #16384	; 0x4000
 8004daa:	d92c      	bls.n	8004e06 <SetDeviceAddress+0x92>
 8004dac:	b17c      	cbz	r4, 8004dce <SetDeviceAddress+0x5a>
 8004dae:	6819      	ldr	r1, [r3, #0]
 8004db0:	f640 720f 	movw	r2, #3855	; 0xf0f
 8004db4:	400a      	ands	r2, r1
 8004db6:	f442 4100 	orr.w	r1, r2, #32768	; 0x8000
 8004dba:	f041 0281 	orr.w	r2, r1, #129	; 0x81
 8004dbe:	601a      	str	r2, [r3, #0]
 8004dc0:	2202      	movs	r2, #2
 8004dc2:	f645 4308 	movw	r3, #23560	; 0x5c08
 8004dc6:	4296      	cmp	r6, r2
 8004dc8:	f2c4 0300 	movt	r3, #16384	; 0x4000
 8004dcc:	d91b      	bls.n	8004e06 <SetDeviceAddress+0x92>
 8004dce:	681f      	ldr	r7, [r3, #0]
 8004dd0:	f442 4500 	orr.w	r5, r2, #32768	; 0x8000
 8004dd4:	f640 740f 	movw	r4, #3855	; 0xf0f
 8004dd8:	f045 0580 	orr.w	r5, r5, #128	; 0x80
 8004ddc:	403c      	ands	r4, r7
 8004dde:	ea45 0704 	orr.w	r7, r5, r4
 8004de2:	4619      	mov	r1, r3
 8004de4:	f841 7b04 	str.w	r7, [r1], #4
 8004de8:	685f      	ldr	r7, [r3, #4]
 8004dea:	3201      	adds	r2, #1
 8004dec:	f442 4500 	orr.w	r5, r2, #32768	; 0x8000
 8004df0:	f640 740f 	movw	r4, #3855	; 0xf0f
 8004df4:	f045 0580 	orr.w	r5, r5, #128	; 0x80
 8004df8:	403c      	ands	r4, r7
 8004dfa:	432c      	orrs	r4, r5
 8004dfc:	3201      	adds	r2, #1
 8004dfe:	605c      	str	r4, [r3, #4]
 8004e00:	1d0b      	adds	r3, r1, #4
 8004e02:	4296      	cmp	r6, r2
 8004e04:	d8e3      	bhi.n	8004dce <SetDeviceAddress+0x5a>
 8004e06:	f645 434c 	movw	r3, #23628	; 0x5c4c
 8004e0a:	f040 0080 	orr.w	r0, r0, #128	; 0x80
 8004e0e:	f2c4 0300 	movt	r3, #16384	; 0x4000
 8004e12:	6018      	str	r0, [r3, #0]
 8004e14:	bcf0      	pop	{r4, r5, r6, r7}
 8004e16:	4770      	bx	lr
 8004e18:	200002c0 	.word	0x200002c0

08004e1c <In0_Process>:
 8004e1c:	b510      	push	{r4, lr}
 8004e1e:	4c14      	ldr	r4, [pc, #80]	; (8004e70 <In0_Process+0x54>)
 8004e20:	6823      	ldr	r3, [r4, #0]
 8004e22:	7a1a      	ldrb	r2, [r3, #8]
 8004e24:	2a02      	cmp	r2, #2
 8004e26:	d013      	beq.n	8004e50 <In0_Process+0x34>
 8004e28:	2a04      	cmp	r2, #4
 8004e2a:	d011      	beq.n	8004e50 <In0_Process+0x34>
 8004e2c:	2a06      	cmp	r2, #6
 8004e2e:	d005      	beq.n	8004e3c <In0_Process+0x20>
 8004e30:	2008      	movs	r0, #8
 8004e32:	7218      	strb	r0, [r3, #8]
 8004e34:	e8bd 4010 	ldmia.w	sp!, {r4, lr}
 8004e38:	f7ff bd50 	b.w	80048dc <Post0_Process>
 8004e3c:	7859      	ldrb	r1, [r3, #1]
 8004e3e:	2905      	cmp	r1, #5
 8004e40:	d00b      	beq.n	8004e5a <In0_Process+0x3e>
 8004e42:	4a0c      	ldr	r2, [pc, #48]	; (8004e74 <In0_Process+0x58>)
 8004e44:	6813      	ldr	r3, [r2, #0]
 8004e46:	6898      	ldr	r0, [r3, #8]
 8004e48:	4780      	blx	r0
 8004e4a:	6823      	ldr	r3, [r4, #0]
 8004e4c:	2008      	movs	r0, #8
 8004e4e:	e7f0      	b.n	8004e32 <In0_Process+0x16>
 8004e50:	f7ff fbd6 	bl	8004600 <DataStageIn>
 8004e54:	6823      	ldr	r3, [r4, #0]
 8004e56:	7a18      	ldrb	r0, [r3, #8]
 8004e58:	e7eb      	b.n	8004e32 <In0_Process+0x16>
 8004e5a:	781a      	ldrb	r2, [r3, #0]
 8004e5c:	0652      	lsls	r2, r2, #25
 8004e5e:	d1f0      	bne.n	8004e42 <In0_Process+0x26>
 8004e60:	78d8      	ldrb	r0, [r3, #3]
 8004e62:	f7ff ff87 	bl	8004d74 <SetDeviceAddress>
 8004e66:	4b04      	ldr	r3, [pc, #16]	; (8004e78 <In0_Process+0x5c>)
 8004e68:	6818      	ldr	r0, [r3, #0]
 8004e6a:	6a01      	ldr	r1, [r0, #32]
 8004e6c:	4788      	blx	r1
 8004e6e:	e7e8      	b.n	8004e42 <In0_Process+0x26>
 8004e70:	20001c68 	.word	0x20001c68
 8004e74:	20001c40 	.word	0x20001c40
 8004e78:	20001c64 	.word	0x20001c64

08004e7c <NOP_Process>:
 8004e7c:	4770      	bx	lr
 8004e7e:	bf00      	nop

08004e80 <print2usb>:
 8004e80:	b5f0      	push	{r4, r5, r6, r7, lr}
 8004e82:	4d1b      	ldr	r5, [pc, #108]	; (8004ef0 <print2usb+0x70>)
 8004e84:	b091      	sub	sp, #68	; 0x44
 8004e86:	2240      	movs	r2, #64	; 0x40
 8004e88:	4604      	mov	r4, r0
 8004e8a:	2100      	movs	r1, #0
 8004e8c:	4668      	mov	r0, sp
 8004e8e:	f001 f93f 	bl	8006110 <rt_memset>
 8004e92:	6828      	ldr	r0, [r5, #0]
 8004e94:	f04f 31ff 	mov.w	r1, #4294967295
 8004e98:	f000 fed6 	bl	8005c48 <rt_sem_take>
 8004e9c:	7822      	ldrb	r2, [r4, #0]
 8004e9e:	b32a      	cbz	r2, 8004eec <print2usb+0x6c>
 8004ea0:	f10d 0301 	add.w	r3, sp, #1
 8004ea4:	4620      	mov	r0, r4
 8004ea6:	af10      	add	r7, sp, #64	; 0x40
 8004ea8:	42bb      	cmp	r3, r7
 8004eaa:	f803 2c01 	strb.w	r2, [r3, #-1]
 8004eae:	d011      	beq.n	8004ed4 <print2usb+0x54>
 8004eb0:	4602      	mov	r2, r0
 8004eb2:	f812 1f01 	ldrb.w	r1, [r2, #1]!
 8004eb6:	1c5c      	adds	r4, r3, #1
 8004eb8:	b161      	cbz	r1, 8004ed4 <print2usb+0x54>
 8004eba:	f812 6f01 	ldrb.w	r6, [r2, #1]!
 8004ebe:	f804 1c01 	strb.w	r1, [r4, #-1]
 8004ec2:	3401      	adds	r4, #1
 8004ec4:	b136      	cbz	r6, 8004ed4 <print2usb+0x54>
 8004ec6:	7852      	ldrb	r2, [r2, #1]
 8004ec8:	f804 6c01 	strb.w	r6, [r4, #-1]
 8004ecc:	3003      	adds	r0, #3
 8004ece:	3303      	adds	r3, #3
 8004ed0:	2a00      	cmp	r2, #0
 8004ed2:	d1e9      	bne.n	8004ea8 <print2usb+0x28>
 8004ed4:	4668      	mov	r0, sp
 8004ed6:	f44f 7194 	mov.w	r1, #296	; 0x128
 8004eda:	2240      	movs	r2, #64	; 0x40
 8004edc:	f000 f956 	bl	800518c <UserToPMABufferCopy>
 8004ee0:	2002      	movs	r0, #2
 8004ee2:	f000 fb93 	bl	800560c <SetEPTxValid>
 8004ee6:	6828      	ldr	r0, [r5, #0]
 8004ee8:	f000 ff7e 	bl	8005de8 <rt_sem_release>
 8004eec:	b011      	add	sp, #68	; 0x44
 8004eee:	bdf0      	pop	{r4, r5, r6, r7, pc}
 8004ef0:	2000099c 	.word	0x2000099c

08004ef4 <EP1_OUT_Callback>:
 8004ef4:	b500      	push	{lr}
 8004ef6:	b091      	sub	sp, #68	; 0x44
 8004ef8:	2240      	movs	r2, #64	; 0x40
 8004efa:	2100      	movs	r1, #0
 8004efc:	4668      	mov	r0, sp
 8004efe:	f001 f907 	bl	8006110 <rt_memset>
 8004f02:	4669      	mov	r1, sp
 8004f04:	2001      	movs	r0, #1
 8004f06:	f000 fc7f 	bl	8005808 <USB_SIL_Read>
 8004f0a:	2001      	movs	r0, #1
 8004f0c:	f44f 5140 	mov.w	r1, #12288	; 0x3000
 8004f10:	f000 fb5c 	bl	80055cc <SetEPRxStatus>
 8004f14:	f241 3398 	movw	r3, #5016	; 0x1398
 8004f18:	f2c2 0300 	movt	r3, #8192	; 0x2000
 8004f1c:	f8d3 2420 	ldr.w	r2, [r3, #1056]	; 0x420
 8004f20:	4668      	mov	r0, sp
 8004f22:	2101      	movs	r1, #1
 8004f24:	4790      	blx	r2
 8004f26:	b011      	add	sp, #68	; 0x44
 8004f28:	bd00      	pop	{pc}
 8004f2a:	bf00      	nop

08004f2c <EP2_IN_Callback>:
 8004f2c:	f240 13c4 	movw	r3, #452	; 0x1c4
 8004f30:	f2c2 0300 	movt	r3, #8192	; 0x2000
 8004f34:	2201      	movs	r2, #1
 8004f36:	701a      	strb	r2, [r3, #0]
 8004f38:	4770      	bx	lr
 8004f3a:	bf00      	nop

08004f3c <USB_Init>:
 8004f3c:	b510      	push	{r4, lr}
 8004f3e:	f641 4248 	movw	r2, #7240	; 0x1c48
 8004f42:	f641 4468 	movw	r4, #7272	; 0x1c68
 8004f46:	f2c2 0200 	movt	r2, #8192	; 0x2000
 8004f4a:	f2c2 0400 	movt	r4, #8192	; 0x2000
 8004f4e:	6022      	str	r2, [r4, #0]
 8004f50:	2402      	movs	r4, #2
 8004f52:	7214      	strb	r4, [r2, #8]
 8004f54:	f641 4040 	movw	r0, #7232	; 0x1c40
 8004f58:	f240 2334 	movw	r3, #564	; 0x234
 8004f5c:	f641 4164 	movw	r1, #7268	; 0x1c64
 8004f60:	f240 2264 	movw	r2, #612	; 0x264
 8004f64:	f2c2 0300 	movt	r3, #8192	; 0x2000
 8004f68:	f2c2 0000 	movt	r0, #8192	; 0x2000
 8004f6c:	f2c2 0100 	movt	r1, #8192	; 0x2000
 8004f70:	f2c2 0200 	movt	r2, #8192	; 0x2000
 8004f74:	6003      	str	r3, [r0, #0]
 8004f76:	600a      	str	r2, [r1, #0]
 8004f78:	6818      	ldr	r0, [r3, #0]
 8004f7a:	4780      	blx	r0
 8004f7c:	bd10      	pop	{r4, pc}
 8004f7e:	bf00      	nop

08004f80 <CTR_LP>:
 8004f80:	e92d 4ff0 	stmdb	sp!, {r4, r5, r6, r7, r8, r9, sl, fp, lr}
 8004f84:	f8df a1a4 	ldr.w	sl, [pc, #420]	; 800512c <CTR_LP+0x1ac>
 8004f88:	b083      	sub	sp, #12
 8004f8a:	f645 4b44 	movw	fp, #23620	; 0x5c44
 8004f8e:	2300      	movs	r3, #0
 8004f90:	f8df 919c 	ldr.w	r9, [pc, #412]	; 8005130 <CTR_LP+0x1b0>
 8004f94:	4d63      	ldr	r5, [pc, #396]	; (8005124 <CTR_LP+0x1a4>)
 8004f96:	f8ad 3006 	strh.w	r3, [sp, #6]
 8004f9a:	f2c4 0b00 	movt	fp, #16384	; 0x4000
 8004f9e:	46d0      	mov	r8, sl
 8004fa0:	f8db 0000 	ldr.w	r0, [fp]
 8004fa4:	f44f 44b8 	mov.w	r4, #23552	; 0x5c00
 8004fa8:	b282      	uxth	r2, r0
 8004faa:	0403      	lsls	r3, r0, #16
 8004fac:	f8aa 2000 	strh.w	r2, [sl]
 8004fb0:	f140 80ac 	bpl.w	800510c <CTR_LP+0x18c>
 8004fb4:	f8b8 3000 	ldrh.w	r3, [r8]
 8004fb8:	f2c4 0400 	movt	r4, #16384	; 0x4000
 8004fbc:	f003 020f 	and.w	r2, r3, #15
 8004fc0:	0090      	lsls	r0, r2, #2
 8004fc2:	f100 4080 	add.w	r0, r0, #1073741824	; 0x40000000
 8004fc6:	4e58      	ldr	r6, [pc, #352]	; (8005128 <CTR_LP+0x1a8>)
 8004fc8:	f64b 71bf 	movw	r1, #49087	; 0xbfbf
 8004fcc:	4f55      	ldr	r7, [pc, #340]	; (8005124 <CTR_LP+0x1a4>)
 8004fce:	4613      	mov	r3, r2
 8004fd0:	f500 40b8 	add.w	r0, r0, #23552	; 0x5c00
 8004fd4:	f889 2000 	strb.w	r2, [r9]
 8004fd8:	2a00      	cmp	r2, #0
 8004fda:	d134      	bne.n	8005046 <CTR_LP+0xc6>
 8004fdc:	6822      	ldr	r2, [r4, #0]
 8004fde:	b290      	uxth	r0, r2
 8004fe0:	8028      	strh	r0, [r5, #0]
 8004fe2:	882b      	ldrh	r3, [r5, #0]
 8004fe4:	f003 0230 	and.w	r2, r3, #48	; 0x30
 8004fe8:	8032      	strh	r2, [r6, #0]
 8004fea:	8828      	ldrh	r0, [r5, #0]
 8004fec:	f400 5340 	and.w	r3, r0, #12288	; 0x3000
 8004ff0:	802b      	strh	r3, [r5, #0]
 8004ff2:	6822      	ldr	r2, [r4, #0]
 8004ff4:	4011      	ands	r1, r2
 8004ff6:	f481 5100 	eor.w	r1, r1, #8192	; 0x2000
 8004ffa:	f081 0020 	eor.w	r0, r1, #32
 8004ffe:	f440 4300 	orr.w	r3, r0, #32768	; 0x8000
 8005002:	f043 0280 	orr.w	r2, r3, #128	; 0x80
 8005006:	6022      	str	r2, [r4, #0]
 8005008:	f8b8 1000 	ldrh.w	r1, [r8]
 800500c:	f001 0010 	and.w	r0, r1, #16
 8005010:	b283      	uxth	r3, r0
 8005012:	2b00      	cmp	r3, #0
 8005014:	d04a      	beq.n	80050ac <CTR_LP+0x12c>
 8005016:	6822      	ldr	r2, [r4, #0]
 8005018:	b291      	uxth	r1, r2
 800501a:	f8ad 1006 	strh.w	r1, [sp, #6]
 800501e:	f8bd 0006 	ldrh.w	r0, [sp, #6]
 8005022:	f400 6300 	and.w	r3, r0, #2048	; 0x800
 8005026:	b29a      	uxth	r2, r3
 8005028:	2a00      	cmp	r2, #0
 800502a:	d172      	bne.n	8005112 <CTR_LP+0x192>
 800502c:	f8bd 1006 	ldrh.w	r1, [sp, #6]
 8005030:	b208      	sxth	r0, r1
 8005032:	2800      	cmp	r0, #0
 8005034:	dab4      	bge.n	8004fa0 <CTR_LP+0x20>
 8005036:	6822      	ldr	r2, [r4, #0]
 8005038:	f640 738f 	movw	r3, #3983	; 0xf8f
 800503c:	4013      	ands	r3, r2
 800503e:	6023      	str	r3, [r4, #0]
 8005040:	f7ff fc6e 	bl	8004920 <Out0_Process>
 8005044:	e039      	b.n	80050ba <CTR_LP+0x13a>
 8005046:	6804      	ldr	r4, [r0, #0]
 8005048:	b2a1      	uxth	r1, r4
 800504a:	f8ad 1006 	strh.w	r1, [sp, #6]
 800504e:	f8bd 2006 	ldrh.w	r2, [sp, #6]
 8005052:	b214      	sxth	r4, r2
 8005054:	2c00      	cmp	r4, #0
 8005056:	db1b      	blt.n	8005090 <CTR_LP+0x110>
 8005058:	f8bd 1006 	ldrh.w	r1, [sp, #6]
 800505c:	f001 0280 	and.w	r2, r1, #128	; 0x80
 8005060:	b293      	uxth	r3, r2
 8005062:	2b00      	cmp	r3, #0
 8005064:	d09c      	beq.n	8004fa0 <CTR_LP+0x20>
 8005066:	f899 4000 	ldrb.w	r4, [r9]
 800506a:	f648 730f 	movw	r3, #36623	; 0x8f0f
 800506e:	00a0      	lsls	r0, r4, #2
 8005070:	f100 4180 	add.w	r1, r0, #1073741824	; 0x40000000
 8005074:	f501 42b8 	add.w	r2, r1, #23552	; 0x5c00
 8005078:	6810      	ldr	r0, [r2, #0]
 800507a:	3c01      	subs	r4, #1
 800507c:	4003      	ands	r3, r0
 800507e:	6013      	str	r3, [r2, #0]
 8005080:	f240 13f4 	movw	r3, #500	; 0x1f4
 8005084:	f2c2 0300 	movt	r3, #8192	; 0x2000
 8005088:	f853 1024 	ldr.w	r1, [r3, r4, lsl #2]
 800508c:	4788      	blx	r1
 800508e:	e787      	b.n	8004fa0 <CTR_LP+0x20>
 8005090:	6801      	ldr	r1, [r0, #0]
 8005092:	f640 728f 	movw	r2, #3983	; 0xf8f
 8005096:	400a      	ands	r2, r1
 8005098:	6002      	str	r2, [r0, #0]
 800509a:	f240 2010 	movw	r0, #528	; 0x210
 800509e:	3b01      	subs	r3, #1
 80050a0:	f2c2 0000 	movt	r0, #8192	; 0x2000
 80050a4:	f850 4023 	ldr.w	r4, [r0, r3, lsl #2]
 80050a8:	47a0      	blx	r4
 80050aa:	e7d5      	b.n	8005058 <CTR_LP+0xd8>
 80050ac:	6822      	ldr	r2, [r4, #0]
 80050ae:	f648 730f 	movw	r3, #36623	; 0x8f0f
 80050b2:	4013      	ands	r3, r2
 80050b4:	6023      	str	r3, [r4, #0]
 80050b6:	f7ff feb1 	bl	8004e1c <In0_Process>
 80050ba:	6821      	ldr	r1, [r4, #0]
 80050bc:	8838      	ldrh	r0, [r7, #0]
 80050be:	f64b 73bf 	movw	r3, #49087	; 0xbfbf
 80050c2:	f400 5280 	and.w	r2, r0, #4096	; 0x1000
 80050c6:	b290      	uxth	r0, r2
 80050c8:	400b      	ands	r3, r1
 80050ca:	b108      	cbz	r0, 80050d0 <CTR_LP+0x150>
 80050cc:	f483 5380 	eor.w	r3, r3, #4096	; 0x1000
 80050d0:	8839      	ldrh	r1, [r7, #0]
 80050d2:	f401 5200 	and.w	r2, r1, #8192	; 0x2000
 80050d6:	b290      	uxth	r0, r2
 80050d8:	b108      	cbz	r0, 80050de <CTR_LP+0x15e>
 80050da:	f483 5300 	eor.w	r3, r3, #8192	; 0x2000
 80050de:	8831      	ldrh	r1, [r6, #0]
 80050e0:	f001 0210 	and.w	r2, r1, #16
 80050e4:	b290      	uxth	r0, r2
 80050e6:	b108      	cbz	r0, 80050ec <CTR_LP+0x16c>
 80050e8:	f083 0310 	eor.w	r3, r3, #16
 80050ec:	8831      	ldrh	r1, [r6, #0]
 80050ee:	f001 0220 	and.w	r2, r1, #32
 80050f2:	b290      	uxth	r0, r2
 80050f4:	b108      	cbz	r0, 80050fa <CTR_LP+0x17a>
 80050f6:	f083 0320 	eor.w	r3, r3, #32
 80050fa:	f443 4100 	orr.w	r1, r3, #32768	; 0x8000
 80050fe:	f44f 42b8 	mov.w	r2, #23552	; 0x5c00
 8005102:	f041 0080 	orr.w	r0, r1, #128	; 0x80
 8005106:	f2c4 0200 	movt	r2, #16384	; 0x4000
 800510a:	6010      	str	r0, [r2, #0]
 800510c:	b003      	add	sp, #12
 800510e:	e8bd 8ff0 	ldmia.w	sp!, {r4, r5, r6, r7, r8, r9, sl, fp, pc}
 8005112:	6821      	ldr	r1, [r4, #0]
 8005114:	f640 708f 	movw	r0, #3983	; 0xf8f
 8005118:	4008      	ands	r0, r1
 800511a:	6020      	str	r0, [r4, #0]
 800511c:	f7ff fc72 	bl	8004a04 <Setup0_Process>
 8005120:	e7cb      	b.n	80050ba <CTR_LP+0x13a>
 8005122:	bf00      	nop
 8005124:	20001c6e 	.word	0x20001c6e
 8005128:	20001c70 	.word	0x20001c70
 800512c:	20001c72 	.word	0x20001c72
 8005130:	20001c44 	.word	0x20001c44

08005134 <USB_Istr>:
 8005134:	b538      	push	{r3, r4, r5, lr}
 8005136:	f645 4344 	movw	r3, #23620	; 0x5c44
 800513a:	f2c4 0300 	movt	r3, #16384	; 0x4000
 800513e:	6818      	ldr	r0, [r3, #0]
 8005140:	4c0f      	ldr	r4, [pc, #60]	; (8005180 <USB_Istr+0x4c>)
 8005142:	b281      	uxth	r1, r0
 8005144:	4d0f      	ldr	r5, [pc, #60]	; (8005184 <USB_Istr+0x50>)
 8005146:	8021      	strh	r1, [r4, #0]
 8005148:	8822      	ldrh	r2, [r4, #0]
 800514a:	882b      	ldrh	r3, [r5, #0]
 800514c:	401a      	ands	r2, r3
 800514e:	f402 4000 	and.w	r0, r2, #32768	; 0x8000
 8005152:	b281      	uxth	r1, r0
 8005154:	b979      	cbnz	r1, 8005176 <USB_Istr+0x42>
 8005156:	8822      	ldrh	r2, [r4, #0]
 8005158:	f402 6080 	and.w	r0, r2, #1024	; 0x400
 800515c:	4203      	tst	r3, r0
 800515e:	d009      	beq.n	8005174 <USB_Istr+0x40>
 8005160:	f645 4144 	movw	r1, #23620	; 0x5c44
 8005164:	4a08      	ldr	r2, [pc, #32]	; (8005188 <USB_Istr+0x54>)
 8005166:	f2c4 0100 	movt	r1, #16384	; 0x4000
 800516a:	f64f 33ff 	movw	r3, #64511	; 0xfbff
 800516e:	600b      	str	r3, [r1, #0]
 8005170:	6850      	ldr	r0, [r2, #4]
 8005172:	4780      	blx	r0
 8005174:	bd38      	pop	{r3, r4, r5, pc}
 8005176:	f7ff ff03 	bl	8004f80 <CTR_LP>
 800517a:	882b      	ldrh	r3, [r5, #0]
 800517c:	e7eb      	b.n	8005156 <USB_Istr+0x22>
 800517e:	bf00      	nop
 8005180:	20001c72 	.word	0x20001c72
 8005184:	20001c6c 	.word	0x20001c6c
 8005188:	20000234 	.word	0x20000234

0800518c <UserToPMABufferCopy>:
 800518c:	f101 5100 	add.w	r1, r1, #536870912	; 0x20000000
 8005190:	f501 5140 	add.w	r1, r1, #12288	; 0x3000
 8005194:	1c53      	adds	r3, r2, #1
 8005196:	004a      	lsls	r2, r1, #1
 8005198:	1059      	asrs	r1, r3, #1
 800519a:	b430      	push	{r4, r5}
 800519c:	d02f      	beq.n	80051fe <UserToPMABufferCopy+0x72>
 800519e:	7845      	ldrb	r5, [r0, #1]
 80051a0:	3002      	adds	r0, #2
 80051a2:	f810 4c02 	ldrb.w	r4, [r0, #-2]
 80051a6:	3901      	subs	r1, #1
 80051a8:	ea44 2305 	orr.w	r3, r4, r5, lsl #8
 80051ac:	f822 3b04 	strh.w	r3, [r2], #4
 80051b0:	460b      	mov	r3, r1
 80051b2:	3204      	adds	r2, #4
 80051b4:	f001 0101 	and.w	r1, r1, #1
 80051b8:	3002      	adds	r0, #2
 80051ba:	b303      	cbz	r3, 80051fe <UserToPMABufferCopy+0x72>
 80051bc:	b159      	cbz	r1, 80051d6 <UserToPMABufferCopy+0x4a>
 80051be:	f810 4c01 	ldrb.w	r4, [r0, #-1]
 80051c2:	f810 1c02 	ldrb.w	r1, [r0, #-2]
 80051c6:	3002      	adds	r0, #2
 80051c8:	ea41 2104 	orr.w	r1, r1, r4, lsl #8
 80051cc:	f822 1c04 	strh.w	r1, [r2, #-4]
 80051d0:	3204      	adds	r2, #4
 80051d2:	3b01      	subs	r3, #1
 80051d4:	d013      	beq.n	80051fe <UserToPMABufferCopy+0x72>
 80051d6:	f810 1c02 	ldrb.w	r1, [r0, #-2]
 80051da:	f810 4c01 	ldrb.w	r4, [r0, #-1]
 80051de:	ea41 2404 	orr.w	r4, r1, r4, lsl #8
 80051e2:	f822 4c04 	strh.w	r4, [r2, #-4]
 80051e6:	7844      	ldrb	r4, [r0, #1]
 80051e8:	3002      	adds	r0, #2
 80051ea:	f810 1c02 	ldrb.w	r1, [r0, #-2]
 80051ee:	3002      	adds	r0, #2
 80051f0:	ea41 2104 	orr.w	r1, r1, r4, lsl #8
 80051f4:	f822 1b04 	strh.w	r1, [r2], #4
 80051f8:	3204      	adds	r2, #4
 80051fa:	3b02      	subs	r3, #2
 80051fc:	d1eb      	bne.n	80051d6 <UserToPMABufferCopy+0x4a>
 80051fe:	bc30      	pop	{r4, r5}
 8005200:	4770      	bx	lr
 8005202:	bf00      	nop

08005204 <PMAToUserBufferCopy>:
 8005204:	f101 5100 	add.w	r1, r1, #536870912	; 0x20000000
 8005208:	f501 5340 	add.w	r3, r1, #12288	; 0x3000
 800520c:	3201      	adds	r2, #1
 800520e:	0059      	lsls	r1, r3, #1
 8005210:	1052      	asrs	r2, r2, #1
 8005212:	b430      	push	{r4, r5}
 8005214:	d01c      	beq.n	8005250 <PMAToUserBufferCopy+0x4c>
 8005216:	680b      	ldr	r3, [r1, #0]
 8005218:	3a01      	subs	r2, #1
 800521a:	f820 3b02 	strh.w	r3, [r0], #2
 800521e:	4613      	mov	r3, r2
 8005220:	3002      	adds	r0, #2
 8005222:	f002 0201 	and.w	r2, r2, #1
 8005226:	b19b      	cbz	r3, 8005250 <PMAToUserBufferCopy+0x4c>
 8005228:	b132      	cbz	r2, 8005238 <PMAToUserBufferCopy+0x34>
 800522a:	f851 2f04 	ldr.w	r2, [r1, #4]!
 800522e:	f820 2c02 	strh.w	r2, [r0, #-2]
 8005232:	3002      	adds	r0, #2
 8005234:	3b01      	subs	r3, #1
 8005236:	d00b      	beq.n	8005250 <PMAToUserBufferCopy+0x4c>
 8005238:	1d0c      	adds	r4, r1, #4
 800523a:	684d      	ldr	r5, [r1, #4]
 800523c:	6889      	ldr	r1, [r1, #8]
 800523e:	4602      	mov	r2, r0
 8005240:	f820 5c02 	strh.w	r5, [r0, #-2]
 8005244:	f822 1b02 	strh.w	r1, [r2], #2
 8005248:	1c90      	adds	r0, r2, #2
 800524a:	1d21      	adds	r1, r4, #4
 800524c:	3b02      	subs	r3, #2
 800524e:	d1f3      	bne.n	8005238 <PMAToUserBufferCopy+0x34>
 8005250:	bc30      	pop	{r4, r5}
 8005252:	4770      	bx	lr

08005254 <CustomHID_SetDeviceAddress>:
 8005254:	f640 13a4 	movw	r3, #2468	; 0x9a4
 8005258:	f2c2 0300 	movt	r3, #8192	; 0x2000
 800525c:	2204      	movs	r2, #4
 800525e:	601a      	str	r2, [r3, #0]
 8005260:	4770      	bx	lr
 8005262:	bf00      	nop

08005264 <CustomHID_Status_Out>:
 8005264:	4770      	bx	lr
 8005266:	bf00      	nop

08005268 <CustomHID_Data_Setup>:
 8005268:	b510      	push	{r4, lr}
 800526a:	4b14      	ldr	r3, [pc, #80]	; (80052bc <CustomHID_Data_Setup+0x54>)
 800526c:	681b      	ldr	r3, [r3, #0]
 800526e:	889a      	ldrh	r2, [r3, #4]
 8005270:	b10a      	cbz	r2, 8005276 <CustomHID_Data_Setup+0xe>
 8005272:	2002      	movs	r0, #2
 8005274:	bd10      	pop	{r4, pc}
 8005276:	7819      	ldrb	r1, [r3, #0]
 8005278:	2806      	cmp	r0, #6
 800527a:	f001 027f 	and.w	r2, r1, #127	; 0x7f
 800527e:	d009      	beq.n	8005294 <CustomHID_Data_Setup+0x2c>
 8005280:	2a21      	cmp	r2, #33	; 0x21
 8005282:	d1f6      	bne.n	8005272 <CustomHID_Data_Setup+0xa>
 8005284:	2803      	cmp	r0, #3
 8005286:	d014      	beq.n	80052b2 <CustomHID_Data_Setup+0x4a>
 8005288:	2809      	cmp	r0, #9
 800528a:	d1f2      	bne.n	8005272 <CustomHID_Data_Setup+0xa>
 800528c:	4c0c      	ldr	r4, [pc, #48]	; (80052c0 <CustomHID_Data_Setup+0x58>)
 800528e:	490d      	ldr	r1, [pc, #52]	; (80052c4 <CustomHID_Data_Setup+0x5c>)
 8005290:	7020      	strb	r0, [r4, #0]
 8005292:	e007      	b.n	80052a4 <CustomHID_Data_Setup+0x3c>
 8005294:	2a01      	cmp	r2, #1
 8005296:	d1ec      	bne.n	8005272 <CustomHID_Data_Setup+0xa>
 8005298:	7898      	ldrb	r0, [r3, #2]
 800529a:	2822      	cmp	r0, #34	; 0x22
 800529c:	d00b      	beq.n	80052b6 <CustomHID_Data_Setup+0x4e>
 800529e:	2821      	cmp	r0, #33	; 0x21
 80052a0:	d1e7      	bne.n	8005272 <CustomHID_Data_Setup+0xa>
 80052a2:	4909      	ldr	r1, [pc, #36]	; (80052c8 <CustomHID_Data_Setup+0x60>)
 80052a4:	2400      	movs	r4, #0
 80052a6:	4620      	mov	r0, r4
 80052a8:	6199      	str	r1, [r3, #24]
 80052aa:	825c      	strh	r4, [r3, #18]
 80052ac:	4788      	blx	r1
 80052ae:	4620      	mov	r0, r4
 80052b0:	bd10      	pop	{r4, pc}
 80052b2:	4906      	ldr	r1, [pc, #24]	; (80052cc <CustomHID_Data_Setup+0x64>)
 80052b4:	e7f6      	b.n	80052a4 <CustomHID_Data_Setup+0x3c>
 80052b6:	4906      	ldr	r1, [pc, #24]	; (80052d0 <CustomHID_Data_Setup+0x68>)
 80052b8:	e7f4      	b.n	80052a4 <CustomHID_Data_Setup+0x3c>
 80052ba:	bf00      	nop
 80052bc:	20001c68 	.word	0x20001c68
 80052c0:	200009a0 	.word	0x200009a0
 80052c4:	080052d5 	.word	0x080052d5
 80052c8:	08005339 	.word	0x08005339
 80052cc:	08005321 	.word	0x08005321
 80052d0:	08005345 	.word	0x08005345

080052d4 <CustomHID_SetReport_Feature>:
 80052d4:	b108      	cbz	r0, 80052da <CustomHID_SetReport_Feature+0x6>
 80052d6:	4803      	ldr	r0, [pc, #12]	; (80052e4 <CustomHID_SetReport_Feature+0x10>)
 80052d8:	4770      	bx	lr
 80052da:	4b03      	ldr	r3, [pc, #12]	; (80052e8 <CustomHID_SetReport_Feature+0x14>)
 80052dc:	2202      	movs	r2, #2
 80052de:	6819      	ldr	r1, [r3, #0]
 80052e0:	820a      	strh	r2, [r1, #16]
 80052e2:	4770      	bx	lr
 80052e4:	20001c78 	.word	0x20001c78
 80052e8:	20001c68 	.word	0x20001c68

080052ec <CustomHID_NoData_Setup>:
 80052ec:	4b07      	ldr	r3, [pc, #28]	; (800530c <CustomHID_NoData_Setup+0x20>)
 80052ee:	6819      	ldr	r1, [r3, #0]
 80052f0:	780a      	ldrb	r2, [r1, #0]
 80052f2:	f002 037f 	and.w	r3, r2, #127	; 0x7f
 80052f6:	2b21      	cmp	r3, #33	; 0x21
 80052f8:	d001      	beq.n	80052fe <CustomHID_NoData_Setup+0x12>
 80052fa:	2002      	movs	r0, #2
 80052fc:	4770      	bx	lr
 80052fe:	280b      	cmp	r0, #11
 8005300:	d1fb      	bne.n	80052fa <CustomHID_NoData_Setup+0xe>
 8005302:	78c9      	ldrb	r1, [r1, #3]
 8005304:	4a02      	ldr	r2, [pc, #8]	; (8005310 <CustomHID_NoData_Setup+0x24>)
 8005306:	2000      	movs	r0, #0
 8005308:	6011      	str	r1, [r2, #0]
 800530a:	4770      	bx	lr
 800530c:	20001c68 	.word	0x20001c68
 8005310:	20001c74 	.word	0x20001c74

08005314 <CustomHID_Get_Interface_Setting>:
 8005314:	b109      	cbz	r1, 800531a <CustomHID_Get_Interface_Setting+0x6>
 8005316:	2002      	movs	r0, #2
 8005318:	4770      	bx	lr
 800531a:	2800      	cmp	r0, #0
 800531c:	d1fb      	bne.n	8005316 <CustomHID_Get_Interface_Setting+0x2>
 800531e:	4770      	bx	lr

08005320 <CustomHID_GetProtocolValue>:
 8005320:	b108      	cbz	r0, 8005326 <CustomHID_GetProtocolValue+0x6>
 8005322:	4803      	ldr	r0, [pc, #12]	; (8005330 <CustomHID_GetProtocolValue+0x10>)
 8005324:	4770      	bx	lr
 8005326:	4b03      	ldr	r3, [pc, #12]	; (8005334 <CustomHID_GetProtocolValue+0x14>)
 8005328:	2201      	movs	r2, #1
 800532a:	6819      	ldr	r1, [r3, #0]
 800532c:	820a      	strh	r2, [r1, #16]
 800532e:	4770      	bx	lr
 8005330:	20001c74 	.word	0x20001c74
 8005334:	20001c68 	.word	0x20001c68

08005338 <CustomHID_GetHIDDescriptor>:
 8005338:	f240 21b8 	movw	r1, #696	; 0x2b8
 800533c:	f2c2 0100 	movt	r1, #8192	; 0x2000
 8005340:	f7ff babe 	b.w	80048c0 <Standard_GetDescriptorData>

08005344 <CustomHID_GetReportDescriptor>:
 8005344:	f240 2188 	movw	r1, #648	; 0x288
 8005348:	f2c2 0100 	movt	r1, #8192	; 0x2000
 800534c:	f7ff bab8 	b.w	80048c0 <Standard_GetDescriptorData>

08005350 <CustomHID_GetStringDescriptor>:
 8005350:	4b05      	ldr	r3, [pc, #20]	; (8005368 <CustomHID_GetStringDescriptor+0x18>)
 8005352:	6819      	ldr	r1, [r3, #0]
 8005354:	78ca      	ldrb	r2, [r1, #3]
 8005356:	2a04      	cmp	r2, #4
 8005358:	d804      	bhi.n	8005364 <CustomHID_GetStringDescriptor+0x14>
 800535a:	4b04      	ldr	r3, [pc, #16]	; (800536c <CustomHID_GetStringDescriptor+0x1c>)
 800535c:	eb03 01c2 	add.w	r1, r3, r2, lsl #3
 8005360:	f7ff baae 	b.w	80048c0 <Standard_GetDescriptorData>
 8005364:	2000      	movs	r0, #0
 8005366:	4770      	bx	lr
 8005368:	20001c68 	.word	0x20001c68
 800536c:	20000298 	.word	0x20000298

08005370 <CustomHID_GetConfigDescriptor>:
 8005370:	f240 212c 	movw	r1, #556	; 0x22c
 8005374:	f2c2 0100 	movt	r1, #8192	; 0x2000
 8005378:	f7ff baa2 	b.w	80048c0 <Standard_GetDescriptorData>

0800537c <CustomHID_GetDeviceDescriptor>:
 800537c:	f240 2190 	movw	r1, #656	; 0x290
 8005380:	f2c2 0100 	movt	r1, #8192	; 0x2000
 8005384:	f7ff ba9c 	b.w	80048c0 <Standard_GetDescriptorData>

08005388 <CustomHID_Status_In>:
 8005388:	b508      	push	{r3, lr}
 800538a:	4a20      	ldr	r2, [pc, #128]	; (800540c <CustomHID_Status_In+0x84>)
 800538c:	7813      	ldrb	r3, [r2, #0]
 800538e:	7850      	ldrb	r0, [r2, #1]
 8005390:	1e59      	subs	r1, r3, #1
 8005392:	3000      	adds	r0, #0
 8005394:	bf18      	it	ne
 8005396:	2001      	movne	r0, #1
 8005398:	2903      	cmp	r1, #3
 800539a:	d818      	bhi.n	80053ce <CustomHID_Status_In+0x46>
 800539c:	e8df f001 	tbb	[pc, r1]
 80053a0:	02092110 	.word	0x02092110
 80053a4:	2800      	cmp	r0, #0
 80053a6:	d12c      	bne.n	8005402 <CustomHID_Status_In+0x7a>
 80053a8:	2003      	movs	r0, #3
 80053aa:	e8bd 4008 	ldmia.w	sp!, {r3, lr}
 80053ae:	f7ff b89b 	b.w	80044e8 <STM_EVAL_LEDOff>
 80053b2:	2800      	cmp	r0, #0
 80053b4:	d020      	beq.n	80053f8 <CustomHID_Status_In+0x70>
 80053b6:	2002      	movs	r0, #2
 80053b8:	e8bd 4008 	ldmia.w	sp!, {r3, lr}
 80053bc:	f7ff b886 	b.w	80044cc <STM_EVAL_LEDOn>
 80053c0:	2800      	cmp	r0, #0
 80053c2:	d0f2      	beq.n	80053aa <CustomHID_Status_In+0x22>
 80053c4:	2000      	movs	r0, #0
 80053c6:	e8bd 4008 	ldmia.w	sp!, {r3, lr}
 80053ca:	f7ff b87f 	b.w	80044cc <STM_EVAL_LEDOn>
 80053ce:	2000      	movs	r0, #0
 80053d0:	f7ff f88a 	bl	80044e8 <STM_EVAL_LEDOff>
 80053d4:	2001      	movs	r0, #1
 80053d6:	f7ff f887 	bl	80044e8 <STM_EVAL_LEDOff>
 80053da:	2002      	movs	r0, #2
 80053dc:	f7ff f884 	bl	80044e8 <STM_EVAL_LEDOff>
 80053e0:	e7e2      	b.n	80053a8 <CustomHID_Status_In+0x20>
 80053e2:	b120      	cbz	r0, 80053ee <CustomHID_Status_In+0x66>
 80053e4:	2001      	movs	r0, #1
 80053e6:	e8bd 4008 	ldmia.w	sp!, {r3, lr}
 80053ea:	f7ff b86f 	b.w	80044cc <STM_EVAL_LEDOn>
 80053ee:	2001      	movs	r0, #1
 80053f0:	e8bd 4008 	ldmia.w	sp!, {r3, lr}
 80053f4:	f7ff b878 	b.w	80044e8 <STM_EVAL_LEDOff>
 80053f8:	2002      	movs	r0, #2
 80053fa:	e8bd 4008 	ldmia.w	sp!, {r3, lr}
 80053fe:	f7ff b873 	b.w	80044e8 <STM_EVAL_LEDOff>
 8005402:	2003      	movs	r0, #3
 8005404:	e8bd 4008 	ldmia.w	sp!, {r3, lr}
 8005408:	f7ff b860 	b.w	80044cc <STM_EVAL_LEDOn>
 800540c:	20001c78 	.word	0x20001c78

08005410 <CustomHID_Reset>:
 8005410:	f641 4368 	movw	r3, #7272	; 0x1c68
 8005414:	f648 52f0 	movw	r2, #36336	; 0x8df0
 8005418:	f6c0 0200 	movt	r2, #2048	; 0x800
 800541c:	f2c2 0300 	movt	r3, #8192	; 0x2000
 8005420:	79d1      	ldrb	r1, [r2, #7]
 8005422:	6818      	ldr	r0, [r3, #0]
 8005424:	b510      	push	{r4, lr}
 8005426:	2400      	movs	r4, #0
 8005428:	7241      	strb	r1, [r0, #9]
 800542a:	7284      	strb	r4, [r0, #10]
 800542c:	72c4      	strb	r4, [r0, #11]
 800542e:	4620      	mov	r0, r4
 8005430:	f000 f896 	bl	8005560 <SetBTABLE>
 8005434:	4620      	mov	r0, r4
 8005436:	f44f 7100 	mov.w	r1, #512	; 0x200
 800543a:	f000 f89b 	bl	8005574 <SetEPType>
 800543e:	2110      	movs	r1, #16
 8005440:	4620      	mov	r0, r4
 8005442:	f000 f8a3 	bl	800558c <SetEPTxStatus>
 8005446:	2118      	movs	r1, #24
 8005448:	4620      	mov	r0, r4
 800544a:	f000 f949 	bl	80056e0 <SetEPRxAddr>
 800544e:	2158      	movs	r1, #88	; 0x58
 8005450:	4620      	mov	r0, r4
 8005452:	f000 f933 	bl	80056bc <SetEPTxAddr>
 8005456:	4620      	mov	r0, r4
 8005458:	f000 f8fc 	bl	8005654 <Clear_Status_Out>
 800545c:	f240 2334 	movw	r3, #564	; 0x234
 8005460:	f2c2 0300 	movt	r3, #8192	; 0x2000
 8005464:	f893 102c 	ldrb.w	r1, [r3, #44]	; 0x2c
 8005468:	4620      	mov	r0, r4
 800546a:	f000 f97d 	bl	8005768 <SetEPRxCount>
 800546e:	4620      	mov	r0, r4
 8005470:	f000 f8de 	bl	8005630 <SetEPRxValid>
 8005474:	2001      	movs	r0, #1
 8005476:	f44f 61c0 	mov.w	r1, #1536	; 0x600
 800547a:	f000 f87b 	bl	8005574 <SetEPType>
 800547e:	2001      	movs	r0, #1
 8005480:	21d8      	movs	r1, #216	; 0xd8
 8005482:	f000 f92d 	bl	80056e0 <SetEPRxAddr>
 8005486:	2001      	movs	r0, #1
 8005488:	2140      	movs	r1, #64	; 0x40
 800548a:	f000 f96d 	bl	8005768 <SetEPRxCount>
 800548e:	2001      	movs	r0, #1
 8005490:	f44f 5140 	mov.w	r1, #12288	; 0x3000
 8005494:	f000 f89a 	bl	80055cc <SetEPRxStatus>
 8005498:	2002      	movs	r0, #2
 800549a:	f44f 61c0 	mov.w	r1, #1536	; 0x600
 800549e:	f000 f869 	bl	8005574 <SetEPType>
 80054a2:	2002      	movs	r0, #2
 80054a4:	f44f 7194 	mov.w	r1, #296	; 0x128
 80054a8:	f000 f908 	bl	80056bc <SetEPTxAddr>
 80054ac:	2002      	movs	r0, #2
 80054ae:	2140      	movs	r1, #64	; 0x40
 80054b0:	f000 f94a 	bl	8005748 <SetEPTxCount>
 80054b4:	2120      	movs	r1, #32
 80054b6:	2002      	movs	r0, #2
 80054b8:	f000 f868 	bl	800558c <SetEPTxStatus>
 80054bc:	4620      	mov	r0, r4
 80054be:	f7ff fc59 	bl	8004d74 <SetDeviceAddress>
 80054c2:	f640 10a4 	movw	r0, #2468	; 0x9a4
 80054c6:	f2c2 0000 	movt	r0, #8192	; 0x2000
 80054ca:	2201      	movs	r2, #1
 80054cc:	6002      	str	r2, [r0, #0]
 80054ce:	bd10      	pop	{r4, pc}

080054d0 <CustomHID_init>:
 80054d0:	b510      	push	{r4, lr}
 80054d2:	f7fe ffd9 	bl	8004488 <Get_SerialNum>
 80054d6:	f641 4368 	movw	r3, #7272	; 0x1c68
 80054da:	f2c2 0300 	movt	r3, #8192	; 0x2000
 80054de:	6818      	ldr	r0, [r3, #0]
 80054e0:	2400      	movs	r4, #0
 80054e2:	7284      	strb	r4, [r0, #10]
 80054e4:	f000 f81c 	bl	8005520 <PowerOn>
 80054e8:	f000 f978 	bl	80057dc <USB_SIL_Init>
 80054ec:	f640 11a4 	movw	r1, #2468	; 0x9a4
 80054f0:	f2c2 0100 	movt	r1, #8192	; 0x2000
 80054f4:	600c      	str	r4, [r1, #0]
 80054f6:	bd10      	pop	{r4, pc}

080054f8 <CustomHID_SetConfiguration>:
 80054f8:	4b07      	ldr	r3, [pc, #28]	; (8005518 <CustomHID_SetConfiguration+0x20>)
 80054fa:	6818      	ldr	r0, [r3, #0]
 80054fc:	7a81      	ldrb	r1, [r0, #10]
 80054fe:	b901      	cbnz	r1, 8005502 <CustomHID_SetConfiguration+0xa>
 8005500:	4770      	bx	lr
 8005502:	4b06      	ldr	r3, [pc, #24]	; (800551c <CustomHID_SetConfiguration+0x24>)
 8005504:	f44f 5010 	mov.w	r0, #9216	; 0x2400
 8005508:	2205      	movs	r2, #5
 800550a:	f2c4 0001 	movt	r0, #16385	; 0x4001
 800550e:	2101      	movs	r1, #1
 8005510:	601a      	str	r2, [r3, #0]
 8005512:	f7fb bd51 	b.w	8000fb8 <ADC_SoftwareStartConvCmd>
 8005516:	bf00      	nop
 8005518:	20001c68 	.word	0x20001c68
 800551c:	200009a4 	.word	0x200009a4

08005520 <PowerOn>:
 8005520:	b538      	push	{r3, r4, r5, lr}
 8005522:	2001      	movs	r0, #1
 8005524:	f645 4440 	movw	r4, #23616	; 0x5c40
 8005528:	f7fe ff74 	bl	8004414 <USB_Cable_Config>
 800552c:	f2c4 0400 	movt	r4, #16384	; 0x4000
 8005530:	2301      	movs	r3, #1
 8005532:	6023      	str	r3, [r4, #0]
 8005534:	f44f 60fa 	mov.w	r0, #2000	; 0x7d0
 8005538:	f7fe fef2 	bl	8004320 <Delay>
 800553c:	f645 4544 	movw	r5, #23620	; 0x5c44
 8005540:	f641 436c 	movw	r3, #7276	; 0x1c6c
 8005544:	2200      	movs	r2, #0
 8005546:	f44f 51e0 	mov.w	r1, #7168	; 0x1c00
 800554a:	f2c4 0500 	movt	r5, #16384	; 0x4000
 800554e:	f2c2 0300 	movt	r3, #8192	; 0x2000
 8005552:	6022      	str	r2, [r4, #0]
 8005554:	4610      	mov	r0, r2
 8005556:	602a      	str	r2, [r5, #0]
 8005558:	8019      	strh	r1, [r3, #0]
 800555a:	6021      	str	r1, [r4, #0]
 800555c:	bd38      	pop	{r3, r4, r5, pc}
 800555e:	bf00      	nop

08005560 <SetBTABLE>:
 8005560:	f64f 73f8 	movw	r3, #65528	; 0xfff8
 8005564:	f645 4250 	movw	r2, #23632	; 0x5c50
 8005568:	4003      	ands	r3, r0
 800556a:	f2c4 0200 	movt	r2, #16384	; 0x4000
 800556e:	6013      	str	r3, [r2, #0]
 8005570:	4770      	bx	lr
 8005572:	bf00      	nop

08005574 <SetEPType>:
 8005574:	0080      	lsls	r0, r0, #2
 8005576:	f100 4280 	add.w	r2, r0, #1073741824	; 0x40000000
 800557a:	f502 42b8 	add.w	r2, r2, #23552	; 0x5c00
 800557e:	6810      	ldr	r0, [r2, #0]
 8005580:	f648 138f 	movw	r3, #35215	; 0x898f
 8005584:	4003      	ands	r3, r0
 8005586:	4319      	orrs	r1, r3
 8005588:	6011      	str	r1, [r2, #0]
 800558a:	4770      	bx	lr

0800558c <SetEPTxStatus>:
 800558c:	0080      	lsls	r0, r0, #2
 800558e:	f100 4280 	add.w	r2, r0, #1073741824	; 0x40000000
 8005592:	f502 42b8 	add.w	r2, r2, #23552	; 0x5c00
 8005596:	b410      	push	{r4}
 8005598:	f001 0010 	and.w	r0, r1, #16
 800559c:	6814      	ldr	r4, [r2, #0]
 800559e:	f648 73bf 	movw	r3, #36799	; 0x8fbf
 80055a2:	b280      	uxth	r0, r0
 80055a4:	4023      	ands	r3, r4
 80055a6:	b968      	cbnz	r0, 80055c4 <SetEPTxStatus+0x38>
 80055a8:	b29b      	uxth	r3, r3
 80055aa:	f001 0120 	and.w	r1, r1, #32
 80055ae:	b288      	uxth	r0, r1
 80055b0:	b108      	cbz	r0, 80055b6 <SetEPTxStatus+0x2a>
 80055b2:	f083 0320 	eor.w	r3, r3, #32
 80055b6:	f443 4100 	orr.w	r1, r3, #32768	; 0x8000
 80055ba:	f041 0080 	orr.w	r0, r1, #128	; 0x80
 80055be:	6010      	str	r0, [r2, #0]
 80055c0:	bc10      	pop	{r4}
 80055c2:	4770      	bx	lr
 80055c4:	f083 0310 	eor.w	r3, r3, #16
 80055c8:	e7ef      	b.n	80055aa <SetEPTxStatus+0x1e>
 80055ca:	bf00      	nop

080055cc <SetEPRxStatus>:
 80055cc:	0080      	lsls	r0, r0, #2
 80055ce:	f100 4280 	add.w	r2, r0, #1073741824	; 0x40000000
 80055d2:	f502 42b8 	add.w	r2, r2, #23552	; 0x5c00
 80055d6:	b410      	push	{r4}
 80055d8:	f401 5080 	and.w	r0, r1, #4096	; 0x1000
 80055dc:	6814      	ldr	r4, [r2, #0]
 80055de:	f64b 738f 	movw	r3, #49039	; 0xbf8f
 80055e2:	b280      	uxth	r0, r0
 80055e4:	4023      	ands	r3, r4
 80055e6:	b968      	cbnz	r0, 8005604 <SetEPRxStatus+0x38>
 80055e8:	b29b      	uxth	r3, r3
 80055ea:	f401 5100 	and.w	r1, r1, #8192	; 0x2000
 80055ee:	b288      	uxth	r0, r1
 80055f0:	b108      	cbz	r0, 80055f6 <SetEPRxStatus+0x2a>
 80055f2:	f483 5300 	eor.w	r3, r3, #8192	; 0x2000
 80055f6:	f443 4100 	orr.w	r1, r3, #32768	; 0x8000
 80055fa:	f041 0080 	orr.w	r0, r1, #128	; 0x80
 80055fe:	6010      	str	r0, [r2, #0]
 8005600:	bc10      	pop	{r4}
 8005602:	4770      	bx	lr
 8005604:	f483 5380 	eor.w	r3, r3, #4096	; 0x1000
 8005608:	e7ef      	b.n	80055ea <SetEPRxStatus+0x1e>
 800560a:	bf00      	nop

0800560c <SetEPTxValid>:
 800560c:	0080      	lsls	r0, r0, #2
 800560e:	f100 4280 	add.w	r2, r0, #1073741824	; 0x40000000
 8005612:	f502 40b8 	add.w	r0, r2, #23552	; 0x5c00
 8005616:	6801      	ldr	r1, [r0, #0]
 8005618:	f648 73bf 	movw	r3, #36799	; 0x8fbf
 800561c:	400b      	ands	r3, r1
 800561e:	f083 0230 	eor.w	r2, r3, #48	; 0x30
 8005622:	f442 4100 	orr.w	r1, r2, #32768	; 0x8000
 8005626:	f041 0380 	orr.w	r3, r1, #128	; 0x80
 800562a:	6003      	str	r3, [r0, #0]
 800562c:	4770      	bx	lr
 800562e:	bf00      	nop

08005630 <SetEPRxValid>:
 8005630:	0080      	lsls	r0, r0, #2
 8005632:	f100 4280 	add.w	r2, r0, #1073741824	; 0x40000000
 8005636:	f502 40b8 	add.w	r0, r2, #23552	; 0x5c00
 800563a:	6801      	ldr	r1, [r0, #0]
 800563c:	f64b 738f 	movw	r3, #49039	; 0xbf8f
 8005640:	400b      	ands	r3, r1
 8005642:	f483 5240 	eor.w	r2, r3, #12288	; 0x3000
 8005646:	f442 4100 	orr.w	r1, r2, #32768	; 0x8000
 800564a:	f041 0380 	orr.w	r3, r1, #128	; 0x80
 800564e:	6003      	str	r3, [r0, #0]
 8005650:	4770      	bx	lr
 8005652:	bf00      	nop

08005654 <Clear_Status_Out>:
 8005654:	0080      	lsls	r0, r0, #2
 8005656:	f100 4280 	add.w	r2, r0, #1073741824	; 0x40000000
 800565a:	f502 40b8 	add.w	r0, r2, #23552	; 0x5c00
 800565e:	6801      	ldr	r1, [r0, #0]
 8005660:	f640 630f 	movw	r3, #3599	; 0xe0f
 8005664:	400b      	ands	r3, r1
 8005666:	f443 4200 	orr.w	r2, r3, #32768	; 0x8000
 800566a:	f042 0180 	orr.w	r1, r2, #128	; 0x80
 800566e:	6001      	str	r1, [r0, #0]
 8005670:	4770      	bx	lr
 8005672:	bf00      	nop

08005674 <ClearDTOG_RX>:
 8005674:	0080      	lsls	r0, r0, #2
 8005676:	f100 4380 	add.w	r3, r0, #1073741824	; 0x40000000
 800567a:	f503 40b8 	add.w	r0, r3, #23552	; 0x5c00
 800567e:	6802      	ldr	r2, [r0, #0]
 8005680:	0451      	lsls	r1, r2, #17
 8005682:	d508      	bpl.n	8005696 <ClearDTOG_RX+0x22>
 8005684:	6801      	ldr	r1, [r0, #0]
 8005686:	f640 730f 	movw	r3, #3855	; 0xf0f
 800568a:	400b      	ands	r3, r1
 800568c:	f443 4240 	orr.w	r2, r3, #49152	; 0xc000
 8005690:	f042 0180 	orr.w	r1, r2, #128	; 0x80
 8005694:	6001      	str	r1, [r0, #0]
 8005696:	4770      	bx	lr

08005698 <ClearDTOG_TX>:
 8005698:	0080      	lsls	r0, r0, #2
 800569a:	f100 4380 	add.w	r3, r0, #1073741824	; 0x40000000
 800569e:	f503 43b8 	add.w	r3, r3, #23552	; 0x5c00
 80056a2:	681a      	ldr	r2, [r3, #0]
 80056a4:	0650      	lsls	r0, r2, #25
 80056a6:	d508      	bpl.n	80056ba <ClearDTOG_TX+0x22>
 80056a8:	6819      	ldr	r1, [r3, #0]
 80056aa:	f640 700f 	movw	r0, #3855	; 0xf0f
 80056ae:	4008      	ands	r0, r1
 80056b0:	f440 4200 	orr.w	r2, r0, #32768	; 0x8000
 80056b4:	f042 01c0 	orr.w	r1, r2, #192	; 0xc0
 80056b8:	6019      	str	r1, [r3, #0]
 80056ba:	4770      	bx	lr

080056bc <SetEPTxAddr>:
 80056bc:	f645 4350 	movw	r3, #23632	; 0x5c50
 80056c0:	f2c4 0300 	movt	r3, #16384	; 0x4000
 80056c4:	681a      	ldr	r2, [r3, #0]
 80056c6:	f64f 73fe 	movw	r3, #65534	; 0xfffe
 80056ca:	b292      	uxth	r2, r2
 80056cc:	eb02 00c0 	add.w	r0, r2, r0, lsl #3
 80056d0:	f100 5200 	add.w	r2, r0, #536870912	; 0x20000000
 80056d4:	f502 5040 	add.w	r0, r2, #12288	; 0x3000
 80056d8:	0042      	lsls	r2, r0, #1
 80056da:	400b      	ands	r3, r1
 80056dc:	6013      	str	r3, [r2, #0]
 80056de:	4770      	bx	lr

080056e0 <SetEPRxAddr>:
 80056e0:	f645 4350 	movw	r3, #23632	; 0x5c50
 80056e4:	f2c4 0300 	movt	r3, #16384	; 0x4000
 80056e8:	681a      	ldr	r2, [r3, #0]
 80056ea:	f243 0304 	movw	r3, #12292	; 0x3004
 80056ee:	b292      	uxth	r2, r2
 80056f0:	eb02 00c0 	add.w	r0, r2, r0, lsl #3
 80056f4:	f2c2 0300 	movt	r3, #8192	; 0x2000
 80056f8:	18c3      	adds	r3, r0, r3
 80056fa:	f64f 72fe 	movw	r2, #65534	; 0xfffe
 80056fe:	0058      	lsls	r0, r3, #1
 8005700:	400a      	ands	r2, r1
 8005702:	6002      	str	r2, [r0, #0]
 8005704:	4770      	bx	lr
 8005706:	bf00      	nop

08005708 <GetEPTxAddr>:
 8005708:	f645 4350 	movw	r3, #23632	; 0x5c50
 800570c:	f2c4 0300 	movt	r3, #16384	; 0x4000
 8005710:	6819      	ldr	r1, [r3, #0]
 8005712:	b28a      	uxth	r2, r1
 8005714:	eb02 00c0 	add.w	r0, r2, r0, lsl #3
 8005718:	f100 5300 	add.w	r3, r0, #536870912	; 0x20000000
 800571c:	f503 5140 	add.w	r1, r3, #12288	; 0x3000
 8005720:	004a      	lsls	r2, r1, #1
 8005722:	8810      	ldrh	r0, [r2, #0]
 8005724:	4770      	bx	lr
 8005726:	bf00      	nop

08005728 <GetEPRxAddr>:
 8005728:	f645 4350 	movw	r3, #23632	; 0x5c50
 800572c:	f2c4 0300 	movt	r3, #16384	; 0x4000
 8005730:	681a      	ldr	r2, [r3, #0]
 8005732:	f243 0104 	movw	r1, #12292	; 0x3004
 8005736:	b293      	uxth	r3, r2
 8005738:	eb03 00c0 	add.w	r0, r3, r0, lsl #3
 800573c:	f2c2 0100 	movt	r1, #8192	; 0x2000
 8005740:	1842      	adds	r2, r0, r1
 8005742:	0051      	lsls	r1, r2, #1
 8005744:	8808      	ldrh	r0, [r1, #0]
 8005746:	4770      	bx	lr

08005748 <SetEPTxCount>:
 8005748:	f645 4350 	movw	r3, #23632	; 0x5c50
 800574c:	f2c4 0300 	movt	r3, #16384	; 0x4000
 8005750:	681a      	ldr	r2, [r3, #0]
 8005752:	f243 0302 	movw	r3, #12290	; 0x3002
 8005756:	b292      	uxth	r2, r2
 8005758:	eb02 00c0 	add.w	r0, r2, r0, lsl #3
 800575c:	f2c2 0300 	movt	r3, #8192	; 0x2000
 8005760:	18c3      	adds	r3, r0, r3
 8005762:	005a      	lsls	r2, r3, #1
 8005764:	6011      	str	r1, [r2, #0]
 8005766:	4770      	bx	lr

08005768 <SetEPRxCount>:
 8005768:	f645 4350 	movw	r3, #23632	; 0x5c50
 800576c:	f2c4 0300 	movt	r3, #16384	; 0x4000
 8005770:	681a      	ldr	r2, [r3, #0]
 8005772:	f243 0306 	movw	r3, #12294	; 0x3006
 8005776:	b292      	uxth	r2, r2
 8005778:	eb02 00c0 	add.w	r0, r2, r0, lsl #3
 800577c:	f2c2 0300 	movt	r3, #8192	; 0x2000
 8005780:	18c3      	adds	r3, r0, r3
 8005782:	005b      	lsls	r3, r3, #1
 8005784:	293e      	cmp	r1, #62	; 0x3e
 8005786:	d909      	bls.n	800579c <SetEPRxCount+0x34>
 8005788:	094a      	lsrs	r2, r1, #5
 800578a:	06c9      	lsls	r1, r1, #27
 800578c:	d101      	bne.n	8005792 <SetEPRxCount+0x2a>
 800578e:	1e50      	subs	r0, r2, #1
 8005790:	b282      	uxth	r2, r0
 8005792:	0291      	lsls	r1, r2, #10
 8005794:	f441 4000 	orr.w	r0, r1, #32768	; 0x8000
 8005798:	6018      	str	r0, [r3, #0]
 800579a:	4770      	bx	lr
 800579c:	084a      	lsrs	r2, r1, #1
 800579e:	07c8      	lsls	r0, r1, #31
 80057a0:	bf48      	it	mi
 80057a2:	3201      	addmi	r2, #1
 80057a4:	0291      	lsls	r1, r2, #10
 80057a6:	6019      	str	r1, [r3, #0]
 80057a8:	4770      	bx	lr
 80057aa:	bf00      	nop

080057ac <GetEPRxCount>:
 80057ac:	f645 4350 	movw	r3, #23632	; 0x5c50
 80057b0:	f2c4 0300 	movt	r3, #16384	; 0x4000
 80057b4:	681a      	ldr	r2, [r3, #0]
 80057b6:	f243 0106 	movw	r1, #12294	; 0x3006
 80057ba:	b293      	uxth	r3, r2
 80057bc:	eb03 00c0 	add.w	r0, r3, r0, lsl #3
 80057c0:	f2c2 0100 	movt	r1, #8192	; 0x2000
 80057c4:	1842      	adds	r2, r0, r1
 80057c6:	0051      	lsls	r1, r2, #1
 80057c8:	680b      	ldr	r3, [r1, #0]
 80057ca:	0598      	lsls	r0, r3, #22
 80057cc:	0d80      	lsrs	r0, r0, #22
 80057ce:	4770      	bx	lr

080057d0 <ByteSwap>:
 80057d0:	b2c3      	uxtb	r3, r0
 80057d2:	0a00      	lsrs	r0, r0, #8
 80057d4:	ea40 2003 	orr.w	r0, r0, r3, lsl #8
 80057d8:	4770      	bx	lr
 80057da:	bf00      	nop

080057dc <USB_SIL_Init>:
 80057dc:	b410      	push	{r4}
 80057de:	f641 436c 	movw	r3, #7276	; 0x1c6c
 80057e2:	f645 4444 	movw	r4, #23620	; 0x5c44
 80057e6:	f645 4240 	movw	r2, #23616	; 0x5c40
 80057ea:	f44f 4104 	mov.w	r1, #33792	; 0x8400
 80057ee:	2000      	movs	r0, #0
 80057f0:	f2c4 0400 	movt	r4, #16384	; 0x4000
 80057f4:	f2c2 0300 	movt	r3, #8192	; 0x2000
 80057f8:	f2c4 0200 	movt	r2, #16384	; 0x4000
 80057fc:	6020      	str	r0, [r4, #0]
 80057fe:	8019      	strh	r1, [r3, #0]
 8005800:	6011      	str	r1, [r2, #0]
 8005802:	bc10      	pop	{r4}
 8005804:	4770      	bx	lr
 8005806:	bf00      	nop

08005808 <USB_SIL_Read>:
 8005808:	b570      	push	{r4, r5, r6, lr}
 800580a:	f000 057f 	and.w	r5, r0, #127	; 0x7f
 800580e:	4628      	mov	r0, r5
 8005810:	460e      	mov	r6, r1
 8005812:	f7ff ffcb 	bl	80057ac <GetEPRxCount>
 8005816:	4604      	mov	r4, r0
 8005818:	4628      	mov	r0, r5
 800581a:	f7ff ff85 	bl	8005728 <GetEPRxAddr>
 800581e:	4622      	mov	r2, r4
 8005820:	4601      	mov	r1, r0
 8005822:	4630      	mov	r0, r6
 8005824:	f7ff fcee 	bl	8005204 <PMAToUserBufferCopy>
 8005828:	4620      	mov	r0, r4
 800582a:	bd70      	pop	{r4, r5, r6, pc}

0800582c <rt_tick_get>:
 800582c:	f640 13a8 	movw	r3, #2472	; 0x9a8
 8005830:	f2c2 0300 	movt	r3, #8192	; 0x2000
 8005834:	6818      	ldr	r0, [r3, #0]
 8005836:	4770      	bx	lr

08005838 <rt_tick_increase>:
 8005838:	b508      	push	{r3, lr}
 800583a:	4b09      	ldr	r3, [pc, #36]	; (8005860 <rt_tick_increase+0x28>)
 800583c:	681a      	ldr	r2, [r3, #0]
 800583e:	1c50      	adds	r0, r2, #1
 8005840:	6018      	str	r0, [r3, #0]
 8005842:	f001 fe59 	bl	80074f8 <rt_thread_self>
 8005846:	6c01      	ldr	r1, [r0, #64]	; 0x40
 8005848:	1e4b      	subs	r3, r1, #1
 800584a:	6403      	str	r3, [r0, #64]	; 0x40
 800584c:	b91b      	cbnz	r3, 8005856 <rt_tick_increase+0x1e>
 800584e:	6bc2      	ldr	r2, [r0, #60]	; 0x3c
 8005850:	6402      	str	r2, [r0, #64]	; 0x40
 8005852:	f001 fe7d 	bl	8007550 <rt_thread_yield>
 8005856:	e8bd 4008 	ldmia.w	sp!, {r3, lr}
 800585a:	f002 b8c3 	b.w	80079e4 <rt_timer_check>
 800585e:	bf00      	nop
 8005860:	200009a8 	.word	0x200009a8

08005864 <rt_device_find>:
 8005864:	b5f8      	push	{r3, r4, r5, r6, r7, lr}
 8005866:	4607      	mov	r7, r0
 8005868:	f001 fe46 	bl	80074f8 <rt_thread_self>
 800586c:	b108      	cbz	r0, 8005872 <rt_device_find+0xe>
 800586e:	f001 fd17 	bl	80072a0 <rt_enter_critical>
 8005872:	4e12      	ldr	r6, [pc, #72]	; (80058bc <rt_device_find+0x58>)
 8005874:	f856 4f34 	ldr.w	r4, [r6, #52]!
 8005878:	42b4      	cmp	r4, r6
 800587a:	d103      	bne.n	8005884 <rt_device_find+0x20>
 800587c:	e012      	b.n	80058a4 <rt_device_find+0x40>
 800587e:	6824      	ldr	r4, [r4, #0]
 8005880:	42b4      	cmp	r4, r6
 8005882:	d00f      	beq.n	80058a4 <rt_device_find+0x40>
 8005884:	f1a4 050c 	sub.w	r5, r4, #12
 8005888:	4628      	mov	r0, r5
 800588a:	4639      	mov	r1, r7
 800588c:	2208      	movs	r2, #8
 800588e:	f000 fcf9 	bl	8006284 <rt_strncmp>
 8005892:	2800      	cmp	r0, #0
 8005894:	d1f3      	bne.n	800587e <rt_device_find+0x1a>
 8005896:	f001 fe2f 	bl	80074f8 <rt_thread_self>
 800589a:	b108      	cbz	r0, 80058a0 <rt_device_find+0x3c>
 800589c:	f001 fd0e 	bl	80072bc <rt_exit_critical>
 80058a0:	4628      	mov	r0, r5
 80058a2:	bdf8      	pop	{r3, r4, r5, r6, r7, pc}
 80058a4:	f001 fe28 	bl	80074f8 <rt_thread_self>
 80058a8:	b120      	cbz	r0, 80058b4 <rt_device_find+0x50>
 80058aa:	2500      	movs	r5, #0
 80058ac:	f001 fd06 	bl	80072bc <rt_exit_critical>
 80058b0:	4628      	mov	r0, r5
 80058b2:	bdf8      	pop	{r3, r4, r5, r6, r7, pc}
 80058b4:	4605      	mov	r5, r0
 80058b6:	4628      	mov	r0, r5
 80058b8:	bdf8      	pop	{r3, r4, r5, r6, r7, pc}
 80058ba:	bf00      	nop
 80058bc:	200002c4 	.word	0x200002c4

080058c0 <rt_device_register>:
 80058c0:	b5f8      	push	{r3, r4, r5, r6, r7, lr}
 80058c2:	4604      	mov	r4, r0
 80058c4:	460e      	mov	r6, r1
 80058c6:	4617      	mov	r7, r2
 80058c8:	b168      	cbz	r0, 80058e6 <rt_device_register+0x26>
 80058ca:	4608      	mov	r0, r1
 80058cc:	f7ff ffca 	bl	8005864 <rt_device_find>
 80058d0:	4605      	mov	r5, r0
 80058d2:	b940      	cbnz	r0, 80058e6 <rt_device_register+0x26>
 80058d4:	4620      	mov	r0, r4
 80058d6:	2103      	movs	r1, #3
 80058d8:	4632      	mov	r2, r6
 80058da:	f001 faad 	bl	8006e38 <rt_object_init>
 80058de:	82e7      	strh	r7, [r4, #22]
 80058e0:	76a5      	strb	r5, [r4, #26]
 80058e2:	4628      	mov	r0, r5
 80058e4:	bdf8      	pop	{r3, r4, r5, r6, r7, pc}
 80058e6:	f04f 30ff 	mov.w	r0, #4294967295
 80058ea:	bdf8      	pop	{r3, r4, r5, r6, r7, pc}

080058ec <rt_device_open>:
 80058ec:	b570      	push	{r4, r5, r6, lr}
 80058ee:	4604      	mov	r4, r0
 80058f0:	b082      	sub	sp, #8
 80058f2:	460e      	mov	r6, r1
 80058f4:	2800      	cmp	r0, #0
 80058f6:	d043      	beq.n	8005980 <rt_device_open+0x94>
 80058f8:	8ae5      	ldrh	r5, [r4, #22]
 80058fa:	f005 0210 	and.w	r2, r5, #16
 80058fe:	b290      	uxth	r0, r2
 8005900:	b950      	cbnz	r0, 8005918 <rt_device_open+0x2c>
 8005902:	6a61      	ldr	r1, [r4, #36]	; 0x24
 8005904:	b129      	cbz	r1, 8005912 <rt_device_open+0x26>
 8005906:	4620      	mov	r0, r4
 8005908:	4788      	blx	r1
 800590a:	4605      	mov	r5, r0
 800590c:	2800      	cmp	r0, #0
 800590e:	d131      	bne.n	8005974 <rt_device_open+0x88>
 8005910:	8ae5      	ldrh	r5, [r4, #22]
 8005912:	f045 0510 	orr.w	r5, r5, #16
 8005916:	82e5      	strh	r5, [r4, #22]
 8005918:	f005 0308 	and.w	r3, r5, #8
 800591c:	b29a      	uxth	r2, r3
 800591e:	b99a      	cbnz	r2, 8005948 <rt_device_open+0x5c>
 8005920:	7ea3      	ldrb	r3, [r4, #26]
 8005922:	1c5a      	adds	r2, r3, #1
 8005924:	b2d5      	uxtb	r5, r2
 8005926:	76a5      	strb	r5, [r4, #26]
 8005928:	b1bd      	cbz	r5, 800595a <rt_device_open+0x6e>
 800592a:	6aa5      	ldr	r5, [r4, #40]	; 0x28
 800592c:	b135      	cbz	r5, 800593c <rt_device_open+0x50>
 800592e:	4620      	mov	r0, r4
 8005930:	4631      	mov	r1, r6
 8005932:	47a8      	blx	r5
 8005934:	4605      	mov	r5, r0
 8005936:	b108      	cbz	r0, 800593c <rt_device_open+0x50>
 8005938:	1d83      	adds	r3, r0, #6
 800593a:	d102      	bne.n	8005942 <rt_device_open+0x56>
 800593c:	f046 0608 	orr.w	r6, r6, #8
 8005940:	8326      	strh	r6, [r4, #24]
 8005942:	4628      	mov	r0, r5
 8005944:	b002      	add	sp, #8
 8005946:	bd70      	pop	{r4, r5, r6, pc}
 8005948:	8b20      	ldrh	r0, [r4, #24]
 800594a:	f000 0108 	and.w	r1, r0, #8
 800594e:	b28d      	uxth	r5, r1
 8005950:	2d00      	cmp	r5, #0
 8005952:	d0e5      	beq.n	8005920 <rt_device_open+0x34>
 8005954:	f06f 0506 	mvn.w	r5, #6
 8005958:	e7f3      	b.n	8005942 <rt_device_open+0x56>
 800595a:	4810      	ldr	r0, [pc, #64]	; (800599c <rt_device_open+0xb0>)
 800595c:	4910      	ldr	r1, [pc, #64]	; (80059a0 <rt_device_open+0xb4>)
 800595e:	4a11      	ldr	r2, [pc, #68]	; (80059a4 <rt_device_open+0xb8>)
 8005960:	23f5      	movs	r3, #245	; 0xf5
 8005962:	f88d 5007 	strb.w	r5, [sp, #7]
 8005966:	f000 ff4d 	bl	8006804 <rt_kprintf>
 800596a:	f89d 0007 	ldrb.w	r0, [sp, #7]
 800596e:	2800      	cmp	r0, #0
 8005970:	d0fb      	beq.n	800596a <rt_device_open+0x7e>
 8005972:	e7da      	b.n	800592a <rt_device_open+0x3e>
 8005974:	480c      	ldr	r0, [pc, #48]	; (80059a8 <rt_device_open+0xbc>)
 8005976:	4621      	mov	r1, r4
 8005978:	462a      	mov	r2, r5
 800597a:	f000 ff43 	bl	8006804 <rt_kprintf>
 800597e:	e7e0      	b.n	8005942 <rt_device_open+0x56>
 8005980:	4806      	ldr	r0, [pc, #24]	; (800599c <rt_device_open+0xb0>)
 8005982:	490a      	ldr	r1, [pc, #40]	; (80059ac <rt_device_open+0xc0>)
 8005984:	4a07      	ldr	r2, [pc, #28]	; (80059a4 <rt_device_open+0xb8>)
 8005986:	23d7      	movs	r3, #215	; 0xd7
 8005988:	f88d 4006 	strb.w	r4, [sp, #6]
 800598c:	f000 ff3a 	bl	8006804 <rt_kprintf>
 8005990:	f89d 3006 	ldrb.w	r3, [sp, #6]
 8005994:	2b00      	cmp	r3, #0
 8005996:	d0fb      	beq.n	8005990 <rt_device_open+0xa4>
 8005998:	e7ae      	b.n	80058f8 <rt_device_open+0xc>
 800599a:	bf00      	nop
 800599c:	08008674 	.word	0x08008674
 80059a0:	08008e78 	.word	0x08008e78
 80059a4:	08008e9c 	.word	0x08008e9c
 80059a8:	08008e40 	.word	0x08008e40
 80059ac:	08008e30 	.word	0x08008e30

080059b0 <rt_device_close>:
 80059b0:	b510      	push	{r4, lr}
 80059b2:	4604      	mov	r4, r0
 80059b4:	b082      	sub	sp, #8
 80059b6:	b1a8      	cbz	r0, 80059e4 <rt_device_close+0x34>
 80059b8:	7ea0      	ldrb	r0, [r4, #26]
 80059ba:	2800      	cmp	r0, #0
 80059bc:	d020      	beq.n	8005a00 <rt_device_close+0x50>
 80059be:	1e41      	subs	r1, r0, #1
 80059c0:	b2ca      	uxtb	r2, r1
 80059c2:	76a2      	strb	r2, [r4, #26]
 80059c4:	b962      	cbnz	r2, 80059e0 <rt_device_close+0x30>
 80059c6:	6ae3      	ldr	r3, [r4, #44]	; 0x2c
 80059c8:	b133      	cbz	r3, 80059d8 <rt_device_close+0x28>
 80059ca:	4620      	mov	r0, r4
 80059cc:	4798      	blx	r3
 80059ce:	b120      	cbz	r0, 80059da <rt_device_close+0x2a>
 80059d0:	1d82      	adds	r2, r0, #6
 80059d2:	d002      	beq.n	80059da <rt_device_close+0x2a>
 80059d4:	b002      	add	sp, #8
 80059d6:	bd10      	pop	{r4, pc}
 80059d8:	4618      	mov	r0, r3
 80059da:	2100      	movs	r1, #0
 80059dc:	8321      	strh	r1, [r4, #24]
 80059de:	e7f9      	b.n	80059d4 <rt_device_close+0x24>
 80059e0:	2000      	movs	r0, #0
 80059e2:	e7f7      	b.n	80059d4 <rt_device_close+0x24>
 80059e4:	4808      	ldr	r0, [pc, #32]	; (8005a08 <rt_device_close+0x58>)
 80059e6:	4909      	ldr	r1, [pc, #36]	; (8005a0c <rt_device_close+0x5c>)
 80059e8:	4a09      	ldr	r2, [pc, #36]	; (8005a10 <rt_device_close+0x60>)
 80059ea:	f44f 7388 	mov.w	r3, #272	; 0x110
 80059ee:	f88d 4007 	strb.w	r4, [sp, #7]
 80059f2:	f000 ff07 	bl	8006804 <rt_kprintf>
 80059f6:	f89d 3007 	ldrb.w	r3, [sp, #7]
 80059fa:	2b00      	cmp	r3, #0
 80059fc:	d0fb      	beq.n	80059f6 <rt_device_close+0x46>
 80059fe:	e7db      	b.n	80059b8 <rt_device_close+0x8>
 8005a00:	f04f 30ff 	mov.w	r0, #4294967295
 8005a04:	e7e6      	b.n	80059d4 <rt_device_close+0x24>
 8005a06:	bf00      	nop
 8005a08:	08008674 	.word	0x08008674
 8005a0c:	08008e30 	.word	0x08008e30
 8005a10:	08008e20 	.word	0x08008e20

08005a14 <rt_device_write>:
 8005a14:	e92d 41f0 	stmdb	sp!, {r4, r5, r6, r7, r8, lr}
 8005a18:	4604      	mov	r4, r0
 8005a1a:	b082      	sub	sp, #8
 8005a1c:	4688      	mov	r8, r1
 8005a1e:	4617      	mov	r7, r2
 8005a20:	461e      	mov	r6, r3
 8005a22:	b1b8      	cbz	r0, 8005a54 <rt_device_write+0x40>
 8005a24:	7ea5      	ldrb	r5, [r4, #26]
 8005a26:	b14d      	cbz	r5, 8005a3c <rt_device_write+0x28>
 8005a28:	6b65      	ldr	r5, [r4, #52]	; 0x34
 8005a2a:	b16d      	cbz	r5, 8005a48 <rt_device_write+0x34>
 8005a2c:	4620      	mov	r0, r4
 8005a2e:	4641      	mov	r1, r8
 8005a30:	463a      	mov	r2, r7
 8005a32:	4633      	mov	r3, r6
 8005a34:	47a8      	blx	r5
 8005a36:	b002      	add	sp, #8
 8005a38:	e8bd 81f0 	ldmia.w	sp!, {r4, r5, r6, r7, r8, pc}
 8005a3c:	f04f 30ff 	mov.w	r0, #4294967295
 8005a40:	f000 fb56 	bl	80060f0 <rt_set_errno>
 8005a44:	4628      	mov	r0, r5
 8005a46:	e7f6      	b.n	8005a36 <rt_device_write+0x22>
 8005a48:	f06f 0005 	mvn.w	r0, #5
 8005a4c:	f000 fb50 	bl	80060f0 <rt_set_errno>
 8005a50:	4628      	mov	r0, r5
 8005a52:	e7f0      	b.n	8005a36 <rt_device_write+0x22>
 8005a54:	4806      	ldr	r0, [pc, #24]	; (8005a70 <rt_device_write+0x5c>)
 8005a56:	4907      	ldr	r1, [pc, #28]	; (8005a74 <rt_device_write+0x60>)
 8005a58:	4a07      	ldr	r2, [pc, #28]	; (8005a78 <rt_device_write+0x64>)
 8005a5a:	f240 135f 	movw	r3, #351	; 0x15f
 8005a5e:	f88d 4007 	strb.w	r4, [sp, #7]
 8005a62:	f000 fecf 	bl	8006804 <rt_kprintf>
 8005a66:	f89d 3007 	ldrb.w	r3, [sp, #7]
 8005a6a:	2b00      	cmp	r3, #0
 8005a6c:	d0fb      	beq.n	8005a66 <rt_device_write+0x52>
 8005a6e:	e7d9      	b.n	8005a24 <rt_device_write+0x10>
 8005a70:	08008674 	.word	0x08008674
 8005a74:	08008e30 	.word	0x08008e30
 8005a78:	08008e8c 	.word	0x08008e8c

08005a7c <rt_thread_idle_excute>:
 8005a7c:	e92d 41f0 	stmdb	sp!, {r4, r5, r6, r7, r8, lr}
 8005a80:	4d25      	ldr	r5, [pc, #148]	; (8005b18 <rt_thread_idle_excute+0x9c>)
 8005a82:	b082      	sub	sp, #8
 8005a84:	682b      	ldr	r3, [r5, #0]
 8005a86:	42ab      	cmp	r3, r5
 8005a88:	d042      	beq.n	8005b10 <rt_thread_idle_excute+0x94>
 8005a8a:	2700      	movs	r7, #0
 8005a8c:	e026      	b.n	8005adc <rt_thread_idle_excute+0x60>
 8005a8e:	4620      	mov	r0, r4
 8005a90:	f7fa fb40 	bl	8000114 <rt_hw_interrupt_enable>
 8005a94:	f7fa fb3a 	bl	800010c <rt_hw_interrupt_disable>
 8005a98:	682c      	ldr	r4, [r5, #0]
 8005a9a:	4680      	mov	r8, r0
 8005a9c:	42ac      	cmp	r4, r5
 8005a9e:	d035      	beq.n	8005b0c <rt_thread_idle_excute+0x90>
 8005aa0:	6823      	ldr	r3, [r4, #0]
 8005aa2:	6861      	ldr	r1, [r4, #4]
 8005aa4:	6de2      	ldr	r2, [r4, #92]	; 0x5c
 8005aa6:	6059      	str	r1, [r3, #4]
 8005aa8:	6860      	ldr	r0, [r4, #4]
 8005aaa:	f1a4 0614 	sub.w	r6, r4, #20
 8005aae:	6003      	str	r3, [r0, #0]
 8005ab0:	6064      	str	r4, [r4, #4]
 8005ab2:	6024      	str	r4, [r4, #0]
 8005ab4:	b10a      	cbz	r2, 8005aba <rt_thread_idle_excute+0x3e>
 8005ab6:	4630      	mov	r0, r6
 8005ab8:	4790      	blx	r2
 8005aba:	4630      	mov	r0, r6
 8005abc:	f001 faa8 	bl	8007010 <rt_object_is_systemobject>
 8005ac0:	2801      	cmp	r0, #1
 8005ac2:	4640      	mov	r0, r8
 8005ac4:	d022      	beq.n	8005b0c <rt_thread_idle_excute+0x90>
 8005ac6:	f7fa fb25 	bl	8000114 <rt_hw_interrupt_enable>
 8005aca:	6960      	ldr	r0, [r4, #20]
 8005acc:	f001 f8fa 	bl	8006cc4 <rt_free>
 8005ad0:	4630      	mov	r0, r6
 8005ad2:	f001 fa55 	bl	8006f80 <rt_object_delete>
 8005ad6:	682b      	ldr	r3, [r5, #0]
 8005ad8:	42ab      	cmp	r3, r5
 8005ada:	d019      	beq.n	8005b10 <rt_thread_idle_excute+0x94>
 8005adc:	f7fa fb16 	bl	800010c <rt_hw_interrupt_disable>
 8005ae0:	4604      	mov	r4, r0
 8005ae2:	f000 f9c3 	bl	8005e6c <rt_interrupt_get_nest>
 8005ae6:	2800      	cmp	r0, #0
 8005ae8:	d0d1      	beq.n	8005a8e <rt_thread_idle_excute+0x12>
 8005aea:	480c      	ldr	r0, [pc, #48]	; (8005b1c <rt_thread_idle_excute+0xa0>)
 8005aec:	490c      	ldr	r1, [pc, #48]	; (8005b20 <rt_thread_idle_excute+0xa4>)
 8005aee:	f000 fe89 	bl	8006804 <rt_kprintf>
 8005af2:	480c      	ldr	r0, [pc, #48]	; (8005b24 <rt_thread_idle_excute+0xa8>)
 8005af4:	490c      	ldr	r1, [pc, #48]	; (8005b28 <rt_thread_idle_excute+0xac>)
 8005af6:	4a0a      	ldr	r2, [pc, #40]	; (8005b20 <rt_thread_idle_excute+0xa4>)
 8005af8:	2356      	movs	r3, #86	; 0x56
 8005afa:	f88d 7007 	strb.w	r7, [sp, #7]
 8005afe:	f000 fe81 	bl	8006804 <rt_kprintf>
 8005b02:	f89d 0007 	ldrb.w	r0, [sp, #7]
 8005b06:	2800      	cmp	r0, #0
 8005b08:	d0fb      	beq.n	8005b02 <rt_thread_idle_excute+0x86>
 8005b0a:	e7c0      	b.n	8005a8e <rt_thread_idle_excute+0x12>
 8005b0c:	f7fa fb02 	bl	8000114 <rt_hw_interrupt_enable>
 8005b10:	b002      	add	sp, #8
 8005b12:	e8bd 81f0 	ldmia.w	sp!, {r4, r5, r6, r7, r8, pc}
 8005b16:	bf00      	nop
 8005b18:	20001dd4 	.word	0x20001dd4
 8005b1c:	08008ec4 	.word	0x08008ec4
 8005b20:	08008eac 	.word	0x08008eac
 8005b24:	08008674 	.word	0x08008674
 8005b28:	080092a0 	.word	0x080092a0

08005b2c <rt_thread_idle_entry>:
 8005b2c:	b510      	push	{r4, lr}
 8005b2e:	4c03      	ldr	r4, [pc, #12]	; (8005b3c <rt_thread_idle_entry+0x10>)
 8005b30:	6823      	ldr	r3, [r4, #0]
 8005b32:	b103      	cbz	r3, 8005b36 <rt_thread_idle_entry+0xa>
 8005b34:	4798      	blx	r3
 8005b36:	f7ff ffa1 	bl	8005a7c <rt_thread_idle_excute>
 8005b3a:	e7f9      	b.n	8005b30 <rt_thread_idle_entry+0x4>
 8005b3c:	20000a24 	.word	0x20000a24

08005b40 <rt_thread_idle_init>:
 8005b40:	b510      	push	{r4, lr}
 8005b42:	211f      	movs	r1, #31
 8005b44:	b084      	sub	sp, #16
 8005b46:	2220      	movs	r2, #32
 8005b48:	f640 14ac 	movw	r4, #2476	; 0x9ac
 8005b4c:	f640 2328 	movw	r3, #2600	; 0xa28
 8005b50:	f2c2 0400 	movt	r4, #8192	; 0x2000
 8005b54:	9102      	str	r1, [sp, #8]
 8005b56:	9203      	str	r2, [sp, #12]
 8005b58:	f2c2 0300 	movt	r3, #8192	; 0x2000
 8005b5c:	f44f 7080 	mov.w	r0, #256	; 0x100
 8005b60:	f648 61e8 	movw	r1, #36584	; 0x8ee8
 8005b64:	f645 322d 	movw	r2, #23341	; 0x5b2d
 8005b68:	9300      	str	r3, [sp, #0]
 8005b6a:	9001      	str	r0, [sp, #4]
 8005b6c:	f6c0 0100 	movt	r1, #2048	; 0x800
 8005b70:	4620      	mov	r0, r4
 8005b72:	f6c0 0200 	movt	r2, #2048	; 0x800
 8005b76:	2300      	movs	r3, #0
 8005b78:	f001 fc7a 	bl	8007470 <rt_thread_init>
 8005b7c:	4620      	mov	r0, r4
 8005b7e:	b004      	add	sp, #16
 8005b80:	e8bd 4010 	ldmia.w	sp!, {r4, lr}
 8005b84:	f001 bdb4 	b.w	80076f0 <rt_thread_startup>

08005b88 <rt_sem_init>:
 8005b88:	b5f0      	push	{r4, r5, r6, r7, lr}
 8005b8a:	4604      	mov	r4, r0
 8005b8c:	b083      	sub	sp, #12
 8005b8e:	460f      	mov	r7, r1
 8005b90:	4615      	mov	r5, r2
 8005b92:	461e      	mov	r6, r3
 8005b94:	b168      	cbz	r0, 8005bb2 <rt_sem_init+0x2a>
 8005b96:	4620      	mov	r0, r4
 8005b98:	2101      	movs	r1, #1
 8005b9a:	463a      	mov	r2, r7
 8005b9c:	f001 f94c 	bl	8006e38 <rt_object_init>
 8005ba0:	f104 0114 	add.w	r1, r4, #20
 8005ba4:	61a1      	str	r1, [r4, #24]
 8005ba6:	6161      	str	r1, [r4, #20]
 8005ba8:	83a5      	strh	r5, [r4, #28]
 8005baa:	7266      	strb	r6, [r4, #9]
 8005bac:	2000      	movs	r0, #0
 8005bae:	b003      	add	sp, #12
 8005bb0:	bdf0      	pop	{r4, r5, r6, r7, pc}
 8005bb2:	4806      	ldr	r0, [pc, #24]	; (8005bcc <rt_sem_init+0x44>)
 8005bb4:	4906      	ldr	r1, [pc, #24]	; (8005bd0 <rt_sem_init+0x48>)
 8005bb6:	4a07      	ldr	r2, [pc, #28]	; (8005bd4 <rt_sem_init+0x4c>)
 8005bb8:	23d8      	movs	r3, #216	; 0xd8
 8005bba:	f88d 4007 	strb.w	r4, [sp, #7]
 8005bbe:	f000 fe21 	bl	8006804 <rt_kprintf>
 8005bc2:	f89d 0007 	ldrb.w	r0, [sp, #7]
 8005bc6:	2800      	cmp	r0, #0
 8005bc8:	d0fb      	beq.n	8005bc2 <rt_sem_init+0x3a>
 8005bca:	e7e4      	b.n	8005b96 <rt_sem_init+0xe>
 8005bcc:	08008674 	.word	0x08008674
 8005bd0:	08008f00 	.word	0x08008f00
 8005bd4:	08008f54 	.word	0x08008f54

08005bd8 <rt_sem_create>:
 8005bd8:	b5f0      	push	{r4, r5, r6, r7, lr}
 8005bda:	b083      	sub	sp, #12
 8005bdc:	4605      	mov	r5, r0
 8005bde:	460f      	mov	r7, r1
 8005be0:	4616      	mov	r6, r2
 8005be2:	f7fa fa93 	bl	800010c <rt_hw_interrupt_disable>
 8005be6:	4604      	mov	r4, r0
 8005be8:	f000 f940 	bl	8005e6c <rt_interrupt_get_nest>
 8005bec:	b978      	cbnz	r0, 8005c0e <rt_sem_create+0x36>
 8005bee:	4620      	mov	r0, r4
 8005bf0:	f7fa fa90 	bl	8000114 <rt_hw_interrupt_enable>
 8005bf4:	2001      	movs	r0, #1
 8005bf6:	4629      	mov	r1, r5
 8005bf8:	f001 f972 	bl	8006ee0 <rt_object_allocate>
 8005bfc:	b128      	cbz	r0, 8005c0a <rt_sem_create+0x32>
 8005bfe:	f100 0114 	add.w	r1, r0, #20
 8005c02:	6181      	str	r1, [r0, #24]
 8005c04:	6141      	str	r1, [r0, #20]
 8005c06:	8387      	strh	r7, [r0, #28]
 8005c08:	7246      	strb	r6, [r0, #9]
 8005c0a:	b003      	add	sp, #12
 8005c0c:	bdf0      	pop	{r4, r5, r6, r7, pc}
 8005c0e:	480a      	ldr	r0, [pc, #40]	; (8005c38 <rt_sem_create+0x60>)
 8005c10:	490a      	ldr	r1, [pc, #40]	; (8005c3c <rt_sem_create+0x64>)
 8005c12:	f000 fdf7 	bl	8006804 <rt_kprintf>
 8005c16:	f04f 0e00 	mov.w	lr, #0
 8005c1a:	4809      	ldr	r0, [pc, #36]	; (8005c40 <rt_sem_create+0x68>)
 8005c1c:	4909      	ldr	r1, [pc, #36]	; (8005c44 <rt_sem_create+0x6c>)
 8005c1e:	4a07      	ldr	r2, [pc, #28]	; (8005c3c <rt_sem_create+0x64>)
 8005c20:	f240 1311 	movw	r3, #273	; 0x111
 8005c24:	f88d e007 	strb.w	lr, [sp, #7]
 8005c28:	f000 fdec 	bl	8006804 <rt_kprintf>
 8005c2c:	f89d 3007 	ldrb.w	r3, [sp, #7]
 8005c30:	2b00      	cmp	r3, #0
 8005c32:	d0fb      	beq.n	8005c2c <rt_sem_create+0x54>
 8005c34:	e7db      	b.n	8005bee <rt_sem_create+0x16>
 8005c36:	bf00      	nop
 8005c38:	08008ec4 	.word	0x08008ec4
 8005c3c:	08008ef0 	.word	0x08008ef0
 8005c40:	08008674 	.word	0x08008674
 8005c44:	080092a0 	.word	0x080092a0

08005c48 <rt_sem_take>:
 8005c48:	e92d 41f0 	stmdb	sp!, {r4, r5, r6, r7, r8, lr}
 8005c4c:	b084      	sub	sp, #16
 8005c4e:	4604      	mov	r4, r0
 8005c50:	9101      	str	r1, [sp, #4]
 8005c52:	2800      	cmp	r0, #0
 8005c54:	f000 8092 	beq.w	8005d7c <rt_sem_take+0x134>
 8005c58:	485b      	ldr	r0, [pc, #364]	; (8005dc8 <rt_sem_take+0x180>)
 8005c5a:	6801      	ldr	r1, [r0, #0]
 8005c5c:	b109      	cbz	r1, 8005c62 <rt_sem_take+0x1a>
 8005c5e:	4620      	mov	r0, r4
 8005c60:	4788      	blx	r1
 8005c62:	f7fa fa53 	bl	800010c <rt_hw_interrupt_disable>
 8005c66:	8ba2      	ldrh	r2, [r4, #28]
 8005c68:	4607      	mov	r7, r0
 8005c6a:	2a00      	cmp	r2, #0
 8005c6c:	d160      	bne.n	8005d30 <rt_sem_take+0xe8>
 8005c6e:	9b01      	ldr	r3, [sp, #4]
 8005c70:	2b00      	cmp	r3, #0
 8005c72:	f000 80a3 	beq.w	8005dbc <rt_sem_take+0x174>
 8005c76:	f7fa fa49 	bl	800010c <rt_hw_interrupt_disable>
 8005c7a:	4606      	mov	r6, r0
 8005c7c:	f001 fc3c 	bl	80074f8 <rt_thread_self>
 8005c80:	4605      	mov	r5, r0
 8005c82:	2800      	cmp	r0, #0
 8005c84:	f000 8088 	beq.w	8005d98 <rt_sem_take+0x150>
 8005c88:	f7fa fa40 	bl	800010c <rt_hw_interrupt_disable>
 8005c8c:	4605      	mov	r5, r0
 8005c8e:	f000 f8ed 	bl	8005e6c <rt_interrupt_get_nest>
 8005c92:	2800      	cmp	r0, #0
 8005c94:	d156      	bne.n	8005d44 <rt_sem_take+0xfc>
 8005c96:	4628      	mov	r0, r5
 8005c98:	f7fa fa3c 	bl	8000114 <rt_hw_interrupt_enable>
 8005c9c:	4630      	mov	r0, r6
 8005c9e:	f7fa fa39 	bl	8000114 <rt_hw_interrupt_enable>
 8005ca2:	f001 fc29 	bl	80074f8 <rt_thread_self>
 8005ca6:	2200      	movs	r2, #0
 8005ca8:	6302      	str	r2, [r0, #48]	; 0x30
 8005caa:	f894 8009 	ldrb.w	r8, [r4, #9]
 8005cae:	4605      	mov	r5, r0
 8005cb0:	f104 0614 	add.w	r6, r4, #20
 8005cb4:	f001 fc7a 	bl	80075ac <rt_thread_suspend>
 8005cb8:	f1b8 0f00 	cmp.w	r8, #0
 8005cbc:	d123      	bne.n	8005d06 <rt_sem_take+0xbe>
 8005cbe:	69a2      	ldr	r2, [r4, #24]
 8005cc0:	f105 0314 	add.w	r3, r5, #20
 8005cc4:	6013      	str	r3, [r2, #0]
 8005cc6:	61aa      	str	r2, [r5, #24]
 8005cc8:	616e      	str	r6, [r5, #20]
 8005cca:	61a3      	str	r3, [r4, #24]
 8005ccc:	9801      	ldr	r0, [sp, #4]
 8005cce:	2800      	cmp	r0, #0
 8005cd0:	dd09      	ble.n	8005ce6 <rt_sem_take+0x9e>
 8005cd2:	f105 0644 	add.w	r6, r5, #68	; 0x44
 8005cd6:	4630      	mov	r0, r6
 8005cd8:	2100      	movs	r1, #0
 8005cda:	aa01      	add	r2, sp, #4
 8005cdc:	f001 fe50 	bl	8007980 <rt_timer_control>
 8005ce0:	4630      	mov	r0, r6
 8005ce2:	f001 fda3 	bl	800782c <rt_timer_start>
 8005ce6:	4638      	mov	r0, r7
 8005ce8:	f7fa fa14 	bl	8000114 <rt_hw_interrupt_enable>
 8005cec:	f001 f9f6 	bl	80070dc <rt_schedule>
 8005cf0:	6b28      	ldr	r0, [r5, #48]	; 0x30
 8005cf2:	b928      	cbnz	r0, 8005d00 <rt_sem_take+0xb8>
 8005cf4:	4a35      	ldr	r2, [pc, #212]	; (8005dcc <rt_sem_take+0x184>)
 8005cf6:	6813      	ldr	r3, [r2, #0]
 8005cf8:	b313      	cbz	r3, 8005d40 <rt_sem_take+0xf8>
 8005cfa:	4620      	mov	r0, r4
 8005cfc:	4798      	blx	r3
 8005cfe:	2000      	movs	r0, #0
 8005d00:	b004      	add	sp, #16
 8005d02:	e8bd 81f0 	ldmia.w	sp!, {r4, r5, r6, r7, r8, pc}
 8005d06:	f1b8 0f01 	cmp.w	r8, #1
 8005d0a:	d1df      	bne.n	8005ccc <rt_sem_take+0x84>
 8005d0c:	6963      	ldr	r3, [r4, #20]
 8005d0e:	429e      	cmp	r6, r3
 8005d10:	d0d5      	beq.n	8005cbe <rt_sem_take+0x76>
 8005d12:	f895 1035 	ldrb.w	r1, [r5, #53]	; 0x35
 8005d16:	f893 0021 	ldrb.w	r0, [r3, #33]	; 0x21
 8005d1a:	4288      	cmp	r0, r1
 8005d1c:	d904      	bls.n	8005d28 <rt_sem_take+0xe0>
 8005d1e:	e025      	b.n	8005d6c <rt_sem_take+0x124>
 8005d20:	f893 2021 	ldrb.w	r2, [r3, #33]	; 0x21
 8005d24:	428a      	cmp	r2, r1
 8005d26:	d821      	bhi.n	8005d6c <rt_sem_take+0x124>
 8005d28:	681b      	ldr	r3, [r3, #0]
 8005d2a:	429e      	cmp	r6, r3
 8005d2c:	d1f8      	bne.n	8005d20 <rt_sem_take+0xd8>
 8005d2e:	e7c6      	b.n	8005cbe <rt_sem_take+0x76>
 8005d30:	1e51      	subs	r1, r2, #1
 8005d32:	83a1      	strh	r1, [r4, #28]
 8005d34:	f7fa f9ee 	bl	8000114 <rt_hw_interrupt_enable>
 8005d38:	4a24      	ldr	r2, [pc, #144]	; (8005dcc <rt_sem_take+0x184>)
 8005d3a:	6813      	ldr	r3, [r2, #0]
 8005d3c:	2b00      	cmp	r3, #0
 8005d3e:	d1dc      	bne.n	8005cfa <rt_sem_take+0xb2>
 8005d40:	4618      	mov	r0, r3
 8005d42:	e7dd      	b.n	8005d00 <rt_sem_take+0xb8>
 8005d44:	4822      	ldr	r0, [pc, #136]	; (8005dd0 <rt_sem_take+0x188>)
 8005d46:	4923      	ldr	r1, [pc, #140]	; (8005dd4 <rt_sem_take+0x18c>)
 8005d48:	f000 fd5c 	bl	8006804 <rt_kprintf>
 8005d4c:	f04f 0e00 	mov.w	lr, #0
 8005d50:	4821      	ldr	r0, [pc, #132]	; (8005dd8 <rt_sem_take+0x190>)
 8005d52:	4922      	ldr	r1, [pc, #136]	; (8005ddc <rt_sem_take+0x194>)
 8005d54:	4a1f      	ldr	r2, [pc, #124]	; (8005dd4 <rt_sem_take+0x18c>)
 8005d56:	f240 136d 	movw	r3, #365	; 0x16d
 8005d5a:	f88d e00f 	strb.w	lr, [sp, #15]
 8005d5e:	f000 fd51 	bl	8006804 <rt_kprintf>
 8005d62:	f89d 100f 	ldrb.w	r1, [sp, #15]
 8005d66:	2900      	cmp	r1, #0
 8005d68:	d0fb      	beq.n	8005d62 <rt_sem_take+0x11a>
 8005d6a:	e794      	b.n	8005c96 <rt_sem_take+0x4e>
 8005d6c:	6858      	ldr	r0, [r3, #4]
 8005d6e:	f105 0114 	add.w	r1, r5, #20
 8005d72:	6001      	str	r1, [r0, #0]
 8005d74:	61a8      	str	r0, [r5, #24]
 8005d76:	616b      	str	r3, [r5, #20]
 8005d78:	6059      	str	r1, [r3, #4]
 8005d7a:	e7a7      	b.n	8005ccc <rt_sem_take+0x84>
 8005d7c:	4816      	ldr	r0, [pc, #88]	; (8005dd8 <rt_sem_take+0x190>)
 8005d7e:	4918      	ldr	r1, [pc, #96]	; (8005de0 <rt_sem_take+0x198>)
 8005d80:	4a14      	ldr	r2, [pc, #80]	; (8005dd4 <rt_sem_take+0x18c>)
 8005d82:	f240 134d 	movw	r3, #333	; 0x14d
 8005d86:	f88d 400d 	strb.w	r4, [sp, #13]
 8005d8a:	f000 fd3b 	bl	8006804 <rt_kprintf>
 8005d8e:	f89d 300d 	ldrb.w	r3, [sp, #13]
 8005d92:	2b00      	cmp	r3, #0
 8005d94:	d0fb      	beq.n	8005d8e <rt_sem_take+0x146>
 8005d96:	e75f      	b.n	8005c58 <rt_sem_take+0x10>
 8005d98:	4812      	ldr	r0, [pc, #72]	; (8005de4 <rt_sem_take+0x19c>)
 8005d9a:	490e      	ldr	r1, [pc, #56]	; (8005dd4 <rt_sem_take+0x18c>)
 8005d9c:	f000 fd32 	bl	8006804 <rt_kprintf>
 8005da0:	480d      	ldr	r0, [pc, #52]	; (8005dd8 <rt_sem_take+0x190>)
 8005da2:	490e      	ldr	r1, [pc, #56]	; (8005ddc <rt_sem_take+0x194>)
 8005da4:	4a0b      	ldr	r2, [pc, #44]	; (8005dd4 <rt_sem_take+0x18c>)
 8005da6:	f240 136d 	movw	r3, #365	; 0x16d
 8005daa:	f88d 500e 	strb.w	r5, [sp, #14]
 8005dae:	f000 fd29 	bl	8006804 <rt_kprintf>
 8005db2:	f89d 000e 	ldrb.w	r0, [sp, #14]
 8005db6:	2800      	cmp	r0, #0
 8005db8:	d0fb      	beq.n	8005db2 <rt_sem_take+0x16a>
 8005dba:	e765      	b.n	8005c88 <rt_sem_take+0x40>
 8005dbc:	f7fa f9aa 	bl	8000114 <rt_hw_interrupt_enable>
 8005dc0:	f06f 0001 	mvn.w	r0, #1
 8005dc4:	e79c      	b.n	8005d00 <rt_sem_take+0xb8>
 8005dc6:	bf00      	nop
 8005dc8:	20001cc4 	.word	0x20001cc4
 8005dcc:	20001cc0 	.word	0x20001cc0
 8005dd0:	08008ec4 	.word	0x08008ec4
 8005dd4:	08008f48 	.word	0x08008f48
 8005dd8:	08008674 	.word	0x08008674
 8005ddc:	080092a0 	.word	0x080092a0
 8005de0:	08008f00 	.word	0x08008f00
 8005de4:	08008f10 	.word	0x08008f10

08005de8 <rt_sem_release>:
 8005de8:	b538      	push	{r3, r4, r5, lr}
 8005dea:	4b0f      	ldr	r3, [pc, #60]	; (8005e28 <rt_sem_release+0x40>)
 8005dec:	4604      	mov	r4, r0
 8005dee:	6819      	ldr	r1, [r3, #0]
 8005df0:	b101      	cbz	r1, 8005df4 <rt_sem_release+0xc>
 8005df2:	4788      	blx	r1
 8005df4:	f7fa f98a 	bl	800010c <rt_hw_interrupt_disable>
 8005df8:	4623      	mov	r3, r4
 8005dfa:	f853 2f14 	ldr.w	r2, [r3, #20]!
 8005dfe:	4605      	mov	r5, r0
 8005e00:	429a      	cmp	r2, r3
 8005e02:	d00a      	beq.n	8005e1a <rt_sem_release+0x32>
 8005e04:	f1a2 0014 	sub.w	r0, r2, #20
 8005e08:	f001 fc3a 	bl	8007680 <rt_thread_resume>
 8005e0c:	4628      	mov	r0, r5
 8005e0e:	f7fa f981 	bl	8000114 <rt_hw_interrupt_enable>
 8005e12:	f001 f963 	bl	80070dc <rt_schedule>
 8005e16:	2000      	movs	r0, #0
 8005e18:	bd38      	pop	{r3, r4, r5, pc}
 8005e1a:	8ba1      	ldrh	r1, [r4, #28]
 8005e1c:	1c4b      	adds	r3, r1, #1
 8005e1e:	83a3      	strh	r3, [r4, #28]
 8005e20:	f7fa f978 	bl	8000114 <rt_hw_interrupt_enable>
 8005e24:	2000      	movs	r0, #0
 8005e26:	bd38      	pop	{r3, r4, r5, pc}
 8005e28:	20001cbc 	.word	0x20001cbc

08005e2c <rt_interrupt_enter>:
 8005e2c:	b508      	push	{r3, lr}
 8005e2e:	f7fa f96d 	bl	800010c <rt_hw_interrupt_disable>
 8005e32:	f641 43b9 	movw	r3, #7353	; 0x1cb9
 8005e36:	f2c2 0300 	movt	r3, #8192	; 0x2000
 8005e3a:	781a      	ldrb	r2, [r3, #0]
 8005e3c:	1c51      	adds	r1, r2, #1
 8005e3e:	b2ca      	uxtb	r2, r1
 8005e40:	701a      	strb	r2, [r3, #0]
 8005e42:	e8bd 4008 	ldmia.w	sp!, {r3, lr}
 8005e46:	f7fa b965 	b.w	8000114 <rt_hw_interrupt_enable>
 8005e4a:	bf00      	nop

08005e4c <rt_interrupt_leave>:
 8005e4c:	b508      	push	{r3, lr}
 8005e4e:	f7fa f95d 	bl	800010c <rt_hw_interrupt_disable>
 8005e52:	f641 43b9 	movw	r3, #7353	; 0x1cb9
 8005e56:	f2c2 0300 	movt	r3, #8192	; 0x2000
 8005e5a:	781a      	ldrb	r2, [r3, #0]
 8005e5c:	1e51      	subs	r1, r2, #1
 8005e5e:	b2ca      	uxtb	r2, r1
 8005e60:	701a      	strb	r2, [r3, #0]
 8005e62:	e8bd 4008 	ldmia.w	sp!, {r3, lr}
 8005e66:	f7fa b955 	b.w	8000114 <rt_hw_interrupt_enable>
 8005e6a:	bf00      	nop

08005e6c <rt_interrupt_get_nest>:
 8005e6c:	f641 43b9 	movw	r3, #7353	; 0x1cb9
 8005e70:	f2c2 0300 	movt	r3, #8192	; 0x2000
 8005e74:	7818      	ldrb	r0, [r3, #0]
 8005e76:	4770      	bx	lr

08005e78 <print_number>:
 8005e78:	e92d 0ff0 	stmdb	sp!, {r4, r5, r6, r7, r8, r9, sl, fp}
 8005e7c:	b084      	sub	sp, #16
 8005e7e:	9e0e      	ldr	r6, [sp, #56]	; 0x38
 8005e80:	4c99      	ldr	r4, [pc, #612]	; (80060e8 <print_number+0x270>)
 8005e82:	4f9a      	ldr	r7, [pc, #616]	; (80060ec <print_number+0x274>)
 8005e84:	f016 0f40 	tst.w	r6, #64	; 0x40
 8005e88:	bf18      	it	ne
 8005e8a:	4627      	movne	r7, r4
 8005e8c:	f016 0910 	ands.w	r9, r6, #16
 8005e90:	bf18      	it	ne
 8005e92:	f026 0601 	bicne.w	r6, r6, #1
 8005e96:	f016 0f01 	tst.w	r6, #1
 8005e9a:	bf0c      	ite	eq
 8005e9c:	f04f 0c20 	moveq.w	ip, #32
 8005ea0:	f04f 0c30 	movne.w	ip, #48	; 0x30
 8005ea4:	f016 0802 	ands.w	r8, r6, #2
 8005ea8:	d007      	beq.n	8005eba <print_number+0x42>
 8005eaa:	2a00      	cmp	r2, #0
 8005eac:	f2c0 80e3 	blt.w	8006076 <print_number+0x1fe>
 8005eb0:	0774      	lsls	r4, r6, #29
 8005eb2:	f140 8108 	bpl.w	80060c6 <print_number+0x24e>
 8005eb6:	f04f 082b 	mov.w	r8, #43	; 0x2b
 8005eba:	2a00      	cmp	r2, #0
 8005ebc:	f040 80de 	bne.w	800607c <print_number+0x204>
 8005ec0:	2330      	movs	r3, #48	; 0x30
 8005ec2:	f88d 3000 	strb.w	r3, [sp]
 8005ec6:	2401      	movs	r4, #1
 8005ec8:	9b0d      	ldr	r3, [sp, #52]	; 0x34
 8005eca:	9f0c      	ldr	r7, [sp, #48]	; 0x30
 8005ecc:	429c      	cmp	r4, r3
 8005ece:	bfa8      	it	ge
 8005ed0:	4623      	movge	r3, r4
 8005ed2:	f016 0f11 	tst.w	r6, #17
 8005ed6:	ebc3 0707 	rsb	r7, r3, r7
 8005eda:	d126      	bne.n	8005f2a <print_number+0xb2>
 8005edc:	f1b8 0f00 	cmp.w	r8, #0
 8005ee0:	f040 80bd 	bne.w	800605e <print_number+0x1e6>
 8005ee4:	1e7d      	subs	r5, r7, #1
 8005ee6:	2f00      	cmp	r7, #0
 8005ee8:	f340 80f7 	ble.w	80060da <print_number+0x262>
 8005eec:	43c6      	mvns	r6, r0
 8005eee:	19c7      	adds	r7, r0, r7
 8005ef0:	19bd      	adds	r5, r7, r6
 8005ef2:	2620      	movs	r6, #32
 8005ef4:	4281      	cmp	r1, r0
 8005ef6:	f005 0501 	and.w	r5, r5, #1
 8005efa:	d300      	bcc.n	8005efe <print_number+0x86>
 8005efc:	7006      	strb	r6, [r0, #0]
 8005efe:	3001      	adds	r0, #1
 8005f00:	42b8      	cmp	r0, r7
 8005f02:	d010      	beq.n	8005f26 <print_number+0xae>
 8005f04:	b12d      	cbz	r5, 8005f12 <print_number+0x9a>
 8005f06:	4281      	cmp	r1, r0
 8005f08:	bf28      	it	cs
 8005f0a:	7006      	strbcs	r6, [r0, #0]
 8005f0c:	3001      	adds	r0, #1
 8005f0e:	42b8      	cmp	r0, r7
 8005f10:	d009      	beq.n	8005f26 <print_number+0xae>
 8005f12:	1c45      	adds	r5, r0, #1
 8005f14:	4281      	cmp	r1, r0
 8005f16:	bf28      	it	cs
 8005f18:	7006      	strbcs	r6, [r0, #0]
 8005f1a:	42a9      	cmp	r1, r5
 8005f1c:	d300      	bcc.n	8005f20 <print_number+0xa8>
 8005f1e:	7046      	strb	r6, [r0, #1]
 8005f20:	1c68      	adds	r0, r5, #1
 8005f22:	42b8      	cmp	r0, r7
 8005f24:	d1f5      	bne.n	8005f12 <print_number+0x9a>
 8005f26:	f04f 37ff 	mov.w	r7, #4294967295
 8005f2a:	f1b8 0f00 	cmp.w	r8, #0
 8005f2e:	f040 809b 	bne.w	8006068 <print_number+0x1f0>
 8005f32:	f1b9 0f00 	cmp.w	r9, #0
 8005f36:	d125      	bne.n	8005f84 <print_number+0x10c>
 8005f38:	1e7d      	subs	r5, r7, #1
 8005f3a:	2f00      	cmp	r7, #0
 8005f3c:	f340 80cb 	ble.w	80060d6 <print_number+0x25e>
 8005f40:	43c5      	mvns	r5, r0
 8005f42:	19c7      	adds	r7, r0, r7
 8005f44:	197d      	adds	r5, r7, r5
 8005f46:	4281      	cmp	r1, r0
 8005f48:	f005 0501 	and.w	r5, r5, #1
 8005f4c:	d301      	bcc.n	8005f52 <print_number+0xda>
 8005f4e:	f880 c000 	strb.w	ip, [r0]
 8005f52:	3001      	adds	r0, #1
 8005f54:	42b8      	cmp	r0, r7
 8005f56:	d013      	beq.n	8005f80 <print_number+0x108>
 8005f58:	b135      	cbz	r5, 8005f68 <print_number+0xf0>
 8005f5a:	4281      	cmp	r1, r0
 8005f5c:	bf28      	it	cs
 8005f5e:	f880 c000 	strbcs.w	ip, [r0]
 8005f62:	3001      	adds	r0, #1
 8005f64:	42b8      	cmp	r0, r7
 8005f66:	d00b      	beq.n	8005f80 <print_number+0x108>
 8005f68:	1c45      	adds	r5, r0, #1
 8005f6a:	4281      	cmp	r1, r0
 8005f6c:	bf28      	it	cs
 8005f6e:	f880 c000 	strbcs.w	ip, [r0]
 8005f72:	42a9      	cmp	r1, r5
 8005f74:	d301      	bcc.n	8005f7a <print_number+0x102>
 8005f76:	f880 c001 	strb.w	ip, [r0, #1]
 8005f7a:	1c68      	adds	r0, r5, #1
 8005f7c:	42b8      	cmp	r0, r7
 8005f7e:	d1f3      	bne.n	8005f68 <print_number+0xf0>
 8005f80:	f04f 37ff 	mov.w	r7, #4294967295
 8005f84:	429c      	cmp	r4, r3
 8005f86:	da1d      	bge.n	8005fc4 <print_number+0x14c>
 8005f88:	1b1d      	subs	r5, r3, r4
 8005f8a:	1944      	adds	r4, r0, r5
 8005f8c:	43c3      	mvns	r3, r0
 8005f8e:	18e3      	adds	r3, r4, r3
 8005f90:	2530      	movs	r5, #48	; 0x30
 8005f92:	4281      	cmp	r1, r0
 8005f94:	f003 0301 	and.w	r3, r3, #1
 8005f98:	f080 8093 	bcs.w	80060c2 <print_number+0x24a>
 8005f9c:	3001      	adds	r0, #1
 8005f9e:	42a0      	cmp	r0, r4
 8005fa0:	d010      	beq.n	8005fc4 <print_number+0x14c>
 8005fa2:	b12b      	cbz	r3, 8005fb0 <print_number+0x138>
 8005fa4:	4281      	cmp	r1, r0
 8005fa6:	bf28      	it	cs
 8005fa8:	7005      	strbcs	r5, [r0, #0]
 8005faa:	3001      	adds	r0, #1
 8005fac:	42a0      	cmp	r0, r4
 8005fae:	d009      	beq.n	8005fc4 <print_number+0x14c>
 8005fb0:	1c43      	adds	r3, r0, #1
 8005fb2:	4281      	cmp	r1, r0
 8005fb4:	bf28      	it	cs
 8005fb6:	7005      	strbcs	r5, [r0, #0]
 8005fb8:	4299      	cmp	r1, r3
 8005fba:	d300      	bcc.n	8005fbe <print_number+0x146>
 8005fbc:	7045      	strb	r5, [r0, #1]
 8005fbe:	1c58      	adds	r0, r3, #1
 8005fc0:	42a0      	cmp	r0, r4
 8005fc2:	d1f5      	bne.n	8005fb0 <print_number+0x138>
 8005fc4:	4288      	cmp	r0, r1
 8005fc6:	f002 0401 	and.w	r4, r2, #1
 8005fca:	d802      	bhi.n	8005fd2 <print_number+0x15a>
 8005fcc:	f81d 5002 	ldrb.w	r5, [sp, r2]
 8005fd0:	7005      	strb	r5, [r0, #0]
 8005fd2:	1c43      	adds	r3, r0, #1
 8005fd4:	1e55      	subs	r5, r2, #1
 8005fd6:	2a00      	cmp	r2, #0
 8005fd8:	dd1b      	ble.n	8006012 <print_number+0x19a>
 8005fda:	b14c      	cbz	r4, 8005ff0 <print_number+0x178>
 8005fdc:	428b      	cmp	r3, r1
 8005fde:	bf9c      	itt	ls
 8005fe0:	f81d 4005 	ldrbls.w	r4, [sp, r5]
 8005fe4:	701c      	strbls	r4, [r3, #0]
 8005fe6:	3d01      	subs	r5, #1
 8005fe8:	1c6c      	adds	r4, r5, #1
 8005fea:	3301      	adds	r3, #1
 8005fec:	2c00      	cmp	r4, #0
 8005fee:	dd10      	ble.n	8006012 <print_number+0x19a>
 8005ff0:	1c5e      	adds	r6, r3, #1
 8005ff2:	428b      	cmp	r3, r1
 8005ff4:	f105 34ff 	add.w	r4, r5, #4294967295
 8005ff8:	bf9c      	itt	ls
 8005ffa:	f81d 5005 	ldrbls.w	r5, [sp, r5]
 8005ffe:	701d      	strbls	r5, [r3, #0]
 8006000:	428e      	cmp	r6, r1
 8006002:	d802      	bhi.n	800600a <print_number+0x192>
 8006004:	f81d 5004 	ldrb.w	r5, [sp, r4]
 8006008:	705d      	strb	r5, [r3, #1]
 800600a:	1c73      	adds	r3, r6, #1
 800600c:	1e65      	subs	r5, r4, #1
 800600e:	2c00      	cmp	r4, #0
 8006010:	dcee      	bgt.n	8005ff0 <print_number+0x178>
 8006012:	ea22 72e2 	bic.w	r2, r2, r2, asr #31
 8006016:	1c53      	adds	r3, r2, #1
 8006018:	2f00      	cmp	r7, #0
 800601a:	4418      	add	r0, r3
 800601c:	dd1b      	ble.n	8006056 <print_number+0x1de>
 800601e:	43c2      	mvns	r2, r0
 8006020:	19c7      	adds	r7, r0, r7
 8006022:	18bb      	adds	r3, r7, r2
 8006024:	2220      	movs	r2, #32
 8006026:	4288      	cmp	r0, r1
 8006028:	f003 0301 	and.w	r3, r3, #1
 800602c:	d947      	bls.n	80060be <print_number+0x246>
 800602e:	3001      	adds	r0, #1
 8006030:	42b8      	cmp	r0, r7
 8006032:	d010      	beq.n	8006056 <print_number+0x1de>
 8006034:	b12b      	cbz	r3, 8006042 <print_number+0x1ca>
 8006036:	4288      	cmp	r0, r1
 8006038:	bf98      	it	ls
 800603a:	7002      	strbls	r2, [r0, #0]
 800603c:	3001      	adds	r0, #1
 800603e:	42b8      	cmp	r0, r7
 8006040:	d009      	beq.n	8006056 <print_number+0x1de>
 8006042:	1c43      	adds	r3, r0, #1
 8006044:	4288      	cmp	r0, r1
 8006046:	bf98      	it	ls
 8006048:	7002      	strbls	r2, [r0, #0]
 800604a:	428b      	cmp	r3, r1
 800604c:	d800      	bhi.n	8006050 <print_number+0x1d8>
 800604e:	7042      	strb	r2, [r0, #1]
 8006050:	1c58      	adds	r0, r3, #1
 8006052:	42b8      	cmp	r0, r7
 8006054:	d1f5      	bne.n	8006042 <print_number+0x1ca>
 8006056:	b004      	add	sp, #16
 8006058:	e8bd 0ff0 	ldmia.w	sp!, {r4, r5, r6, r7, r8, r9, sl, fp}
 800605c:	4770      	bx	lr
 800605e:	2f00      	cmp	r7, #0
 8006060:	f107 37ff 	add.w	r7, r7, #4294967295
 8006064:	f73f af3e 	bgt.w	8005ee4 <print_number+0x6c>
 8006068:	4281      	cmp	r1, r0
 800606a:	bf24      	itt	cs
 800606c:	f880 8000 	strbcs.w	r8, [r0]
 8006070:	3f01      	subcs	r7, #1
 8006072:	3001      	adds	r0, #1
 8006074:	e75d      	b.n	8005f32 <print_number+0xba>
 8006076:	4252      	negs	r2, r2
 8006078:	f04f 082d 	mov.w	r8, #45	; 0x2d
 800607c:	f64c 4acd 	movw	sl, #52429	; 0xcccd
 8006080:	2400      	movs	r4, #0
 8006082:	f6cc 4acc 	movt	sl, #52428	; 0xcccc
 8006086:	e007      	b.n	8006098 <print_number+0x220>
 8006088:	f002 050f 	and.w	r5, r2, #15
 800608c:	5d7d      	ldrb	r5, [r7, r5]
 800608e:	0912      	lsrs	r2, r2, #4
 8006090:	f80d 5004 	strb.w	r5, [sp, r4]
 8006094:	3401      	adds	r4, #1
 8006096:	b182      	cbz	r2, 80060ba <print_number+0x242>
 8006098:	2b0a      	cmp	r3, #10
 800609a:	d1f5      	bne.n	8006088 <print_number+0x210>
 800609c:	fbaa 5b02 	umull	r5, fp, sl, r2
 80060a0:	ea4f 0bdb 	mov.w	fp, fp, lsr #3
 80060a4:	eb0b 058b 	add.w	r5, fp, fp, lsl #2
 80060a8:	eba2 0545 	sub.w	r5, r2, r5, lsl #1
 80060ac:	5d7d      	ldrb	r5, [r7, r5]
 80060ae:	465a      	mov	r2, fp
 80060b0:	f80d 5004 	strb.w	r5, [sp, r4]
 80060b4:	3401      	adds	r4, #1
 80060b6:	2a00      	cmp	r2, #0
 80060b8:	d1ee      	bne.n	8006098 <print_number+0x220>
 80060ba:	1e62      	subs	r2, r4, #1
 80060bc:	e704      	b.n	8005ec8 <print_number+0x50>
 80060be:	7002      	strb	r2, [r0, #0]
 80060c0:	e7b5      	b.n	800602e <print_number+0x1b6>
 80060c2:	7005      	strb	r5, [r0, #0]
 80060c4:	e76a      	b.n	8005f9c <print_number+0x124>
 80060c6:	f016 0f08 	tst.w	r6, #8
 80060ca:	bf0c      	ite	eq
 80060cc:	f04f 0800 	moveq.w	r8, #0
 80060d0:	f04f 0820 	movne.w	r8, #32
 80060d4:	e6f1      	b.n	8005eba <print_number+0x42>
 80060d6:	462f      	mov	r7, r5
 80060d8:	e754      	b.n	8005f84 <print_number+0x10c>
 80060da:	462f      	mov	r7, r5
 80060dc:	f1b8 0f00 	cmp.w	r8, #0
 80060e0:	f43f af27 	beq.w	8005f32 <print_number+0xba>
 80060e4:	e7c0      	b.n	8006068 <print_number+0x1f0>
 80060e6:	bf00      	nop
 80060e8:	08008f74 	.word	0x08008f74
 80060ec:	08008f60 	.word	0x08008f60

080060f0 <rt_set_errno>:
 80060f0:	b510      	push	{r4, lr}
 80060f2:	4604      	mov	r4, r0
 80060f4:	f7ff feba 	bl	8005e6c <rt_interrupt_get_nest>
 80060f8:	b110      	cbz	r0, 8006100 <rt_set_errno+0x10>
 80060fa:	4b04      	ldr	r3, [pc, #16]	; (800610c <rt_set_errno+0x1c>)
 80060fc:	601c      	str	r4, [r3, #0]
 80060fe:	bd10      	pop	{r4, pc}
 8006100:	f001 f9fa 	bl	80074f8 <rt_thread_self>
 8006104:	2800      	cmp	r0, #0
 8006106:	d0f8      	beq.n	80060fa <rt_set_errno+0xa>
 8006108:	6304      	str	r4, [r0, #48]	; 0x30
 800610a:	bd10      	pop	{r4, pc}
 800610c:	20000b28 	.word	0x20000b28

08006110 <rt_memset>:
 8006110:	2a03      	cmp	r2, #3
 8006112:	b4f0      	push	{r4, r5, r6, r7}
 8006114:	b2c9      	uxtb	r1, r1
 8006116:	d96c      	bls.n	80061f2 <rt_memset+0xe2>
 8006118:	0783      	lsls	r3, r0, #30
 800611a:	d16c      	bne.n	80061f6 <rt_memset+0xe6>
 800611c:	ea41 2401 	orr.w	r4, r1, r1, lsl #8
 8006120:	2a0f      	cmp	r2, #15
 8006122:	ea44 4404 	orr.w	r4, r4, r4, lsl #16
 8006126:	d968      	bls.n	80061fa <rt_memset+0xea>
 8006128:	f1a2 0510 	sub.w	r5, r2, #16
 800612c:	462e      	mov	r6, r5
 800612e:	2e0f      	cmp	r6, #15
 8006130:	6004      	str	r4, [r0, #0]
 8006132:	6044      	str	r4, [r0, #4]
 8006134:	6084      	str	r4, [r0, #8]
 8006136:	60c4      	str	r4, [r0, #12]
 8006138:	f3c5 1500 	ubfx	r5, r5, #4, #1
 800613c:	f100 0310 	add.w	r3, r0, #16
 8006140:	d916      	bls.n	8006170 <rt_memset+0x60>
 8006142:	b13d      	cbz	r5, 8006154 <rt_memset+0x44>
 8006144:	3e10      	subs	r6, #16
 8006146:	601c      	str	r4, [r3, #0]
 8006148:	605c      	str	r4, [r3, #4]
 800614a:	609c      	str	r4, [r3, #8]
 800614c:	60dc      	str	r4, [r3, #12]
 800614e:	3310      	adds	r3, #16
 8006150:	2e0f      	cmp	r6, #15
 8006152:	d90d      	bls.n	8006170 <rt_memset+0x60>
 8006154:	3e20      	subs	r6, #32
 8006156:	f103 0510 	add.w	r5, r3, #16
 800615a:	601c      	str	r4, [r3, #0]
 800615c:	605c      	str	r4, [r3, #4]
 800615e:	609c      	str	r4, [r3, #8]
 8006160:	60dc      	str	r4, [r3, #12]
 8006162:	611c      	str	r4, [r3, #16]
 8006164:	615c      	str	r4, [r3, #20]
 8006166:	619c      	str	r4, [r3, #24]
 8006168:	61dc      	str	r4, [r3, #28]
 800616a:	3320      	adds	r3, #32
 800616c:	2e0f      	cmp	r6, #15
 800616e:	d8f1      	bhi.n	8006154 <rt_memset+0x44>
 8006170:	f1a2 0310 	sub.w	r3, r2, #16
 8006174:	f023 030f 	bic.w	r3, r3, #15
 8006178:	f002 020f 	and.w	r2, r2, #15
 800617c:	3310      	adds	r3, #16
 800617e:	2a03      	cmp	r2, #3
 8006180:	4403      	add	r3, r0
 8006182:	d91d      	bls.n	80061c0 <rt_memset+0xb0>
 8006184:	1f17      	subs	r7, r2, #4
 8006186:	463e      	mov	r6, r7
 8006188:	461d      	mov	r5, r3
 800618a:	2e03      	cmp	r6, #3
 800618c:	f845 4b04 	str.w	r4, [r5], #4
 8006190:	f3c7 0780 	ubfx	r7, r7, #2, #1
 8006194:	d90d      	bls.n	80061b2 <rt_memset+0xa2>
 8006196:	b127      	cbz	r7, 80061a2 <rt_memset+0x92>
 8006198:	3e04      	subs	r6, #4
 800619a:	2e03      	cmp	r6, #3
 800619c:	f845 4b04 	str.w	r4, [r5], #4
 80061a0:	d907      	bls.n	80061b2 <rt_memset+0xa2>
 80061a2:	462f      	mov	r7, r5
 80061a4:	f847 4b04 	str.w	r4, [r7], #4
 80061a8:	3e08      	subs	r6, #8
 80061aa:	606c      	str	r4, [r5, #4]
 80061ac:	1d3d      	adds	r5, r7, #4
 80061ae:	2e03      	cmp	r6, #3
 80061b0:	d8f7      	bhi.n	80061a2 <rt_memset+0x92>
 80061b2:	1f14      	subs	r4, r2, #4
 80061b4:	f024 0403 	bic.w	r4, r4, #3
 80061b8:	3404      	adds	r4, #4
 80061ba:	f002 0203 	and.w	r2, r2, #3
 80061be:	191b      	adds	r3, r3, r4
 80061c0:	b1aa      	cbz	r2, 80061ee <rt_memset+0xde>
 80061c2:	b2cc      	uxtb	r4, r1
 80061c4:	189a      	adds	r2, r3, r2
 80061c6:	43d9      	mvns	r1, r3
 80061c8:	f803 4b01 	strb.w	r4, [r3], #1
 80061cc:	1851      	adds	r1, r2, r1
 80061ce:	4293      	cmp	r3, r2
 80061d0:	f001 0101 	and.w	r1, r1, #1
 80061d4:	d00b      	beq.n	80061ee <rt_memset+0xde>
 80061d6:	b119      	cbz	r1, 80061e0 <rt_memset+0xd0>
 80061d8:	f803 4b01 	strb.w	r4, [r3], #1
 80061dc:	4293      	cmp	r3, r2
 80061de:	d006      	beq.n	80061ee <rt_memset+0xde>
 80061e0:	4619      	mov	r1, r3
 80061e2:	f801 4b01 	strb.w	r4, [r1], #1
 80061e6:	705c      	strb	r4, [r3, #1]
 80061e8:	1c4b      	adds	r3, r1, #1
 80061ea:	4293      	cmp	r3, r2
 80061ec:	d1f8      	bne.n	80061e0 <rt_memset+0xd0>
 80061ee:	bcf0      	pop	{r4, r5, r6, r7}
 80061f0:	4770      	bx	lr
 80061f2:	4603      	mov	r3, r0
 80061f4:	e7e4      	b.n	80061c0 <rt_memset+0xb0>
 80061f6:	4603      	mov	r3, r0
 80061f8:	e7e3      	b.n	80061c2 <rt_memset+0xb2>
 80061fa:	4603      	mov	r3, r0
 80061fc:	e7c2      	b.n	8006184 <rt_memset+0x74>
 80061fe:	bf00      	nop

08006200 <rt_strncpy>:
 8006200:	b4f0      	push	{r4, r5, r6, r7}
 8006202:	2a00      	cmp	r2, #0
 8006204:	d03b      	beq.n	800627e <rt_strncpy+0x7e>
 8006206:	780c      	ldrb	r4, [r1, #0]
 8006208:	4603      	mov	r3, r0
 800620a:	1e56      	subs	r6, r2, #1
 800620c:	f803 4b01 	strb.w	r4, [r3], #1
 8006210:	f006 0701 	and.w	r7, r6, #1
 8006214:	461d      	mov	r5, r3
 8006216:	b1cc      	cbz	r4, 800624c <rt_strncpy+0x4c>
 8006218:	4632      	mov	r2, r6
 800621a:	b386      	cbz	r6, 800627e <rt_strncpy+0x7e>
 800621c:	b13f      	cbz	r7, 800622e <rt_strncpy+0x2e>
 800621e:	f811 4f01 	ldrb.w	r4, [r1, #1]!
 8006222:	f803 4b01 	strb.w	r4, [r3], #1
 8006226:	461d      	mov	r5, r3
 8006228:	b184      	cbz	r4, 800624c <rt_strncpy+0x4c>
 800622a:	3a01      	subs	r2, #1
 800622c:	d027      	beq.n	800627e <rt_strncpy+0x7e>
 800622e:	784e      	ldrb	r6, [r1, #1]
 8006230:	461c      	mov	r4, r3
 8006232:	f804 6b01 	strb.w	r6, [r4], #1
 8006236:	3101      	adds	r1, #1
 8006238:	4625      	mov	r5, r4
 800623a:	b13e      	cbz	r6, 800624c <rt_strncpy+0x4c>
 800623c:	784e      	ldrb	r6, [r1, #1]
 800623e:	3a01      	subs	r2, #1
 8006240:	705e      	strb	r6, [r3, #1]
 8006242:	1c63      	adds	r3, r4, #1
 8006244:	3101      	adds	r1, #1
 8006246:	461d      	mov	r5, r3
 8006248:	2e00      	cmp	r6, #0
 800624a:	d1ee      	bne.n	800622a <rt_strncpy+0x2a>
 800624c:	2a01      	cmp	r2, #1
 800624e:	d016      	beq.n	800627e <rt_strncpy+0x7e>
 8006250:	3a01      	subs	r2, #1
 8006252:	2100      	movs	r1, #0
 8006254:	18aa      	adds	r2, r5, r2
 8006256:	43eb      	mvns	r3, r5
 8006258:	f805 1b01 	strb.w	r1, [r5], #1
 800625c:	18d3      	adds	r3, r2, r3
 800625e:	4295      	cmp	r5, r2
 8006260:	f003 0301 	and.w	r3, r3, #1
 8006264:	d00b      	beq.n	800627e <rt_strncpy+0x7e>
 8006266:	b11b      	cbz	r3, 8006270 <rt_strncpy+0x70>
 8006268:	f805 1b01 	strb.w	r1, [r5], #1
 800626c:	4295      	cmp	r5, r2
 800626e:	d006      	beq.n	800627e <rt_strncpy+0x7e>
 8006270:	462b      	mov	r3, r5
 8006272:	f803 1b01 	strb.w	r1, [r3], #1
 8006276:	7069      	strb	r1, [r5, #1]
 8006278:	1c5d      	adds	r5, r3, #1
 800627a:	4295      	cmp	r5, r2
 800627c:	d1f8      	bne.n	8006270 <rt_strncpy+0x70>
 800627e:	bcf0      	pop	{r4, r5, r6, r7}
 8006280:	4770      	bx	lr
 8006282:	bf00      	nop

08006284 <rt_strncmp>:
 8006284:	b430      	push	{r4, r5}
 8006286:	2a00      	cmp	r2, #0
 8006288:	d027      	beq.n	80062da <rt_strncmp+0x56>
 800628a:	7803      	ldrb	r3, [r0, #0]
 800628c:	780c      	ldrb	r4, [r1, #0]
 800628e:	1b1c      	subs	r4, r3, r4
 8006290:	f014 04ff 	ands.w	r4, r4, #255	; 0xff
 8006294:	bf18      	it	ne
 8006296:	b260      	sxtbne	r0, r4
 8006298:	d11d      	bne.n	80062d6 <rt_strncmp+0x52>
 800629a:	b1f3      	cbz	r3, 80062da <rt_strncmp+0x56>
 800629c:	1e43      	subs	r3, r0, #1
 800629e:	189a      	adds	r2, r3, r2
 80062a0:	1a13      	subs	r3, r2, r0
 80062a2:	07db      	lsls	r3, r3, #31
 80062a4:	d501      	bpl.n	80062aa <rt_strncmp+0x26>
 80062a6:	e00d      	b.n	80062c4 <rt_strncmp+0x40>
 80062a8:	b1bc      	cbz	r4, 80062da <rt_strncmp+0x56>
 80062aa:	4290      	cmp	r0, r2
 80062ac:	4603      	mov	r3, r0
 80062ae:	d014      	beq.n	80062da <rt_strncmp+0x56>
 80062b0:	f813 4f01 	ldrb.w	r4, [r3, #1]!
 80062b4:	f811 5f01 	ldrb.w	r5, [r1, #1]!
 80062b8:	4618      	mov	r0, r3
 80062ba:	1b63      	subs	r3, r4, r5
 80062bc:	f013 03ff 	ands.w	r3, r3, #255	; 0xff
 80062c0:	d108      	bne.n	80062d4 <rt_strncmp+0x50>
 80062c2:	b154      	cbz	r4, 80062da <rt_strncmp+0x56>
 80062c4:	f810 4f01 	ldrb.w	r4, [r0, #1]!
 80062c8:	f811 3f01 	ldrb.w	r3, [r1, #1]!
 80062cc:	1ae3      	subs	r3, r4, r3
 80062ce:	f013 03ff 	ands.w	r3, r3, #255	; 0xff
 80062d2:	d0e9      	beq.n	80062a8 <rt_strncmp+0x24>
 80062d4:	b258      	sxtb	r0, r3
 80062d6:	bc30      	pop	{r4, r5}
 80062d8:	4770      	bx	lr
 80062da:	2000      	movs	r0, #0
 80062dc:	e7fb      	b.n	80062d6 <rt_strncmp+0x52>
 80062de:	bf00      	nop

080062e0 <rt_strlen>:
 80062e0:	7802      	ldrb	r2, [r0, #0]
 80062e2:	b13a      	cbz	r2, 80062f4 <rt_strlen+0x14>
 80062e4:	1c43      	adds	r3, r0, #1
 80062e6:	7819      	ldrb	r1, [r3, #0]
 80062e8:	461a      	mov	r2, r3
 80062ea:	3301      	adds	r3, #1
 80062ec:	2900      	cmp	r1, #0
 80062ee:	d1fa      	bne.n	80062e6 <rt_strlen+0x6>
 80062f0:	1a10      	subs	r0, r2, r0
 80062f2:	4770      	bx	lr
 80062f4:	4610      	mov	r0, r2
 80062f6:	4770      	bx	lr

080062f8 <rt_vsnprintf>:
 80062f8:	e92d 4ff0 	stmdb	sp!, {r4, r5, r6, r7, r8, r9, sl, fp, lr}
 80062fc:	3901      	subs	r1, #1
 80062fe:	4614      	mov	r4, r2
 8006300:	7812      	ldrb	r2, [r2, #0]
 8006302:	4681      	mov	r9, r0
 8006304:	1840      	adds	r0, r0, r1
 8006306:	bf34      	ite	cc
 8006308:	4607      	movcc	r7, r0
 800630a:	f04f 37ff 	movcs.w	r7, #4294967295
 800630e:	b085      	sub	sp, #20
 8006310:	469a      	mov	sl, r3
 8006312:	4648      	mov	r0, r9
 8006314:	2a00      	cmp	r2, #0
 8006316:	f000 80d7 	beq.w	80064c8 <rt_vsnprintf+0x1d0>
 800631a:	f04f 0825 	mov.w	r8, #37	; 0x25
 800631e:	e008      	b.n	8006332 <rt_vsnprintf+0x3a>
 8006320:	4287      	cmp	r7, r0
 8006322:	d300      	bcc.n	8006326 <rt_vsnprintf+0x2e>
 8006324:	7002      	strb	r2, [r0, #0]
 8006326:	7862      	ldrb	r2, [r4, #1]
 8006328:	3001      	adds	r0, #1
 800632a:	3401      	adds	r4, #1
 800632c:	2a00      	cmp	r2, #0
 800632e:	f000 80c9 	beq.w	80064c4 <rt_vsnprintf+0x1cc>
 8006332:	2a25      	cmp	r2, #37	; 0x25
 8006334:	d1f4      	bne.n	8006320 <rt_vsnprintf+0x28>
 8006336:	2500      	movs	r5, #0
 8006338:	e00a      	b.n	8006350 <rt_vsnprintf+0x58>
 800633a:	2b2b      	cmp	r3, #43	; 0x2b
 800633c:	d00f      	beq.n	800635e <rt_vsnprintf+0x66>
 800633e:	2b20      	cmp	r3, #32
 8006340:	d010      	beq.n	8006364 <rt_vsnprintf+0x6c>
 8006342:	2b23      	cmp	r3, #35	; 0x23
 8006344:	d011      	beq.n	800636a <rt_vsnprintf+0x72>
 8006346:	2b30      	cmp	r3, #48	; 0x30
 8006348:	d112      	bne.n	8006370 <rt_vsnprintf+0x78>
 800634a:	f045 0501 	orr.w	r5, r5, #1
 800634e:	4614      	mov	r4, r2
 8006350:	7863      	ldrb	r3, [r4, #1]
 8006352:	1c62      	adds	r2, r4, #1
 8006354:	2b2d      	cmp	r3, #45	; 0x2d
 8006356:	d1f0      	bne.n	800633a <rt_vsnprintf+0x42>
 8006358:	f045 0510 	orr.w	r5, r5, #16
 800635c:	e7f7      	b.n	800634e <rt_vsnprintf+0x56>
 800635e:	f045 0504 	orr.w	r5, r5, #4
 8006362:	e7f4      	b.n	800634e <rt_vsnprintf+0x56>
 8006364:	f045 0508 	orr.w	r5, r5, #8
 8006368:	e7f1      	b.n	800634e <rt_vsnprintf+0x56>
 800636a:	f045 0520 	orr.w	r5, r5, #32
 800636e:	e7ee      	b.n	800634e <rt_vsnprintf+0x56>
 8006370:	f1a3 0130 	sub.w	r1, r3, #48	; 0x30
 8006374:	2909      	cmp	r1, #9
 8006376:	461e      	mov	r6, r3
 8006378:	d872      	bhi.n	8006460 <rt_vsnprintf+0x168>
 800637a:	2100      	movs	r1, #0
 800637c:	f812 3f01 	ldrb.w	r3, [r2, #1]!
 8006380:	eb01 0481 	add.w	r4, r1, r1, lsl #2
 8006384:	eb06 0144 	add.w	r1, r6, r4, lsl #1
 8006388:	f1a3 0430 	sub.w	r4, r3, #48	; 0x30
 800638c:	3930      	subs	r1, #48	; 0x30
 800638e:	2c09      	cmp	r4, #9
 8006390:	461e      	mov	r6, r3
 8006392:	d9f3      	bls.n	800637c <rt_vsnprintf+0x84>
 8006394:	2b2e      	cmp	r3, #46	; 0x2e
 8006396:	4614      	mov	r4, r2
 8006398:	d06a      	beq.n	8006470 <rt_vsnprintf+0x178>
 800639a:	f04f 36ff 	mov.w	r6, #4294967295
 800639e:	2b68      	cmp	r3, #104	; 0x68
 80063a0:	f000 8081 	beq.w	80064a6 <rt_vsnprintf+0x1ae>
 80063a4:	2b6c      	cmp	r3, #108	; 0x6c
 80063a6:	d07e      	beq.n	80064a6 <rt_vsnprintf+0x1ae>
 80063a8:	f04f 0c00 	mov.w	ip, #0
 80063ac:	f1a3 0225 	sub.w	r2, r3, #37	; 0x25
 80063b0:	2a53      	cmp	r2, #83	; 0x53
 80063b2:	d87d      	bhi.n	80064b0 <rt_vsnprintf+0x1b8>
 80063b4:	e8df f012 	tbh	[pc, r2, lsl #1]
 80063b8:	007c01b5 	.word	0x007c01b5
 80063bc:	007c007c 	.word	0x007c007c
 80063c0:	007c007c 	.word	0x007c007c
 80063c4:	007c007c 	.word	0x007c007c
 80063c8:	007c007c 	.word	0x007c007c
 80063cc:	007c007c 	.word	0x007c007c
 80063d0:	007c007c 	.word	0x007c007c
 80063d4:	007c007c 	.word	0x007c007c
 80063d8:	007c007c 	.word	0x007c007c
 80063dc:	007c007c 	.word	0x007c007c
 80063e0:	007c007c 	.word	0x007c007c
 80063e4:	007c007c 	.word	0x007c007c
 80063e8:	007c007c 	.word	0x007c007c
 80063ec:	007c007c 	.word	0x007c007c
 80063f0:	007c007c 	.word	0x007c007c
 80063f4:	007c007c 	.word	0x007c007c
 80063f8:	007c007c 	.word	0x007c007c
 80063fc:	007c007c 	.word	0x007c007c
 8006400:	007c007c 	.word	0x007c007c
 8006404:	007c007c 	.word	0x007c007c
 8006408:	007c007c 	.word	0x007c007c
 800640c:	007c007c 	.word	0x007c007c
 8006410:	007c007c 	.word	0x007c007c
 8006414:	007c007c 	.word	0x007c007c
 8006418:	007c007c 	.word	0x007c007c
 800641c:	01b1007c 	.word	0x01b1007c
 8006420:	007c007c 	.word	0x007c007c
 8006424:	007c007c 	.word	0x007c007c
 8006428:	007c007c 	.word	0x007c007c
 800642c:	007c007c 	.word	0x007c007c
 8006430:	007c007c 	.word	0x007c007c
 8006434:	0159015d 	.word	0x0159015d
 8006438:	007c007c 	.word	0x007c007c
 800643c:	007c007c 	.word	0x007c007c
 8006440:	007c0159 	.word	0x007c0159
 8006444:	007c007c 	.word	0x007c007c
 8006448:	007c007c 	.word	0x007c007c
 800644c:	01450157 	.word	0x01450157
 8006450:	007c007c 	.word	0x007c007c
 8006454:	007c00ad 	.word	0x007c00ad
 8006458:	007c00ab 	.word	0x007c00ab
 800645c:	0097007c 	.word	0x0097007c
 8006460:	2b2a      	cmp	r3, #42	; 0x2a
 8006462:	f000 8163 	beq.w	800672c <rt_vsnprintf+0x434>
 8006466:	2b2e      	cmp	r3, #46	; 0x2e
 8006468:	4614      	mov	r4, r2
 800646a:	f04f 31ff 	mov.w	r1, #4294967295
 800646e:	d194      	bne.n	800639a <rt_vsnprintf+0xa2>
 8006470:	7862      	ldrb	r2, [r4, #1]
 8006472:	f104 0c01 	add.w	ip, r4, #1
 8006476:	f1a2 0630 	sub.w	r6, r2, #48	; 0x30
 800647a:	2e09      	cmp	r6, #9
 800647c:	4613      	mov	r3, r2
 800647e:	d82c      	bhi.n	80064da <rt_vsnprintf+0x1e2>
 8006480:	2600      	movs	r6, #0
 8006482:	eb06 0486 	add.w	r4, r6, r6, lsl #2
 8006486:	eb02 0644 	add.w	r6, r2, r4, lsl #1
 800648a:	f81c 2f01 	ldrb.w	r2, [ip, #1]!
 800648e:	3e30      	subs	r6, #48	; 0x30
 8006490:	f1a2 0430 	sub.w	r4, r2, #48	; 0x30
 8006494:	2c09      	cmp	r4, #9
 8006496:	4613      	mov	r3, r2
 8006498:	d9f3      	bls.n	8006482 <rt_vsnprintf+0x18a>
 800649a:	2e00      	cmp	r6, #0
 800649c:	4664      	mov	r4, ip
 800649e:	f6bf af7e 	bge.w	800639e <rt_vsnprintf+0xa6>
 80064a2:	2600      	movs	r6, #0
 80064a4:	e77b      	b.n	800639e <rt_vsnprintf+0xa6>
 80064a6:	7862      	ldrb	r2, [r4, #1]
 80064a8:	469c      	mov	ip, r3
 80064aa:	3401      	adds	r4, #1
 80064ac:	4613      	mov	r3, r2
 80064ae:	e77d      	b.n	80063ac <rt_vsnprintf+0xb4>
 80064b0:	4287      	cmp	r7, r0
 80064b2:	bf24      	itt	cs
 80064b4:	f880 8000 	strbcs.w	r8, [r0]
 80064b8:	7823      	ldrbcs	r3, [r4, #0]
 80064ba:	1c42      	adds	r2, r0, #1
 80064bc:	2b00      	cmp	r3, #0
 80064be:	f040 8150 	bne.w	8006762 <rt_vsnprintf+0x46a>
 80064c2:	4610      	mov	r0, r2
 80064c4:	ebc9 0200 	rsb	r2, r9, r0
 80064c8:	2300      	movs	r3, #0
 80064ca:	4287      	cmp	r7, r0
 80064cc:	bf2c      	ite	cs
 80064ce:	7003      	strbcs	r3, [r0, #0]
 80064d0:	703b      	strbcc	r3, [r7, #0]
 80064d2:	4610      	mov	r0, r2
 80064d4:	b005      	add	sp, #20
 80064d6:	e8bd 8ff0 	ldmia.w	sp!, {r4, r5, r6, r7, r8, r9, sl, fp, pc}
 80064da:	2a2a      	cmp	r2, #42	; 0x2a
 80064dc:	f000 8150 	beq.w	8006780 <rt_vsnprintf+0x488>
 80064e0:	4664      	mov	r4, ip
 80064e2:	2600      	movs	r6, #0
 80064e4:	e75b      	b.n	800639e <rt_vsnprintf+0xa6>
 80064e6:	2310      	movs	r3, #16
 80064e8:	f1bc 0f6c 	cmp.w	ip, #108	; 0x6c
 80064ec:	d003      	beq.n	80064f6 <rt_vsnprintf+0x1fe>
 80064ee:	f1bc 0f68 	cmp.w	ip, #104	; 0x68
 80064f2:	f000 8128 	beq.w	8006746 <rt_vsnprintf+0x44e>
 80064f6:	f8da 2000 	ldr.w	r2, [sl]
 80064fa:	f10a 0a04 	add.w	sl, sl, #4
 80064fe:	e88d 0042 	stmia.w	sp, {r1, r6}
 8006502:	9502      	str	r5, [sp, #8]
 8006504:	4639      	mov	r1, r7
 8006506:	f7ff fcb7 	bl	8005e78 <print_number>
 800650a:	7862      	ldrb	r2, [r4, #1]
 800650c:	e70d      	b.n	800632a <rt_vsnprintf+0x32>
 800650e:	230a      	movs	r3, #10
 8006510:	e7ea      	b.n	80064e8 <rt_vsnprintf+0x1f0>
 8006512:	f8da 3000 	ldr.w	r3, [sl]
 8006516:	f648 7b88 	movw	fp, #36744	; 0x8f88
 800651a:	f6c0 0b00 	movt	fp, #2048	; 0x800
 800651e:	2b00      	cmp	r3, #0
 8006520:	bf18      	it	ne
 8006522:	469b      	movne	fp, r3
 8006524:	f89b 2000 	ldrb.w	r2, [fp]
 8006528:	f10a 0a04 	add.w	sl, sl, #4
 800652c:	b152      	cbz	r2, 8006544 <rt_vsnprintf+0x24c>
 800652e:	f10b 0301 	add.w	r3, fp, #1
 8006532:	468c      	mov	ip, r1
 8006534:	7819      	ldrb	r1, [r3, #0]
 8006536:	461a      	mov	r2, r3
 8006538:	3301      	adds	r3, #1
 800653a:	2900      	cmp	r1, #0
 800653c:	d1fa      	bne.n	8006534 <rt_vsnprintf+0x23c>
 800653e:	4661      	mov	r1, ip
 8006540:	ebcb 0202 	rsb	r2, fp, r2
 8006544:	2e00      	cmp	r6, #0
 8006546:	dd02      	ble.n	800654e <rt_vsnprintf+0x256>
 8006548:	42b2      	cmp	r2, r6
 800654a:	bfa8      	it	ge
 800654c:	4632      	movge	r2, r6
 800654e:	f005 0310 	and.w	r3, r5, #16
 8006552:	b2db      	uxtb	r3, r3
 8006554:	bb33      	cbnz	r3, 80065a4 <rt_vsnprintf+0x2ac>
 8006556:	1e4b      	subs	r3, r1, #1
 8006558:	428a      	cmp	r2, r1
 800655a:	f280 8121 	bge.w	80067a0 <rt_vsnprintf+0x4a8>
 800655e:	1a8d      	subs	r5, r1, r2
 8006560:	43c6      	mvns	r6, r0
 8006562:	1945      	adds	r5, r0, r5
 8006564:	19ab      	adds	r3, r5, r6
 8006566:	2620      	movs	r6, #32
 8006568:	4287      	cmp	r7, r0
 800656a:	f003 0301 	and.w	r3, r3, #1
 800656e:	d300      	bcc.n	8006572 <rt_vsnprintf+0x27a>
 8006570:	7006      	strb	r6, [r0, #0]
 8006572:	3001      	adds	r0, #1
 8006574:	42a8      	cmp	r0, r5
 8006576:	d010      	beq.n	800659a <rt_vsnprintf+0x2a2>
 8006578:	b12b      	cbz	r3, 8006586 <rt_vsnprintf+0x28e>
 800657a:	4287      	cmp	r7, r0
 800657c:	bf28      	it	cs
 800657e:	7006      	strbcs	r6, [r0, #0]
 8006580:	3001      	adds	r0, #1
 8006582:	42a8      	cmp	r0, r5
 8006584:	d009      	beq.n	800659a <rt_vsnprintf+0x2a2>
 8006586:	1c43      	adds	r3, r0, #1
 8006588:	4287      	cmp	r7, r0
 800658a:	bf28      	it	cs
 800658c:	7006      	strbcs	r6, [r0, #0]
 800658e:	429f      	cmp	r7, r3
 8006590:	d300      	bcc.n	8006594 <rt_vsnprintf+0x29c>
 8006592:	7046      	strb	r6, [r0, #1]
 8006594:	1c58      	adds	r0, r3, #1
 8006596:	42a8      	cmp	r0, r5
 8006598:	d1f5      	bne.n	8006586 <rt_vsnprintf+0x28e>
 800659a:	f1c1 0301 	rsb	r3, r1, #1
 800659e:	189b      	adds	r3, r3, r2
 80065a0:	3902      	subs	r1, #2
 80065a2:	18c9      	adds	r1, r1, r3
 80065a4:	2a00      	cmp	r2, #0
 80065a6:	dd29      	ble.n	80065fc <rt_vsnprintf+0x304>
 80065a8:	43c5      	mvns	r5, r0
 80065aa:	eb00 0c02 	add.w	ip, r0, r2
 80065ae:	4465      	add	r5, ip
 80065b0:	4287      	cmp	r7, r0
 80065b2:	f10b 0301 	add.w	r3, fp, #1
 80065b6:	f005 0501 	and.w	r5, r5, #1
 80065ba:	f080 80dd 	bcs.w	8006778 <rt_vsnprintf+0x480>
 80065be:	3001      	adds	r0, #1
 80065c0:	3301      	adds	r3, #1
 80065c2:	4560      	cmp	r0, ip
 80065c4:	d01a      	beq.n	80065fc <rt_vsnprintf+0x304>
 80065c6:	b145      	cbz	r5, 80065da <rt_vsnprintf+0x2e2>
 80065c8:	4287      	cmp	r7, r0
 80065ca:	bf24      	itt	cs
 80065cc:	f813 5c01 	ldrbcs.w	r5, [r3, #-1]
 80065d0:	7005      	strbcs	r5, [r0, #0]
 80065d2:	3001      	adds	r0, #1
 80065d4:	3301      	adds	r3, #1
 80065d6:	4560      	cmp	r0, ip
 80065d8:	d010      	beq.n	80065fc <rt_vsnprintf+0x304>
 80065da:	1c45      	adds	r5, r0, #1
 80065dc:	4287      	cmp	r7, r0
 80065de:	f103 0601 	add.w	r6, r3, #1
 80065e2:	bf24      	itt	cs
 80065e4:	f813 3c01 	ldrbcs.w	r3, [r3, #-1]
 80065e8:	7003      	strbcs	r3, [r0, #0]
 80065ea:	42af      	cmp	r7, r5
 80065ec:	d302      	bcc.n	80065f4 <rt_vsnprintf+0x2fc>
 80065ee:	f816 3c01 	ldrb.w	r3, [r6, #-1]
 80065f2:	7043      	strb	r3, [r0, #1]
 80065f4:	1c68      	adds	r0, r5, #1
 80065f6:	1c73      	adds	r3, r6, #1
 80065f8:	4560      	cmp	r0, ip
 80065fa:	d1ee      	bne.n	80065da <rt_vsnprintf+0x2e2>
 80065fc:	428a      	cmp	r2, r1
 80065fe:	da84      	bge.n	800650a <rt_vsnprintf+0x212>
 8006600:	1a8a      	subs	r2, r1, r2
 8006602:	1882      	adds	r2, r0, r2
 8006604:	43c1      	mvns	r1, r0
 8006606:	1853      	adds	r3, r2, r1
 8006608:	2120      	movs	r1, #32
 800660a:	4287      	cmp	r7, r0
 800660c:	f003 0301 	and.w	r3, r3, #1
 8006610:	f080 80ad 	bcs.w	800676e <rt_vsnprintf+0x476>
 8006614:	3001      	adds	r0, #1
 8006616:	4290      	cmp	r0, r2
 8006618:	f43f af77 	beq.w	800650a <rt_vsnprintf+0x212>
 800661c:	b133      	cbz	r3, 800662c <rt_vsnprintf+0x334>
 800661e:	4287      	cmp	r7, r0
 8006620:	bf28      	it	cs
 8006622:	7001      	strbcs	r1, [r0, #0]
 8006624:	3001      	adds	r0, #1
 8006626:	4290      	cmp	r0, r2
 8006628:	f43f af6f 	beq.w	800650a <rt_vsnprintf+0x212>
 800662c:	1c43      	adds	r3, r0, #1
 800662e:	4287      	cmp	r7, r0
 8006630:	bf28      	it	cs
 8006632:	7001      	strbcs	r1, [r0, #0]
 8006634:	429f      	cmp	r7, r3
 8006636:	d300      	bcc.n	800663a <rt_vsnprintf+0x342>
 8006638:	7041      	strb	r1, [r0, #1]
 800663a:	1c58      	adds	r0, r3, #1
 800663c:	4290      	cmp	r0, r2
 800663e:	d1f5      	bne.n	800662c <rt_vsnprintf+0x334>
 8006640:	e763      	b.n	800650a <rt_vsnprintf+0x212>
 8006642:	1c4a      	adds	r2, r1, #1
 8006644:	bf04      	itt	eq
 8006646:	f045 0501 	orreq.w	r5, r5, #1
 800664a:	2108      	moveq	r1, #8
 800664c:	f8da 2000 	ldr.w	r2, [sl]
 8006650:	2310      	movs	r3, #16
 8006652:	e88d 0042 	stmia.w	sp, {r1, r6}
 8006656:	9502      	str	r5, [sp, #8]
 8006658:	4639      	mov	r1, r7
 800665a:	f7ff fc0d 	bl	8005e78 <print_number>
 800665e:	f10a 0a04 	add.w	sl, sl, #4
 8006662:	7862      	ldrb	r2, [r4, #1]
 8006664:	e661      	b.n	800632a <rt_vsnprintf+0x32>
 8006666:	2308      	movs	r3, #8
 8006668:	e73e      	b.n	80064e8 <rt_vsnprintf+0x1f0>
 800666a:	f045 0502 	orr.w	r5, r5, #2
 800666e:	230a      	movs	r3, #10
 8006670:	e73a      	b.n	80064e8 <rt_vsnprintf+0x1f0>
 8006672:	f005 0610 	and.w	r6, r5, #16
 8006676:	b2f5      	uxtb	r5, r6
 8006678:	bb05      	cbnz	r5, 80066bc <rt_vsnprintf+0x3c4>
 800667a:	3901      	subs	r1, #1
 800667c:	2900      	cmp	r1, #0
 800667e:	dd1d      	ble.n	80066bc <rt_vsnprintf+0x3c4>
 8006680:	1842      	adds	r2, r0, r1
 8006682:	43c1      	mvns	r1, r0
 8006684:	1853      	adds	r3, r2, r1
 8006686:	2620      	movs	r6, #32
 8006688:	4287      	cmp	r7, r0
 800668a:	f003 0501 	and.w	r5, r3, #1
 800668e:	d300      	bcc.n	8006692 <rt_vsnprintf+0x39a>
 8006690:	7006      	strb	r6, [r0, #0]
 8006692:	3001      	adds	r0, #1
 8006694:	4290      	cmp	r0, r2
 8006696:	d010      	beq.n	80066ba <rt_vsnprintf+0x3c2>
 8006698:	b12d      	cbz	r5, 80066a6 <rt_vsnprintf+0x3ae>
 800669a:	4287      	cmp	r7, r0
 800669c:	bf28      	it	cs
 800669e:	7006      	strbcs	r6, [r0, #0]
 80066a0:	3001      	adds	r0, #1
 80066a2:	4290      	cmp	r0, r2
 80066a4:	d009      	beq.n	80066ba <rt_vsnprintf+0x3c2>
 80066a6:	1c41      	adds	r1, r0, #1
 80066a8:	4287      	cmp	r7, r0
 80066aa:	bf28      	it	cs
 80066ac:	7006      	strbcs	r6, [r0, #0]
 80066ae:	428f      	cmp	r7, r1
 80066b0:	d300      	bcc.n	80066b4 <rt_vsnprintf+0x3bc>
 80066b2:	7046      	strb	r6, [r0, #1]
 80066b4:	1c48      	adds	r0, r1, #1
 80066b6:	4290      	cmp	r0, r2
 80066b8:	d1f5      	bne.n	80066a6 <rt_vsnprintf+0x3ae>
 80066ba:	2100      	movs	r1, #0
 80066bc:	f8da 2000 	ldr.w	r2, [sl]
 80066c0:	42b8      	cmp	r0, r7
 80066c2:	bf98      	it	ls
 80066c4:	7002      	strbls	r2, [r0, #0]
 80066c6:	1c45      	adds	r5, r0, #1
 80066c8:	2901      	cmp	r1, #1
 80066ca:	f10a 0604 	add.w	r6, sl, #4
 80066ce:	dd63      	ble.n	8006798 <rt_vsnprintf+0x4a0>
 80066d0:	43eb      	mvns	r3, r5
 80066d2:	1840      	adds	r0, r0, r1
 80066d4:	18c2      	adds	r2, r0, r3
 80066d6:	42af      	cmp	r7, r5
 80066d8:	f04f 0a20 	mov.w	sl, #32
 80066dc:	f002 0201 	and.w	r2, r2, #1
 80066e0:	d247      	bcs.n	8006772 <rt_vsnprintf+0x47a>
 80066e2:	1c6b      	adds	r3, r5, #1
 80066e4:	4283      	cmp	r3, r0
 80066e6:	d013      	beq.n	8006710 <rt_vsnprintf+0x418>
 80066e8:	b132      	cbz	r2, 80066f8 <rt_vsnprintf+0x400>
 80066ea:	429f      	cmp	r7, r3
 80066ec:	bf28      	it	cs
 80066ee:	f885 a001 	strbcs.w	sl, [r5, #1]
 80066f2:	3301      	adds	r3, #1
 80066f4:	4283      	cmp	r3, r0
 80066f6:	d00b      	beq.n	8006710 <rt_vsnprintf+0x418>
 80066f8:	1c5a      	adds	r2, r3, #1
 80066fa:	429f      	cmp	r7, r3
 80066fc:	bf28      	it	cs
 80066fe:	f883 a000 	strbcs.w	sl, [r3]
 8006702:	4297      	cmp	r7, r2
 8006704:	d301      	bcc.n	800670a <rt_vsnprintf+0x412>
 8006706:	f883 a001 	strb.w	sl, [r3, #1]
 800670a:	1c53      	adds	r3, r2, #1
 800670c:	4283      	cmp	r3, r0
 800670e:	d1f3      	bne.n	80066f8 <rt_vsnprintf+0x400>
 8006710:	3901      	subs	r1, #1
 8006712:	1868      	adds	r0, r5, r1
 8006714:	7862      	ldrb	r2, [r4, #1]
 8006716:	46b2      	mov	sl, r6
 8006718:	e607      	b.n	800632a <rt_vsnprintf+0x32>
 800671a:	f045 0540 	orr.w	r5, r5, #64	; 0x40
 800671e:	2310      	movs	r3, #16
 8006720:	e6e2      	b.n	80064e8 <rt_vsnprintf+0x1f0>
 8006722:	4287      	cmp	r7, r0
 8006724:	bf28      	it	cs
 8006726:	f880 8000 	strbcs.w	r8, [r0]
 800672a:	e5fc      	b.n	8006326 <rt_vsnprintf+0x2e>
 800672c:	f8da 1000 	ldr.w	r1, [sl]
 8006730:	1ca2      	adds	r2, r4, #2
 8006732:	2900      	cmp	r1, #0
 8006734:	f10a 0a04 	add.w	sl, sl, #4
 8006738:	78a3      	ldrb	r3, [r4, #2]
 800673a:	f6bf ae2b 	bge.w	8006394 <rt_vsnprintf+0x9c>
 800673e:	4249      	negs	r1, r1
 8006740:	f045 0510 	orr.w	r5, r5, #16
 8006744:	e626      	b.n	8006394 <rt_vsnprintf+0x9c>
 8006746:	f005 0b02 	and.w	fp, r5, #2
 800674a:	fa5f fc8b 	uxtb.w	ip, fp
 800674e:	f10a 0e04 	add.w	lr, sl, #4
 8006752:	f8ba 2000 	ldrh.w	r2, [sl]
 8006756:	f1bc 0f00 	cmp.w	ip, #0
 800675a:	d000      	beq.n	800675e <rt_vsnprintf+0x466>
 800675c:	b212      	sxth	r2, r2
 800675e:	46f2      	mov	sl, lr
 8006760:	e6cd      	b.n	80064fe <rt_vsnprintf+0x206>
 8006762:	42ba      	cmp	r2, r7
 8006764:	bf98      	it	ls
 8006766:	7043      	strbls	r3, [r0, #1]
 8006768:	7862      	ldrb	r2, [r4, #1]
 800676a:	3002      	adds	r0, #2
 800676c:	e5dd      	b.n	800632a <rt_vsnprintf+0x32>
 800676e:	7001      	strb	r1, [r0, #0]
 8006770:	e750      	b.n	8006614 <rt_vsnprintf+0x31c>
 8006772:	f885 a000 	strb.w	sl, [r5]
 8006776:	e7b4      	b.n	80066e2 <rt_vsnprintf+0x3ea>
 8006778:	f813 6c01 	ldrb.w	r6, [r3, #-1]
 800677c:	7006      	strb	r6, [r0, #0]
 800677e:	e71e      	b.n	80065be <rt_vsnprintf+0x2c6>
 8006780:	f8da 6000 	ldr.w	r6, [sl]
 8006784:	f104 0c02 	add.w	ip, r4, #2
 8006788:	2e00      	cmp	r6, #0
 800678a:	78a3      	ldrb	r3, [r4, #2]
 800678c:	f10a 0a04 	add.w	sl, sl, #4
 8006790:	4664      	mov	r4, ip
 8006792:	f6bf ae04 	bge.w	800639e <rt_vsnprintf+0xa6>
 8006796:	e684      	b.n	80064a2 <rt_vsnprintf+0x1aa>
 8006798:	7862      	ldrb	r2, [r4, #1]
 800679a:	46b2      	mov	sl, r6
 800679c:	4628      	mov	r0, r5
 800679e:	e5c4      	b.n	800632a <rt_vsnprintf+0x32>
 80067a0:	4619      	mov	r1, r3
 80067a2:	e6ff      	b.n	80065a4 <rt_vsnprintf+0x2ac>

080067a4 <rt_vsprintf>:
 80067a4:	b410      	push	{r4}
 80067a6:	460c      	mov	r4, r1
 80067a8:	4613      	mov	r3, r2
 80067aa:	f04f 31ff 	mov.w	r1, #4294967295
 80067ae:	4622      	mov	r2, r4
 80067b0:	bc10      	pop	{r4}
 80067b2:	f7ff bda1 	b.w	80062f8 <rt_vsnprintf>
 80067b6:	bf00      	nop

080067b8 <rt_sprintf>:
 80067b8:	b40e      	push	{r1, r2, r3}
 80067ba:	b500      	push	{lr}
 80067bc:	b082      	sub	sp, #8
 80067be:	ab03      	add	r3, sp, #12
 80067c0:	f853 1b04 	ldr.w	r1, [r3], #4
 80067c4:	461a      	mov	r2, r3
 80067c6:	9301      	str	r3, [sp, #4]
 80067c8:	f7ff ffec 	bl	80067a4 <rt_vsprintf>
 80067cc:	b002      	add	sp, #8
 80067ce:	f85d eb04 	ldr.w	lr, [sp], #4
 80067d2:	b003      	add	sp, #12
 80067d4:	4770      	bx	lr
 80067d6:	bf00      	nop

080067d8 <rt_console_set_device>:
 80067d8:	b570      	push	{r4, r5, r6, lr}
 80067da:	4c08      	ldr	r4, [pc, #32]	; (80067fc <rt_console_set_device+0x24>)
 80067dc:	6826      	ldr	r6, [r4, #0]
 80067de:	f7ff f841 	bl	8005864 <rt_device_find>
 80067e2:	4605      	mov	r5, r0
 80067e4:	b140      	cbz	r0, 80067f8 <rt_console_set_device+0x20>
 80067e6:	6820      	ldr	r0, [r4, #0]
 80067e8:	b108      	cbz	r0, 80067ee <rt_console_set_device+0x16>
 80067ea:	f7ff f8e1 	bl	80059b0 <rt_device_close>
 80067ee:	4628      	mov	r0, r5
 80067f0:	2103      	movs	r1, #3
 80067f2:	6025      	str	r5, [r4, #0]
 80067f4:	f7ff f87a 	bl	80058ec <rt_device_open>
 80067f8:	4630      	mov	r0, r6
 80067fa:	bd70      	pop	{r4, r5, r6, pc}
 80067fc:	20000bac 	.word	0x20000bac

08006800 <rt_hw_console_output>:
 8006800:	4770      	bx	lr
 8006802:	bf00      	nop

08006804 <rt_kprintf>:
 8006804:	b40f      	push	{r0, r1, r2, r3}
 8006806:	b530      	push	{r4, r5, lr}
 8006808:	b083      	sub	sp, #12
 800680a:	ac06      	add	r4, sp, #24
 800680c:	f854 2b04 	ldr.w	r2, [r4], #4
 8006810:	4810      	ldr	r0, [pc, #64]	; (8006854 <rt_kprintf+0x50>)
 8006812:	4623      	mov	r3, r4
 8006814:	217f      	movs	r1, #127	; 0x7f
 8006816:	9401      	str	r4, [sp, #4]
 8006818:	f7ff fd6e 	bl	80062f8 <rt_vsnprintf>
 800681c:	4c0e      	ldr	r4, [pc, #56]	; (8006858 <rt_kprintf+0x54>)
 800681e:	287f      	cmp	r0, #127	; 0x7f
 8006820:	bf34      	ite	cc
 8006822:	4603      	movcc	r3, r0
 8006824:	237f      	movcs	r3, #127	; 0x7f
 8006826:	6822      	ldr	r2, [r4, #0]
 8006828:	b17a      	cbz	r2, 800684a <rt_kprintf+0x46>
 800682a:	8ad5      	ldrh	r5, [r2, #22]
 800682c:	4610      	mov	r0, r2
 800682e:	f045 0140 	orr.w	r1, r5, #64	; 0x40
 8006832:	82d1      	strh	r1, [r2, #22]
 8006834:	2100      	movs	r1, #0
 8006836:	4a07      	ldr	r2, [pc, #28]	; (8006854 <rt_kprintf+0x50>)
 8006838:	f7ff f8ec 	bl	8005a14 <rt_device_write>
 800683c:	6823      	ldr	r3, [r4, #0]
 800683e:	82dd      	strh	r5, [r3, #22]
 8006840:	b003      	add	sp, #12
 8006842:	e8bd 4030 	ldmia.w	sp!, {r4, r5, lr}
 8006846:	b004      	add	sp, #16
 8006848:	4770      	bx	lr
 800684a:	4802      	ldr	r0, [pc, #8]	; (8006854 <rt_kprintf+0x50>)
 800684c:	f7ff ffd8 	bl	8006800 <rt_hw_console_output>
 8006850:	e7f6      	b.n	8006840 <rt_kprintf+0x3c>
 8006852:	bf00      	nop
 8006854:	20000b2c 	.word	0x20000b2c
 8006858:	20000bac 	.word	0x20000bac

0800685c <rt_show_version>:
 800685c:	b500      	push	{lr}
 800685e:	f648 7090 	movw	r0, #36752	; 0x8f90
 8006862:	b083      	sub	sp, #12
 8006864:	f6c0 0000 	movt	r0, #2048	; 0x800
 8006868:	f7ff ffcc 	bl	8006804 <rt_kprintf>
 800686c:	f648 709c 	movw	r0, #36764	; 0x8f9c
 8006870:	f6c0 0000 	movt	r0, #2048	; 0x800
 8006874:	f7ff ffc6 	bl	8006804 <rt_kprintf>
 8006878:	f648 73e0 	movw	r3, #36832	; 0x8fe0
 800687c:	f6c0 0300 	movt	r3, #2048	; 0x800
 8006880:	f648 70c0 	movw	r0, #36800	; 0x8fc0
 8006884:	9300      	str	r3, [sp, #0]
 8006886:	f6c0 0000 	movt	r0, #2048	; 0x800
 800688a:	2101      	movs	r1, #1
 800688c:	2202      	movs	r2, #2
 800688e:	2300      	movs	r3, #0
 8006890:	f7ff ffb8 	bl	8006804 <rt_kprintf>
 8006894:	f648 70ec 	movw	r0, #36844	; 0x8fec
 8006898:	f6c0 0000 	movt	r0, #2048	; 0x800
 800689c:	b003      	add	sp, #12
 800689e:	f85d eb04 	ldr.w	lr, [sp], #4
 80068a2:	f7ff bfaf 	b.w	8006804 <rt_kprintf>
 80068a6:	bf00      	nop

080068a8 <__rt_ffs>:
 80068a8:	b160      	cbz	r0, 80068c4 <__rt_ffs+0x1c>
 80068aa:	f010 03ff 	ands.w	r3, r0, #255	; 0xff
 80068ae:	d10a      	bne.n	80068c6 <__rt_ffs+0x1e>
 80068b0:	f410 417f 	ands.w	r1, r0, #65280	; 0xff00
 80068b4:	d110      	bne.n	80068d8 <__rt_ffs+0x30>
 80068b6:	f410 027f 	ands.w	r2, r0, #16711680	; 0xff0000
 80068ba:	d108      	bne.n	80068ce <__rt_ffs+0x26>
 80068bc:	4b09      	ldr	r3, [pc, #36]	; (80068e4 <__rt_ffs+0x3c>)
 80068be:	0e00      	lsrs	r0, r0, #24
 80068c0:	5c18      	ldrb	r0, [r3, r0]
 80068c2:	3019      	adds	r0, #25
 80068c4:	4770      	bx	lr
 80068c6:	4907      	ldr	r1, [pc, #28]	; (80068e4 <__rt_ffs+0x3c>)
 80068c8:	5cca      	ldrb	r2, [r1, r3]
 80068ca:	1c50      	adds	r0, r2, #1
 80068cc:	4770      	bx	lr
 80068ce:	1411      	asrs	r1, r2, #16
 80068d0:	4a04      	ldr	r2, [pc, #16]	; (80068e4 <__rt_ffs+0x3c>)
 80068d2:	5c50      	ldrb	r0, [r2, r1]
 80068d4:	3011      	adds	r0, #17
 80068d6:	4770      	bx	lr
 80068d8:	4b02      	ldr	r3, [pc, #8]	; (80068e4 <__rt_ffs+0x3c>)
 80068da:	1208      	asrs	r0, r1, #8
 80068dc:	5c18      	ldrb	r0, [r3, r0]
 80068de:	3009      	adds	r0, #9
 80068e0:	4770      	bx	lr
 80068e2:	bf00      	nop
 80068e4:	08009018 	.word	0x08009018

080068e8 <plug_holes>:
 80068e8:	b5f0      	push	{r4, r5, r6, r7, lr}
 80068ea:	4d30      	ldr	r5, [pc, #192]	; (80069ac <plug_holes+0xc4>)
 80068ec:	b083      	sub	sp, #12
 80068ee:	682b      	ldr	r3, [r5, #0]
 80068f0:	4604      	mov	r4, r0
 80068f2:	4283      	cmp	r3, r0
 80068f4:	d84b      	bhi.n	800698e <plug_holes+0xa6>
 80068f6:	4e2e      	ldr	r6, [pc, #184]	; (80069b0 <plug_holes+0xc8>)
 80068f8:	6831      	ldr	r1, [r6, #0]
 80068fa:	428c      	cmp	r4, r1
 80068fc:	d239      	bcs.n	8006972 <plug_holes+0x8a>
 80068fe:	8863      	ldrh	r3, [r4, #2]
 8006900:	2b00      	cmp	r3, #0
 8006902:	d128      	bne.n	8006956 <plug_holes+0x6e>
 8006904:	682b      	ldr	r3, [r5, #0]
 8006906:	6861      	ldr	r1, [r4, #4]
 8006908:	185a      	adds	r2, r3, r1
 800690a:	4294      	cmp	r4, r2
 800690c:	d001      	beq.n	8006912 <plug_holes+0x2a>
 800690e:	8850      	ldrh	r0, [r2, #2]
 8006910:	b190      	cbz	r0, 8006938 <plug_holes+0x50>
 8006912:	68a0      	ldr	r0, [r4, #8]
 8006914:	181a      	adds	r2, r3, r0
 8006916:	42a2      	cmp	r2, r4
 8006918:	d00c      	beq.n	8006934 <plug_holes+0x4c>
 800691a:	8851      	ldrh	r1, [r2, #2]
 800691c:	b951      	cbnz	r1, 8006934 <plug_holes+0x4c>
 800691e:	4925      	ldr	r1, [pc, #148]	; (80069b4 <plug_holes+0xcc>)
 8006920:	6808      	ldr	r0, [r1, #0]
 8006922:	42a0      	cmp	r0, r4
 8006924:	bf08      	it	eq
 8006926:	600a      	streq	r2, [r1, #0]
 8006928:	6861      	ldr	r1, [r4, #4]
 800692a:	1ad0      	subs	r0, r2, r3
 800692c:	6051      	str	r1, [r2, #4]
 800692e:	6862      	ldr	r2, [r4, #4]
 8006930:	189b      	adds	r3, r3, r2
 8006932:	6098      	str	r0, [r3, #8]
 8006934:	b003      	add	sp, #12
 8006936:	bdf0      	pop	{r4, r5, r6, r7, pc}
 8006938:	6831      	ldr	r1, [r6, #0]
 800693a:	428a      	cmp	r2, r1
 800693c:	d0e9      	beq.n	8006912 <plug_holes+0x2a>
 800693e:	491d      	ldr	r1, [pc, #116]	; (80069b4 <plug_holes+0xcc>)
 8006940:	6808      	ldr	r0, [r1, #0]
 8006942:	4290      	cmp	r0, r2
 8006944:	bf08      	it	eq
 8006946:	600c      	streq	r4, [r1, #0]
 8006948:	6851      	ldr	r1, [r2, #4]
 800694a:	1ae0      	subs	r0, r4, r3
 800694c:	6061      	str	r1, [r4, #4]
 800694e:	6852      	ldr	r2, [r2, #4]
 8006950:	1899      	adds	r1, r3, r2
 8006952:	6088      	str	r0, [r1, #8]
 8006954:	e7dd      	b.n	8006912 <plug_holes+0x2a>
 8006956:	2700      	movs	r7, #0
 8006958:	4817      	ldr	r0, [pc, #92]	; (80069b8 <plug_holes+0xd0>)
 800695a:	4918      	ldr	r1, [pc, #96]	; (80069bc <plug_holes+0xd4>)
 800695c:	4a18      	ldr	r2, [pc, #96]	; (80069c0 <plug_holes+0xd8>)
 800695e:	238f      	movs	r3, #143	; 0x8f
 8006960:	f88d 7007 	strb.w	r7, [sp, #7]
 8006964:	f7ff ff4e 	bl	8006804 <rt_kprintf>
 8006968:	f89d 0007 	ldrb.w	r0, [sp, #7]
 800696c:	2800      	cmp	r0, #0
 800696e:	d0fb      	beq.n	8006968 <plug_holes+0x80>
 8006970:	e7c8      	b.n	8006904 <plug_holes+0x1c>
 8006972:	2700      	movs	r7, #0
 8006974:	4810      	ldr	r0, [pc, #64]	; (80069b8 <plug_holes+0xd0>)
 8006976:	4913      	ldr	r1, [pc, #76]	; (80069c4 <plug_holes+0xdc>)
 8006978:	4a11      	ldr	r2, [pc, #68]	; (80069c0 <plug_holes+0xd8>)
 800697a:	238e      	movs	r3, #142	; 0x8e
 800697c:	f88d 7006 	strb.w	r7, [sp, #6]
 8006980:	f7ff ff40 	bl	8006804 <rt_kprintf>
 8006984:	f89d 2006 	ldrb.w	r2, [sp, #6]
 8006988:	2a00      	cmp	r2, #0
 800698a:	d0fb      	beq.n	8006984 <plug_holes+0x9c>
 800698c:	e7b7      	b.n	80068fe <plug_holes+0x16>
 800698e:	2600      	movs	r6, #0
 8006990:	4809      	ldr	r0, [pc, #36]	; (80069b8 <plug_holes+0xd0>)
 8006992:	490d      	ldr	r1, [pc, #52]	; (80069c8 <plug_holes+0xe0>)
 8006994:	4a0a      	ldr	r2, [pc, #40]	; (80069c0 <plug_holes+0xd8>)
 8006996:	238d      	movs	r3, #141	; 0x8d
 8006998:	f88d 6005 	strb.w	r6, [sp, #5]
 800699c:	f7ff ff32 	bl	8006804 <rt_kprintf>
 80069a0:	f89d 0005 	ldrb.w	r0, [sp, #5]
 80069a4:	2800      	cmp	r0, #0
 80069a6:	d0fb      	beq.n	80069a0 <plug_holes+0xb8>
 80069a8:	e7a5      	b.n	80068f6 <plug_holes+0xe>
 80069aa:	bf00      	nop
 80069ac:	20000be8 	.word	0x20000be8
 80069b0:	20000bc0 	.word	0x20000bc0
 80069b4:	20000bb0 	.word	0x20000bb0
 80069b8:	08008674 	.word	0x08008674
 80069bc:	0800918c 	.word	0x0800918c
 80069c0:	08009358 	.word	0x08009358
 80069c4:	08009160 	.word	0x08009160
 80069c8:	08009140 	.word	0x08009140

080069cc <rt_system_heap_init>:
 80069cc:	b5f0      	push	{r4, r5, r6, r7, lr}
 80069ce:	b083      	sub	sp, #12
 80069d0:	460d      	mov	r5, r1
 80069d2:	4607      	mov	r7, r0
 80069d4:	f021 0403 	bic.w	r4, r1, #3
 80069d8:	f7f9 fb98 	bl	800010c <rt_hw_interrupt_disable>
 80069dc:	4606      	mov	r6, r0
 80069de:	f7ff fa45 	bl	8005e6c <rt_interrupt_get_nest>
 80069e2:	b990      	cbnz	r0, 8006a0a <rt_system_heap_init+0x3e>
 80069e4:	4630      	mov	r0, r6
 80069e6:	f7f9 fb95 	bl	8000114 <rt_hw_interrupt_enable>
 80069ea:	2c18      	cmp	r4, #24
 80069ec:	d906      	bls.n	80069fc <rt_system_heap_init+0x30>
 80069ee:	1cfe      	adds	r6, r7, #3
 80069f0:	f026 0603 	bic.w	r6, r6, #3
 80069f4:	f1a4 0018 	sub.w	r0, r4, #24
 80069f8:	4286      	cmp	r6, r0
 80069fa:	d919      	bls.n	8006a30 <rt_system_heap_init+0x64>
 80069fc:	481d      	ldr	r0, [pc, #116]	; (8006a74 <rt_system_heap_init+0xa8>)
 80069fe:	4639      	mov	r1, r7
 8006a00:	462a      	mov	r2, r5
 8006a02:	f7ff feff 	bl	8006804 <rt_kprintf>
 8006a06:	b003      	add	sp, #12
 8006a08:	bdf0      	pop	{r4, r5, r6, r7, pc}
 8006a0a:	481b      	ldr	r0, [pc, #108]	; (8006a78 <rt_system_heap_init+0xac>)
 8006a0c:	491b      	ldr	r1, [pc, #108]	; (8006a7c <rt_system_heap_init+0xb0>)
 8006a0e:	f7ff fef9 	bl	8006804 <rt_kprintf>
 8006a12:	f04f 0e00 	mov.w	lr, #0
 8006a16:	481a      	ldr	r0, [pc, #104]	; (8006a80 <rt_system_heap_init+0xb4>)
 8006a18:	491a      	ldr	r1, [pc, #104]	; (8006a84 <rt_system_heap_init+0xb8>)
 8006a1a:	4a18      	ldr	r2, [pc, #96]	; (8006a7c <rt_system_heap_init+0xb0>)
 8006a1c:	23be      	movs	r3, #190	; 0xbe
 8006a1e:	f88d e007 	strb.w	lr, [sp, #7]
 8006a22:	f7ff feef 	bl	8006804 <rt_kprintf>
 8006a26:	f89d 3007 	ldrb.w	r3, [sp, #7]
 8006a2a:	2b00      	cmp	r3, #0
 8006a2c:	d0fb      	beq.n	8006a26 <rt_system_heap_init+0x5a>
 8006a2e:	e7d9      	b.n	80069e4 <rt_system_heap_init+0x18>
 8006a30:	1ba4      	subs	r4, r4, r6
 8006a32:	f1a4 010c 	sub.w	r1, r4, #12
 8006a36:	f1a4 0c18 	sub.w	ip, r4, #24
 8006a3a:	4c13      	ldr	r4, [pc, #76]	; (8006a88 <rt_system_heap_init+0xbc>)
 8006a3c:	1875      	adds	r5, r6, r1
 8006a3e:	2300      	movs	r3, #0
 8006a40:	f44f 50f5 	mov.w	r0, #7840	; 0x1ea0
 8006a44:	2201      	movs	r2, #1
 8006a46:	f8c4 c000 	str.w	ip, [r4]
 8006a4a:	4f10      	ldr	r7, [pc, #64]	; (8006a8c <rt_system_heap_init+0xc0>)
 8006a4c:	4c10      	ldr	r4, [pc, #64]	; (8006a90 <rt_system_heap_init+0xc4>)
 8006a4e:	8030      	strh	r0, [r6, #0]
 8006a50:	6071      	str	r1, [r6, #4]
 8006a52:	60b3      	str	r3, [r6, #8]
 8006a54:	8073      	strh	r3, [r6, #2]
 8006a56:	5270      	strh	r0, [r6, r1]
 8006a58:	806a      	strh	r2, [r5, #2]
 8006a5a:	6069      	str	r1, [r5, #4]
 8006a5c:	60a9      	str	r1, [r5, #8]
 8006a5e:	480d      	ldr	r0, [pc, #52]	; (8006a94 <rt_system_heap_init+0xc8>)
 8006a60:	490d      	ldr	r1, [pc, #52]	; (8006a98 <rt_system_heap_init+0xcc>)
 8006a62:	603e      	str	r6, [r7, #0]
 8006a64:	6025      	str	r5, [r4, #0]
 8006a66:	f7ff f88f 	bl	8005b88 <rt_sem_init>
 8006a6a:	683a      	ldr	r2, [r7, #0]
 8006a6c:	4b0b      	ldr	r3, [pc, #44]	; (8006a9c <rt_system_heap_init+0xd0>)
 8006a6e:	601a      	str	r2, [r3, #0]
 8006a70:	e7c9      	b.n	8006a06 <rt_system_heap_init+0x3a>
 8006a72:	bf00      	nop
 8006a74:	080091a4 	.word	0x080091a4
 8006a78:	08008ec4 	.word	0x08008ec4
 8006a7c:	08009118 	.word	0x08009118
 8006a80:	08008674 	.word	0x08008674
 8006a84:	080092a0 	.word	0x080092a0
 8006a88:	20000bbc 	.word	0x20000bbc
 8006a8c:	20000be8 	.word	0x20000be8
 8006a90:	20000bc0 	.word	0x20000bc0
 8006a94:	20000bc4 	.word	0x20000bc4
 8006a98:	0800919c 	.word	0x0800919c
 8006a9c:	20000bb0 	.word	0x20000bb0

08006aa0 <rt_malloc>:
 8006aa0:	e92d 47f0 	stmdb	sp!, {r4, r5, r6, r7, r8, r9, sl, lr}
 8006aa4:	b082      	sub	sp, #8
 8006aa6:	4604      	mov	r4, r0
 8006aa8:	f7f9 fb30 	bl	800010c <rt_hw_interrupt_disable>
 8006aac:	4605      	mov	r5, r0
 8006aae:	f7ff f9dd 	bl	8005e6c <rt_interrupt_get_nest>
 8006ab2:	2800      	cmp	r0, #0
 8006ab4:	d13f      	bne.n	8006b36 <rt_malloc+0x96>
 8006ab6:	4628      	mov	r0, r5
 8006ab8:	f7f9 fb2c 	bl	8000114 <rt_hw_interrupt_enable>
 8006abc:	2c00      	cmp	r4, #0
 8006abe:	d050      	beq.n	8006b62 <rt_malloc+0xc2>
 8006ac0:	4e71      	ldr	r6, [pc, #452]	; (8006c88 <rt_malloc+0x1e8>)
 8006ac2:	f104 0803 	add.w	r8, r4, #3
 8006ac6:	6830      	ldr	r0, [r6, #0]
 8006ac8:	f028 0803 	bic.w	r8, r8, #3
 8006acc:	4580      	cmp	r8, r0
 8006ace:	f200 8098 	bhi.w	8006c02 <rt_malloc+0x162>
 8006ad2:	f04f 31ff 	mov.w	r1, #4294967295
 8006ad6:	486d      	ldr	r0, [pc, #436]	; (8006c8c <rt_malloc+0x1ec>)
 8006ad8:	f7ff f8b6 	bl	8005c48 <rt_sem_take>
 8006adc:	f8df 91dc 	ldr.w	r9, [pc, #476]	; 8006cbc <rt_malloc+0x21c>
 8006ae0:	f8df c1dc 	ldr.w	ip, [pc, #476]	; 8006cc0 <rt_malloc+0x220>
 8006ae4:	f8d9 1000 	ldr.w	r1, [r9]
 8006ae8:	f8dc 5000 	ldr.w	r5, [ip]
 8006aec:	f8d6 e000 	ldr.w	lr, [r6]
 8006af0:	f1b8 0f0b 	cmp.w	r8, #11
 8006af4:	bf98      	it	ls
 8006af6:	f04f 080c 	movls.w	r8, #12
 8006afa:	1b4b      	subs	r3, r1, r5
 8006afc:	ebc8 060e 	rsb	r6, r8, lr
 8006b00:	42b3      	cmp	r3, r6
 8006b02:	d309      	bcc.n	8006b18 <rt_malloc+0x78>
 8006b04:	e00f      	b.n	8006b26 <rt_malloc+0x86>
 8006b06:	6860      	ldr	r0, [r4, #4]
 8006b08:	f1a0 070c 	sub.w	r7, r0, #12
 8006b0c:	1aff      	subs	r7, r7, r3
 8006b0e:	45b8      	cmp	r8, r7
 8006b10:	d929      	bls.n	8006b66 <rt_malloc+0xc6>
 8006b12:	4603      	mov	r3, r0
 8006b14:	429e      	cmp	r6, r3
 8006b16:	d906      	bls.n	8006b26 <rt_malloc+0x86>
 8006b18:	18ec      	adds	r4, r5, r3
 8006b1a:	8862      	ldrh	r2, [r4, #2]
 8006b1c:	2a00      	cmp	r2, #0
 8006b1e:	d0f2      	beq.n	8006b06 <rt_malloc+0x66>
 8006b20:	6863      	ldr	r3, [r4, #4]
 8006b22:	429e      	cmp	r6, r3
 8006b24:	d8f8      	bhi.n	8006b18 <rt_malloc+0x78>
 8006b26:	4859      	ldr	r0, [pc, #356]	; (8006c8c <rt_malloc+0x1ec>)
 8006b28:	f7ff f95e 	bl	8005de8 <rt_sem_release>
 8006b2c:	2500      	movs	r5, #0
 8006b2e:	4628      	mov	r0, r5
 8006b30:	b002      	add	sp, #8
 8006b32:	e8bd 87f0 	ldmia.w	sp!, {r4, r5, r6, r7, r8, r9, sl, pc}
 8006b36:	4856      	ldr	r0, [pc, #344]	; (8006c90 <rt_malloc+0x1f0>)
 8006b38:	4956      	ldr	r1, [pc, #344]	; (8006c94 <rt_malloc+0x1f4>)
 8006b3a:	f7ff fe63 	bl	8006804 <rt_kprintf>
 8006b3e:	2600      	movs	r6, #0
 8006b40:	4855      	ldr	r0, [pc, #340]	; (8006c98 <rt_malloc+0x1f8>)
 8006b42:	4956      	ldr	r1, [pc, #344]	; (8006c9c <rt_malloc+0x1fc>)
 8006b44:	4a53      	ldr	r2, [pc, #332]	; (8006c94 <rt_malloc+0x1f4>)
 8006b46:	23fb      	movs	r3, #251	; 0xfb
 8006b48:	f88d 6004 	strb.w	r6, [sp, #4]
 8006b4c:	f7ff fe5a 	bl	8006804 <rt_kprintf>
 8006b50:	f89d 3004 	ldrb.w	r3, [sp, #4]
 8006b54:	2b00      	cmp	r3, #0
 8006b56:	d0fb      	beq.n	8006b50 <rt_malloc+0xb0>
 8006b58:	4628      	mov	r0, r5
 8006b5a:	f7f9 fadb 	bl	8000114 <rt_hw_interrupt_enable>
 8006b5e:	2c00      	cmp	r4, #0
 8006b60:	d1ae      	bne.n	8006ac0 <rt_malloc+0x20>
 8006b62:	4625      	mov	r5, r4
 8006b64:	e7e3      	b.n	8006b2e <rt_malloc+0x8e>
 8006b66:	f108 0618 	add.w	r6, r8, #24
 8006b6a:	42be      	cmp	r6, r7
 8006b6c:	d929      	bls.n	8006bc2 <rt_malloc+0x122>
 8006b6e:	4e4c      	ldr	r6, [pc, #304]	; (8006ca0 <rt_malloc+0x200>)
 8006b70:	4f4c      	ldr	r7, [pc, #304]	; (8006ca4 <rt_malloc+0x204>)
 8006b72:	6832      	ldr	r2, [r6, #0]
 8006b74:	1b2d      	subs	r5, r5, r4
 8006b76:	1883      	adds	r3, r0, r2
 8006b78:	6838      	ldr	r0, [r7, #0]
 8006b7a:	195d      	adds	r5, r3, r5
 8006b7c:	2201      	movs	r2, #1
 8006b7e:	4285      	cmp	r5, r0
 8006b80:	6035      	str	r5, [r6, #0]
 8006b82:	8062      	strh	r2, [r4, #2]
 8006b84:	bf88      	it	hi
 8006b86:	603d      	strhi	r5, [r7, #0]
 8006b88:	f108 060c 	add.w	r6, r8, #12
 8006b8c:	f44f 50f5 	mov.w	r0, #7840	; 0x1ea0
 8006b90:	42a1      	cmp	r1, r4
 8006b92:	8020      	strh	r0, [r4, #0]
 8006b94:	d064      	beq.n	8006c60 <rt_malloc+0x1c0>
 8006b96:	4d44      	ldr	r5, [pc, #272]	; (8006ca8 <rt_malloc+0x208>)
 8006b98:	483c      	ldr	r0, [pc, #240]	; (8006c8c <rt_malloc+0x1ec>)
 8006b9a:	f7ff f925 	bl	8005de8 <rt_sem_release>
 8006b9e:	682d      	ldr	r5, [r5, #0]
 8006ba0:	1936      	adds	r6, r6, r4
 8006ba2:	42b5      	cmp	r5, r6
 8006ba4:	d34d      	bcc.n	8006c42 <rt_malloc+0x1a2>
 8006ba6:	f104 050c 	add.w	r5, r4, #12
 8006baa:	07aa      	lsls	r2, r5, #30
 8006bac:	d13a      	bne.n	8006c24 <rt_malloc+0x184>
 8006bae:	07a3      	lsls	r3, r4, #30
 8006bb0:	d129      	bne.n	8006c06 <rt_malloc+0x166>
 8006bb2:	4b3e      	ldr	r3, [pc, #248]	; (8006cac <rt_malloc+0x20c>)
 8006bb4:	681a      	ldr	r2, [r3, #0]
 8006bb6:	2a00      	cmp	r2, #0
 8006bb8:	d0b9      	beq.n	8006b2e <rt_malloc+0x8e>
 8006bba:	4628      	mov	r0, r5
 8006bbc:	4641      	mov	r1, r8
 8006bbe:	4790      	blx	r2
 8006bc0:	e7b5      	b.n	8006b2e <rt_malloc+0x8e>
 8006bc2:	f108 060c 	add.w	r6, r8, #12
 8006bc6:	eb03 0a06 	add.w	sl, r3, r6
 8006bca:	eb05 070a 	add.w	r7, r5, sl
 8006bce:	6078      	str	r0, [r7, #4]
 8006bd0:	f8c4 a004 	str.w	sl, [r4, #4]
 8006bd4:	6878      	ldr	r0, [r7, #4]
 8006bd6:	f10e 0e0c 	add.w	lr, lr, #12
 8006bda:	60bb      	str	r3, [r7, #8]
 8006bdc:	2301      	movs	r3, #1
 8006bde:	4570      	cmp	r0, lr
 8006be0:	bf1c      	itt	ne
 8006be2:	1828      	addne	r0, r5, r0
 8006be4:	f8c0 a008 	strne.w	sl, [r0, #8]
 8006be8:	482d      	ldr	r0, [pc, #180]	; (8006ca0 <rt_malloc+0x200>)
 8006bea:	807a      	strh	r2, [r7, #2]
 8006bec:	4d2d      	ldr	r5, [pc, #180]	; (8006ca4 <rt_malloc+0x204>)
 8006bee:	8063      	strh	r3, [r4, #2]
 8006bf0:	6803      	ldr	r3, [r0, #0]
 8006bf2:	682a      	ldr	r2, [r5, #0]
 8006bf4:	330c      	adds	r3, #12
 8006bf6:	4443      	add	r3, r8
 8006bf8:	4293      	cmp	r3, r2
 8006bfa:	6003      	str	r3, [r0, #0]
 8006bfc:	d9c6      	bls.n	8006b8c <rt_malloc+0xec>
 8006bfe:	602b      	str	r3, [r5, #0]
 8006c00:	e7c4      	b.n	8006b8c <rt_malloc+0xec>
 8006c02:	2500      	movs	r5, #0
 8006c04:	e793      	b.n	8006b2e <rt_malloc+0x8e>
 8006c06:	2400      	movs	r4, #0
 8006c08:	4823      	ldr	r0, [pc, #140]	; (8006c98 <rt_malloc+0x1f8>)
 8006c0a:	4929      	ldr	r1, [pc, #164]	; (8006cb0 <rt_malloc+0x210>)
 8006c0c:	4a21      	ldr	r2, [pc, #132]	; (8006c94 <rt_malloc+0x1f4>)
 8006c0e:	f44f 73b2 	mov.w	r3, #356	; 0x164
 8006c12:	f88d 4007 	strb.w	r4, [sp, #7]
 8006c16:	f7ff fdf5 	bl	8006804 <rt_kprintf>
 8006c1a:	f89d 1007 	ldrb.w	r1, [sp, #7]
 8006c1e:	2900      	cmp	r1, #0
 8006c20:	d0fb      	beq.n	8006c1a <rt_malloc+0x17a>
 8006c22:	e7c6      	b.n	8006bb2 <rt_malloc+0x112>
 8006c24:	2600      	movs	r6, #0
 8006c26:	481c      	ldr	r0, [pc, #112]	; (8006c98 <rt_malloc+0x1f8>)
 8006c28:	4922      	ldr	r1, [pc, #136]	; (8006cb4 <rt_malloc+0x214>)
 8006c2a:	4a1a      	ldr	r2, [pc, #104]	; (8006c94 <rt_malloc+0x1f4>)
 8006c2c:	f240 1363 	movw	r3, #355	; 0x163
 8006c30:	f88d 6006 	strb.w	r6, [sp, #6]
 8006c34:	f7ff fde6 	bl	8006804 <rt_kprintf>
 8006c38:	f89d 0006 	ldrb.w	r0, [sp, #6]
 8006c3c:	2800      	cmp	r0, #0
 8006c3e:	d0fb      	beq.n	8006c38 <rt_malloc+0x198>
 8006c40:	e7b5      	b.n	8006bae <rt_malloc+0x10e>
 8006c42:	2500      	movs	r5, #0
 8006c44:	4814      	ldr	r0, [pc, #80]	; (8006c98 <rt_malloc+0x1f8>)
 8006c46:	491c      	ldr	r1, [pc, #112]	; (8006cb8 <rt_malloc+0x218>)
 8006c48:	4a12      	ldr	r2, [pc, #72]	; (8006c94 <rt_malloc+0x1f4>)
 8006c4a:	f44f 73b1 	mov.w	r3, #354	; 0x162
 8006c4e:	f88d 5005 	strb.w	r5, [sp, #5]
 8006c52:	f7ff fdd7 	bl	8006804 <rt_kprintf>
 8006c56:	f89d 2005 	ldrb.w	r2, [sp, #5]
 8006c5a:	2a00      	cmp	r2, #0
 8006c5c:	d0fb      	beq.n	8006c56 <rt_malloc+0x1b6>
 8006c5e:	e7a2      	b.n	8006ba6 <rt_malloc+0x106>
 8006c60:	884d      	ldrh	r5, [r1, #2]
 8006c62:	2d00      	cmp	r5, #0
 8006c64:	d097      	beq.n	8006b96 <rt_malloc+0xf6>
 8006c66:	4d10      	ldr	r5, [pc, #64]	; (8006ca8 <rt_malloc+0x208>)
 8006c68:	682a      	ldr	r2, [r5, #0]
 8006c6a:	4291      	cmp	r1, r2
 8006c6c:	d094      	beq.n	8006b98 <rt_malloc+0xf8>
 8006c6e:	f8dc 0000 	ldr.w	r0, [ip]
 8006c72:	e001      	b.n	8006c78 <rt_malloc+0x1d8>
 8006c74:	4291      	cmp	r1, r2
 8006c76:	d004      	beq.n	8006c82 <rt_malloc+0x1e2>
 8006c78:	6849      	ldr	r1, [r1, #4]
 8006c7a:	1841      	adds	r1, r0, r1
 8006c7c:	884b      	ldrh	r3, [r1, #2]
 8006c7e:	2b00      	cmp	r3, #0
 8006c80:	d1f8      	bne.n	8006c74 <rt_malloc+0x1d4>
 8006c82:	f8c9 1000 	str.w	r1, [r9]
 8006c86:	e787      	b.n	8006b98 <rt_malloc+0xf8>
 8006c88:	20000bbc 	.word	0x20000bbc
 8006c8c:	20000bc4 	.word	0x20000bc4
 8006c90:	08008ec4 	.word	0x08008ec4
 8006c94:	0800912c 	.word	0x0800912c
 8006c98:	08008674 	.word	0x08008674
 8006c9c:	080092a0 	.word	0x080092a0
 8006ca0:	20000bb4 	.word	0x20000bb4
 8006ca4:	20000bec 	.word	0x20000bec
 8006ca8:	20000bc0 	.word	0x20000bc0
 8006cac:	20000bb8 	.word	0x20000bb8
 8006cb0:	08009274 	.word	0x08009274
 8006cb4:	08009228 	.word	0x08009228
 8006cb8:	080091e0 	.word	0x080091e0
 8006cbc:	20000bb0 	.word	0x20000bb0
 8006cc0:	20000be8 	.word	0x20000be8

08006cc4 <rt_free>:
 8006cc4:	b5f0      	push	{r4, r5, r6, r7, lr}
 8006cc6:	b083      	sub	sp, #12
 8006cc8:	4604      	mov	r4, r0
 8006cca:	f7f9 fa1f 	bl	800010c <rt_hw_interrupt_disable>
 8006cce:	4605      	mov	r5, r0
 8006cd0:	f7ff f8cc 	bl	8005e6c <rt_interrupt_get_nest>
 8006cd4:	2800      	cmp	r0, #0
 8006cd6:	d162      	bne.n	8006d9e <rt_free+0xda>
 8006cd8:	4628      	mov	r0, r5
 8006cda:	f7f9 fa1b 	bl	8000114 <rt_hw_interrupt_enable>
 8006cde:	b1ac      	cbz	r4, 8006d0c <rt_free+0x48>
 8006ce0:	07a1      	lsls	r1, r4, #30
 8006ce2:	d16f      	bne.n	8006dc4 <rt_free+0x100>
 8006ce4:	4d46      	ldr	r5, [pc, #280]	; (8006e00 <rt_free+0x13c>)
 8006ce6:	6829      	ldr	r1, [r5, #0]
 8006ce8:	428c      	cmp	r4, r1
 8006cea:	d311      	bcc.n	8006d10 <rt_free+0x4c>
 8006cec:	4a45      	ldr	r2, [pc, #276]	; (8006e04 <rt_free+0x140>)
 8006cee:	6813      	ldr	r3, [r2, #0]
 8006cf0:	429c      	cmp	r4, r3
 8006cf2:	d20d      	bcs.n	8006d10 <rt_free+0x4c>
 8006cf4:	4944      	ldr	r1, [pc, #272]	; (8006e08 <rt_free+0x144>)
 8006cf6:	680a      	ldr	r2, [r1, #0]
 8006cf8:	b10a      	cbz	r2, 8006cfe <rt_free+0x3a>
 8006cfa:	4620      	mov	r0, r4
 8006cfc:	4790      	blx	r2
 8006cfe:	682b      	ldr	r3, [r5, #0]
 8006d00:	429c      	cmp	r4, r3
 8006d02:	d303      	bcc.n	8006d0c <rt_free+0x48>
 8006d04:	483f      	ldr	r0, [pc, #252]	; (8006e04 <rt_free+0x140>)
 8006d06:	6801      	ldr	r1, [r0, #0]
 8006d08:	428c      	cmp	r4, r1
 8006d0a:	d310      	bcc.n	8006d2e <rt_free+0x6a>
 8006d0c:	b003      	add	sp, #12
 8006d0e:	bdf0      	pop	{r4, r5, r6, r7, pc}
 8006d10:	2600      	movs	r6, #0
 8006d12:	483e      	ldr	r0, [pc, #248]	; (8006e0c <rt_free+0x148>)
 8006d14:	493e      	ldr	r1, [pc, #248]	; (8006e10 <rt_free+0x14c>)
 8006d16:	4a3f      	ldr	r2, [pc, #252]	; (8006e14 <rt_free+0x150>)
 8006d18:	f240 2302 	movw	r3, #514	; 0x202
 8006d1c:	f88d 6005 	strb.w	r6, [sp, #5]
 8006d20:	f7ff fd70 	bl	8006804 <rt_kprintf>
 8006d24:	f89d 0005 	ldrb.w	r0, [sp, #5]
 8006d28:	2800      	cmp	r0, #0
 8006d2a:	d0fb      	beq.n	8006d24 <rt_free+0x60>
 8006d2c:	e7e2      	b.n	8006cf4 <rt_free+0x30>
 8006d2e:	483a      	ldr	r0, [pc, #232]	; (8006e18 <rt_free+0x154>)
 8006d30:	f04f 31ff 	mov.w	r1, #4294967295
 8006d34:	f7fe ff88 	bl	8005c48 <rt_sem_take>
 8006d38:	f834 7c0a 	ldrh.w	r7, [r4, #-10]
 8006d3c:	f1a4 060c 	sub.w	r6, r4, #12
 8006d40:	2f00      	cmp	r7, #0
 8006d42:	d04e      	beq.n	8006de2 <rt_free+0x11e>
 8006d44:	f834 3c0c 	ldrh.w	r3, [r4, #-12]
 8006d48:	f5b3 5ff5 	cmp.w	r3, #7840	; 0x1ea0
 8006d4c:	d00d      	beq.n	8006d6a <rt_free+0xa6>
 8006d4e:	2700      	movs	r7, #0
 8006d50:	482e      	ldr	r0, [pc, #184]	; (8006e0c <rt_free+0x148>)
 8006d52:	4932      	ldr	r1, [pc, #200]	; (8006e1c <rt_free+0x158>)
 8006d54:	4a2f      	ldr	r2, [pc, #188]	; (8006e14 <rt_free+0x150>)
 8006d56:	f44f 7307 	mov.w	r3, #540	; 0x21c
 8006d5a:	f88d 7007 	strb.w	r7, [sp, #7]
 8006d5e:	f7ff fd51 	bl	8006804 <rt_kprintf>
 8006d62:	f89d 0007 	ldrb.w	r0, [sp, #7]
 8006d66:	2800      	cmp	r0, #0
 8006d68:	d0fb      	beq.n	8006d62 <rt_free+0x9e>
 8006d6a:	4a2d      	ldr	r2, [pc, #180]	; (8006e20 <rt_free+0x15c>)
 8006d6c:	2300      	movs	r3, #0
 8006d6e:	6811      	ldr	r1, [r2, #0]
 8006d70:	f824 3c0a 	strh.w	r3, [r4, #-10]
 8006d74:	428e      	cmp	r6, r1
 8006d76:	f824 3c0c 	strh.w	r3, [r4, #-12]
 8006d7a:	d200      	bcs.n	8006d7e <rt_free+0xba>
 8006d7c:	6016      	str	r6, [r2, #0]
 8006d7e:	4b29      	ldr	r3, [pc, #164]	; (8006e24 <rt_free+0x160>)
 8006d80:	6829      	ldr	r1, [r5, #0]
 8006d82:	681a      	ldr	r2, [r3, #0]
 8006d84:	f854 0c08 	ldr.w	r0, [r4, #-8]
 8006d88:	1a10      	subs	r0, r2, r0
 8006d8a:	1b8a      	subs	r2, r1, r6
 8006d8c:	1a81      	subs	r1, r0, r2
 8006d8e:	4630      	mov	r0, r6
 8006d90:	6019      	str	r1, [r3, #0]
 8006d92:	f7ff fda9 	bl	80068e8 <plug_holes>
 8006d96:	4820      	ldr	r0, [pc, #128]	; (8006e18 <rt_free+0x154>)
 8006d98:	f7ff f826 	bl	8005de8 <rt_sem_release>
 8006d9c:	e7b6      	b.n	8006d0c <rt_free+0x48>
 8006d9e:	4822      	ldr	r0, [pc, #136]	; (8006e28 <rt_free+0x164>)
 8006da0:	491c      	ldr	r1, [pc, #112]	; (8006e14 <rt_free+0x150>)
 8006da2:	f7ff fd2f 	bl	8006804 <rt_kprintf>
 8006da6:	2600      	movs	r6, #0
 8006da8:	4818      	ldr	r0, [pc, #96]	; (8006e0c <rt_free+0x148>)
 8006daa:	4920      	ldr	r1, [pc, #128]	; (8006e2c <rt_free+0x168>)
 8006dac:	4a19      	ldr	r2, [pc, #100]	; (8006e14 <rt_free+0x150>)
 8006dae:	f44f 73fe 	mov.w	r3, #508	; 0x1fc
 8006db2:	f88d 6003 	strb.w	r6, [sp, #3]
 8006db6:	f7ff fd25 	bl	8006804 <rt_kprintf>
 8006dba:	f89d 3003 	ldrb.w	r3, [sp, #3]
 8006dbe:	2b00      	cmp	r3, #0
 8006dc0:	d0fb      	beq.n	8006dba <rt_free+0xf6>
 8006dc2:	e789      	b.n	8006cd8 <rt_free+0x14>
 8006dc4:	2500      	movs	r5, #0
 8006dc6:	4811      	ldr	r0, [pc, #68]	; (8006e0c <rt_free+0x148>)
 8006dc8:	4919      	ldr	r1, [pc, #100]	; (8006e30 <rt_free+0x16c>)
 8006dca:	4a12      	ldr	r2, [pc, #72]	; (8006e14 <rt_free+0x150>)
 8006dcc:	f44f 7300 	mov.w	r3, #512	; 0x200
 8006dd0:	f88d 5004 	strb.w	r5, [sp, #4]
 8006dd4:	f7ff fd16 	bl	8006804 <rt_kprintf>
 8006dd8:	f89d 0004 	ldrb.w	r0, [sp, #4]
 8006ddc:	2800      	cmp	r0, #0
 8006dde:	d0fb      	beq.n	8006dd8 <rt_free+0x114>
 8006de0:	e780      	b.n	8006ce4 <rt_free+0x20>
 8006de2:	480a      	ldr	r0, [pc, #40]	; (8006e0c <rt_free+0x148>)
 8006de4:	4913      	ldr	r1, [pc, #76]	; (8006e34 <rt_free+0x170>)
 8006de6:	4a0b      	ldr	r2, [pc, #44]	; (8006e14 <rt_free+0x150>)
 8006de8:	f240 231b 	movw	r3, #539	; 0x21b
 8006dec:	f88d 7006 	strb.w	r7, [sp, #6]
 8006df0:	f7ff fd08 	bl	8006804 <rt_kprintf>
 8006df4:	f89d 2006 	ldrb.w	r2, [sp, #6]
 8006df8:	2a00      	cmp	r2, #0
 8006dfa:	d0fb      	beq.n	8006df4 <rt_free+0x130>
 8006dfc:	e7a2      	b.n	8006d44 <rt_free+0x80>
 8006dfe:	bf00      	nop
 8006e00:	20000be8 	.word	0x20000be8
 8006e04:	20000bc0 	.word	0x20000bc0
 8006e08:	20000be4 	.word	0x20000be4
 8006e0c:	08008674 	.word	0x08008674
 8006e10:	080092d4 	.word	0x080092d4
 8006e14:	08009138 	.word	0x08009138
 8006e18:	20000bc4 	.word	0x20000bc4
 8006e1c:	0800933c 	.word	0x0800933c
 8006e20:	20000bb0 	.word	0x20000bb0
 8006e24:	20000bb4 	.word	0x20000bb4
 8006e28:	08008ec4 	.word	0x08008ec4
 8006e2c:	080092a0 	.word	0x080092a0
 8006e30:	080092a4 	.word	0x080092a4
 8006e34:	08009330 	.word	0x08009330

08006e38 <rt_object_init>:
 8006e38:	b538      	push	{r3, r4, r5, lr}
 8006e3a:	f061 057f 	orn	r5, r1, #127	; 0x7f
 8006e3e:	7205      	strb	r5, [r0, #8]
 8006e40:	4d0e      	ldr	r5, [pc, #56]	; (8006e7c <rt_object_init+0x44>)
 8006e42:	460b      	mov	r3, r1
 8006e44:	4611      	mov	r1, r2
 8006e46:	2208      	movs	r2, #8
 8006e48:	4604      	mov	r4, r0
 8006e4a:	eb05 1503 	add.w	r5, r5, r3, lsl #4
 8006e4e:	f7ff f9d7 	bl	8006200 <rt_strncpy>
 8006e52:	480b      	ldr	r0, [pc, #44]	; (8006e80 <rt_object_init+0x48>)
 8006e54:	6801      	ldr	r1, [r0, #0]
 8006e56:	b109      	cbz	r1, 8006e5c <rt_object_init+0x24>
 8006e58:	4620      	mov	r0, r4
 8006e5a:	4788      	blx	r1
 8006e5c:	f7f9 f956 	bl	800010c <rt_hw_interrupt_disable>
 8006e60:	686b      	ldr	r3, [r5, #4]
 8006e62:	f104 020c 	add.w	r2, r4, #12
 8006e66:	4629      	mov	r1, r5
 8006e68:	60e3      	str	r3, [r4, #12]
 8006e6a:	f841 2f04 	str.w	r2, [r1, #4]!
 8006e6e:	605a      	str	r2, [r3, #4]
 8006e70:	6121      	str	r1, [r4, #16]
 8006e72:	e8bd 4038 	ldmia.w	sp!, {r3, r4, r5, lr}
 8006e76:	f7f9 b94d 	b.w	8000114 <rt_hw_interrupt_enable>
 8006e7a:	bf00      	nop
 8006e7c:	200002c4 	.word	0x200002c4
 8006e80:	20000bf0 	.word	0x20000bf0

08006e84 <rt_object_detach>:
 8006e84:	b510      	push	{r4, lr}
 8006e86:	4604      	mov	r4, r0
 8006e88:	b082      	sub	sp, #8
 8006e8a:	b198      	cbz	r0, 8006eb4 <rt_object_detach+0x30>
 8006e8c:	4810      	ldr	r0, [pc, #64]	; (8006ed0 <rt_object_detach+0x4c>)
 8006e8e:	6801      	ldr	r1, [r0, #0]
 8006e90:	b109      	cbz	r1, 8006e96 <rt_object_detach+0x12>
 8006e92:	4620      	mov	r0, r4
 8006e94:	4788      	blx	r1
 8006e96:	f7f9 f939 	bl	800010c <rt_hw_interrupt_disable>
 8006e9a:	68e2      	ldr	r2, [r4, #12]
 8006e9c:	6921      	ldr	r1, [r4, #16]
 8006e9e:	f104 030c 	add.w	r3, r4, #12
 8006ea2:	6051      	str	r1, [r2, #4]
 8006ea4:	6921      	ldr	r1, [r4, #16]
 8006ea6:	6123      	str	r3, [r4, #16]
 8006ea8:	600a      	str	r2, [r1, #0]
 8006eaa:	60e3      	str	r3, [r4, #12]
 8006eac:	f7f9 f932 	bl	8000114 <rt_hw_interrupt_enable>
 8006eb0:	b002      	add	sp, #8
 8006eb2:	bd10      	pop	{r4, pc}
 8006eb4:	4807      	ldr	r0, [pc, #28]	; (8006ed4 <rt_object_detach+0x50>)
 8006eb6:	4908      	ldr	r1, [pc, #32]	; (8006ed8 <rt_object_detach+0x54>)
 8006eb8:	4a08      	ldr	r2, [pc, #32]	; (8006edc <rt_object_detach+0x58>)
 8006eba:	23fb      	movs	r3, #251	; 0xfb
 8006ebc:	f88d 4007 	strb.w	r4, [sp, #7]
 8006ec0:	f7ff fca0 	bl	8006804 <rt_kprintf>
 8006ec4:	f89d 3007 	ldrb.w	r3, [sp, #7]
 8006ec8:	2b00      	cmp	r3, #0
 8006eca:	d0fb      	beq.n	8006ec4 <rt_object_detach+0x40>
 8006ecc:	e7de      	b.n	8006e8c <rt_object_detach+0x8>
 8006ece:	bf00      	nop
 8006ed0:	20000bf4 	.word	0x20000bf4
 8006ed4:	08008674 	.word	0x08008674
 8006ed8:	0800938c 	.word	0x0800938c
 8006edc:	080093e8 	.word	0x080093e8

08006ee0 <rt_object_allocate>:
 8006ee0:	b5f0      	push	{r4, r5, r6, r7, lr}
 8006ee2:	b083      	sub	sp, #12
 8006ee4:	4606      	mov	r6, r0
 8006ee6:	460f      	mov	r7, r1
 8006ee8:	f7f9 f910 	bl	800010c <rt_hw_interrupt_disable>
 8006eec:	4604      	mov	r4, r0
 8006eee:	f7fe ffbd 	bl	8005e6c <rt_interrupt_get_nest>
 8006ef2:	2800      	cmp	r0, #0
 8006ef4:	d125      	bne.n	8006f42 <rt_object_allocate+0x62>
 8006ef6:	4620      	mov	r0, r4
 8006ef8:	f7f9 f90c 	bl	8000114 <rt_hw_interrupt_enable>
 8006efc:	481a      	ldr	r0, [pc, #104]	; (8006f68 <rt_object_allocate+0x88>)
 8006efe:	eb00 1506 	add.w	r5, r0, r6, lsl #4
 8006f02:	68e8      	ldr	r0, [r5, #12]
 8006f04:	f7ff fdcc 	bl	8006aa0 <rt_malloc>
 8006f08:	4604      	mov	r4, r0
 8006f0a:	b1b8      	cbz	r0, 8006f3c <rt_object_allocate+0x5c>
 8006f0c:	2100      	movs	r1, #0
 8006f0e:	7241      	strb	r1, [r0, #9]
 8006f10:	2208      	movs	r2, #8
 8006f12:	7206      	strb	r6, [r0, #8]
 8006f14:	4639      	mov	r1, r7
 8006f16:	f7ff f973 	bl	8006200 <rt_strncpy>
 8006f1a:	4a14      	ldr	r2, [pc, #80]	; (8006f6c <rt_object_allocate+0x8c>)
 8006f1c:	6813      	ldr	r3, [r2, #0]
 8006f1e:	b10b      	cbz	r3, 8006f24 <rt_object_allocate+0x44>
 8006f20:	4620      	mov	r0, r4
 8006f22:	4798      	blx	r3
 8006f24:	f7f9 f8f2 	bl	800010c <rt_hw_interrupt_disable>
 8006f28:	6869      	ldr	r1, [r5, #4]
 8006f2a:	f104 020c 	add.w	r2, r4, #12
 8006f2e:	60e1      	str	r1, [r4, #12]
 8006f30:	f845 2f04 	str.w	r2, [r5, #4]!
 8006f34:	604a      	str	r2, [r1, #4]
 8006f36:	6125      	str	r5, [r4, #16]
 8006f38:	f7f9 f8ec 	bl	8000114 <rt_hw_interrupt_enable>
 8006f3c:	4620      	mov	r0, r4
 8006f3e:	b003      	add	sp, #12
 8006f40:	bdf0      	pop	{r4, r5, r6, r7, pc}
 8006f42:	480b      	ldr	r0, [pc, #44]	; (8006f70 <rt_object_allocate+0x90>)
 8006f44:	490b      	ldr	r1, [pc, #44]	; (8006f74 <rt_object_allocate+0x94>)
 8006f46:	f7ff fc5d 	bl	8006804 <rt_kprintf>
 8006f4a:	2500      	movs	r5, #0
 8006f4c:	480a      	ldr	r0, [pc, #40]	; (8006f78 <rt_object_allocate+0x98>)
 8006f4e:	490b      	ldr	r1, [pc, #44]	; (8006f7c <rt_object_allocate+0x9c>)
 8006f50:	4a08      	ldr	r2, [pc, #32]	; (8006f74 <rt_object_allocate+0x94>)
 8006f52:	f44f 738c 	mov.w	r3, #280	; 0x118
 8006f56:	f88d 5007 	strb.w	r5, [sp, #7]
 8006f5a:	f7ff fc53 	bl	8006804 <rt_kprintf>
 8006f5e:	f89d 3007 	ldrb.w	r3, [sp, #7]
 8006f62:	2b00      	cmp	r3, #0
 8006f64:	d0fb      	beq.n	8006f5e <rt_object_allocate+0x7e>
 8006f66:	e7c6      	b.n	8006ef6 <rt_object_allocate+0x16>
 8006f68:	200002c4 	.word	0x200002c4
 8006f6c:	20000bf0 	.word	0x20000bf0
 8006f70:	08008ec4 	.word	0x08008ec4
 8006f74:	08009364 	.word	0x08009364
 8006f78:	08008674 	.word	0x08008674
 8006f7c:	080092a0 	.word	0x080092a0

08006f80 <rt_object_delete>:
 8006f80:	b530      	push	{r4, r5, lr}
 8006f82:	4604      	mov	r4, r0
 8006f84:	b083      	sub	sp, #12
 8006f86:	2800      	cmp	r0, #0
 8006f88:	d029      	beq.n	8006fde <rt_object_delete+0x5e>
 8006f8a:	f994 0008 	ldrsb.w	r0, [r4, #8]
 8006f8e:	2800      	cmp	r0, #0
 8006f90:	db16      	blt.n	8006fc0 <rt_object_delete+0x40>
 8006f92:	4a1a      	ldr	r2, [pc, #104]	; (8006ffc <rt_object_delete+0x7c>)
 8006f94:	6813      	ldr	r3, [r2, #0]
 8006f96:	b10b      	cbz	r3, 8006f9c <rt_object_delete+0x1c>
 8006f98:	4620      	mov	r0, r4
 8006f9a:	4798      	blx	r3
 8006f9c:	f7f9 f8b6 	bl	800010c <rt_hw_interrupt_disable>
 8006fa0:	68e2      	ldr	r2, [r4, #12]
 8006fa2:	6921      	ldr	r1, [r4, #16]
 8006fa4:	f104 030c 	add.w	r3, r4, #12
 8006fa8:	6051      	str	r1, [r2, #4]
 8006faa:	6921      	ldr	r1, [r4, #16]
 8006fac:	6123      	str	r3, [r4, #16]
 8006fae:	600a      	str	r2, [r1, #0]
 8006fb0:	60e3      	str	r3, [r4, #12]
 8006fb2:	f7f9 f8af 	bl	8000114 <rt_hw_interrupt_enable>
 8006fb6:	4620      	mov	r0, r4
 8006fb8:	f7ff fe84 	bl	8006cc4 <rt_free>
 8006fbc:	b003      	add	sp, #12
 8006fbe:	bd30      	pop	{r4, r5, pc}
 8006fc0:	2500      	movs	r5, #0
 8006fc2:	480f      	ldr	r0, [pc, #60]	; (8007000 <rt_object_delete+0x80>)
 8006fc4:	490f      	ldr	r1, [pc, #60]	; (8007004 <rt_object_delete+0x84>)
 8006fc6:	4a10      	ldr	r2, [pc, #64]	; (8007008 <rt_object_delete+0x88>)
 8006fc8:	f44f 73ad 	mov.w	r3, #346	; 0x15a
 8006fcc:	f88d 5007 	strb.w	r5, [sp, #7]
 8006fd0:	f7ff fc18 	bl	8006804 <rt_kprintf>
 8006fd4:	f89d 1007 	ldrb.w	r1, [sp, #7]
 8006fd8:	2900      	cmp	r1, #0
 8006fda:	d0fb      	beq.n	8006fd4 <rt_object_delete+0x54>
 8006fdc:	e7d9      	b.n	8006f92 <rt_object_delete+0x12>
 8006fde:	4808      	ldr	r0, [pc, #32]	; (8007000 <rt_object_delete+0x80>)
 8006fe0:	490a      	ldr	r1, [pc, #40]	; (800700c <rt_object_delete+0x8c>)
 8006fe2:	4a09      	ldr	r2, [pc, #36]	; (8007008 <rt_object_delete+0x88>)
 8006fe4:	f240 1359 	movw	r3, #345	; 0x159
 8006fe8:	f88d 4006 	strb.w	r4, [sp, #6]
 8006fec:	f7ff fc0a 	bl	8006804 <rt_kprintf>
 8006ff0:	f89d 3006 	ldrb.w	r3, [sp, #6]
 8006ff4:	2b00      	cmp	r3, #0
 8006ff6:	d0fb      	beq.n	8006ff0 <rt_object_delete+0x70>
 8006ff8:	e7c7      	b.n	8006f8a <rt_object_delete+0xa>
 8006ffa:	bf00      	nop
 8006ffc:	20000bf4 	.word	0x20000bf4
 8007000:	08008674 	.word	0x08008674
 8007004:	080093a0 	.word	0x080093a0
 8007008:	08009378 	.word	0x08009378
 800700c:	0800938c 	.word	0x0800938c

08007010 <rt_object_is_systemobject>:
 8007010:	b510      	push	{r4, lr}
 8007012:	4604      	mov	r4, r0
 8007014:	b082      	sub	sp, #8
 8007016:	b120      	cbz	r0, 8007022 <rt_object_is_systemobject+0x12>
 8007018:	f994 0008 	ldrsb.w	r0, [r4, #8]
 800701c:	0fc0      	lsrs	r0, r0, #31
 800701e:	b002      	add	sp, #8
 8007020:	bd10      	pop	{r4, pc}
 8007022:	4807      	ldr	r0, [pc, #28]	; (8007040 <rt_object_is_systemobject+0x30>)
 8007024:	4907      	ldr	r1, [pc, #28]	; (8007044 <rt_object_is_systemobject+0x34>)
 8007026:	4a08      	ldr	r2, [pc, #32]	; (8007048 <rt_object_is_systemobject+0x38>)
 8007028:	f44f 73bf 	mov.w	r3, #382	; 0x17e
 800702c:	f88d 4007 	strb.w	r4, [sp, #7]
 8007030:	f7ff fbe8 	bl	8006804 <rt_kprintf>
 8007034:	f89d 3007 	ldrb.w	r3, [sp, #7]
 8007038:	2b00      	cmp	r3, #0
 800703a:	d0fb      	beq.n	8007034 <rt_object_is_systemobject+0x24>
 800703c:	e7ec      	b.n	8007018 <rt_object_is_systemobject+0x8>
 800703e:	bf00      	nop
 8007040:	08008674 	.word	0x08008674
 8007044:	0800938c 	.word	0x0800938c
 8007048:	080093cc 	.word	0x080093cc

0800704c <rt_system_scheduler_init>:
 800704c:	490f      	ldr	r1, [pc, #60]	; (800708c <rt_system_scheduler_init+0x40>)
 800704e:	2300      	movs	r3, #0
 8007050:	4a0f      	ldr	r2, [pc, #60]	; (8007090 <rt_system_scheduler_init+0x44>)
 8007052:	b410      	push	{r4}
 8007054:	800b      	strh	r3, [r1, #0]
 8007056:	eb02 04c3 	add.w	r4, r2, r3, lsl #3
 800705a:	1c58      	adds	r0, r3, #1
 800705c:	f842 4033 	str.w	r4, [r2, r3, lsl #3]
 8007060:	3302      	adds	r3, #2
 8007062:	eb02 01c0 	add.w	r1, r2, r0, lsl #3
 8007066:	2b20      	cmp	r3, #32
 8007068:	6064      	str	r4, [r4, #4]
 800706a:	f842 1030 	str.w	r1, [r2, r0, lsl #3]
 800706e:	6049      	str	r1, [r1, #4]
 8007070:	d1f1      	bne.n	8007056 <rt_system_scheduler_init+0xa>
 8007072:	4908      	ldr	r1, [pc, #32]	; (8007094 <rt_system_scheduler_init+0x48>)
 8007074:	201f      	movs	r0, #31
 8007076:	7008      	strb	r0, [r1, #0]
 8007078:	4b07      	ldr	r3, [pc, #28]	; (8007098 <rt_system_scheduler_init+0x4c>)
 800707a:	4808      	ldr	r0, [pc, #32]	; (800709c <rt_system_scheduler_init+0x50>)
 800707c:	4908      	ldr	r1, [pc, #32]	; (80070a0 <rt_system_scheduler_init+0x54>)
 800707e:	2200      	movs	r2, #0
 8007080:	6002      	str	r2, [r0, #0]
 8007082:	600a      	str	r2, [r1, #0]
 8007084:	605b      	str	r3, [r3, #4]
 8007086:	601b      	str	r3, [r3, #0]
 8007088:	bc10      	pop	{r4}
 800708a:	4770      	bx	lr
 800708c:	20000bf8 	.word	0x20000bf8
 8007090:	20001cc8 	.word	0x20001cc8
 8007094:	20001dc8 	.word	0x20001dc8
 8007098:	20001dd4 	.word	0x20001dd4
 800709c:	20001dcc 	.word	0x20001dcc
 80070a0:	20001dd0 	.word	0x20001dd0

080070a4 <rt_system_scheduler_start>:
 80070a4:	b508      	push	{r3, lr}
 80070a6:	f641 53d0 	movw	r3, #7632	; 0x1dd0
 80070aa:	f2c2 0300 	movt	r3, #8192	; 0x2000
 80070ae:	6818      	ldr	r0, [r3, #0]
 80070b0:	f7ff fbfa 	bl	80068a8 <__rt_ffs>
 80070b4:	f641 41c8 	movw	r1, #7368	; 0x1cc8
 80070b8:	3801      	subs	r0, #1
 80070ba:	f2c2 0100 	movt	r1, #8192	; 0x2000
 80070be:	f851 0030 	ldr.w	r0, [r1, r0, lsl #3]
 80070c2:	f641 53cc 	movw	r3, #7628	; 0x1dcc
 80070c6:	f1a0 0214 	sub.w	r2, r0, #20
 80070ca:	f2c2 0300 	movt	r3, #8192	; 0x2000
 80070ce:	3008      	adds	r0, #8
 80070d0:	601a      	str	r2, [r3, #0]
 80070d2:	e8bd 4008 	ldmia.w	sp!, {r3, lr}
 80070d6:	f7f9 b84e 	b.w	8000176 <rt_hw_context_switch_to>
 80070da:	bf00      	nop

080070dc <rt_schedule>:
 80070dc:	b5f0      	push	{r4, r5, r6, r7, lr}
 80070de:	b083      	sub	sp, #12
 80070e0:	f7f9 f814 	bl	800010c <rt_hw_interrupt_disable>
 80070e4:	4b29      	ldr	r3, [pc, #164]	; (800718c <rt_schedule+0xb0>)
 80070e6:	4606      	mov	r6, r0
 80070e8:	f9b3 0000 	ldrsh.w	r0, [r3]
 80070ec:	b120      	cbz	r0, 80070f8 <rt_schedule+0x1c>
 80070ee:	4630      	mov	r0, r6
 80070f0:	f7f9 f810 	bl	8000114 <rt_hw_interrupt_enable>
 80070f4:	b003      	add	sp, #12
 80070f6:	bdf0      	pop	{r4, r5, r6, r7, pc}
 80070f8:	4925      	ldr	r1, [pc, #148]	; (8007190 <rt_schedule+0xb4>)
 80070fa:	6808      	ldr	r0, [r1, #0]
 80070fc:	f7ff fbd4 	bl	80068a8 <__rt_ffs>
 8007100:	4a24      	ldr	r2, [pc, #144]	; (8007194 <rt_schedule+0xb8>)
 8007102:	3801      	subs	r0, #1
 8007104:	4b24      	ldr	r3, [pc, #144]	; (8007198 <rt_schedule+0xbc>)
 8007106:	f852 4030 	ldr.w	r4, [r2, r0, lsl #3]
 800710a:	681f      	ldr	r7, [r3, #0]
 800710c:	f1a4 0514 	sub.w	r5, r4, #20
 8007110:	42bd      	cmp	r5, r7
 8007112:	d0ec      	beq.n	80070ee <rt_schedule+0x12>
 8007114:	4921      	ldr	r1, [pc, #132]	; (800719c <rt_schedule+0xc0>)
 8007116:	601d      	str	r5, [r3, #0]
 8007118:	680a      	ldr	r2, [r1, #0]
 800711a:	4921      	ldr	r1, [pc, #132]	; (80071a0 <rt_schedule+0xc4>)
 800711c:	7008      	strb	r0, [r1, #0]
 800711e:	b112      	cbz	r2, 8007126 <rt_schedule+0x4a>
 8007120:	4638      	mov	r0, r7
 8007122:	4629      	mov	r1, r5
 8007124:	4790      	blx	r2
 8007126:	b31d      	cbz	r5, 8007170 <rt_schedule+0x94>
 8007128:	68a3      	ldr	r3, [r4, #8]
 800712a:	6962      	ldr	r2, [r4, #20]
 800712c:	4293      	cmp	r3, r2
 800712e:	d903      	bls.n	8007138 <rt_schedule+0x5c>
 8007130:	8b21      	ldrh	r1, [r4, #24]
 8007132:	1888      	adds	r0, r1, r2
 8007134:	4283      	cmp	r3, r0
 8007136:	d907      	bls.n	8007148 <rt_schedule+0x6c>
 8007138:	481a      	ldr	r0, [pc, #104]	; (80071a4 <rt_schedule+0xc8>)
 800713a:	4629      	mov	r1, r5
 800713c:	f7ff fb62 	bl	8006804 <rt_kprintf>
 8007140:	f7f8 ffe4 	bl	800010c <rt_hw_interrupt_disable>
 8007144:	b138      	cbz	r0, 8007156 <rt_schedule+0x7a>
 8007146:	e7fe      	b.n	8007146 <rt_schedule+0x6a>
 8007148:	3220      	adds	r2, #32
 800714a:	4293      	cmp	r3, r2
 800714c:	d803      	bhi.n	8007156 <rt_schedule+0x7a>
 800714e:	4816      	ldr	r0, [pc, #88]	; (80071a8 <rt_schedule+0xcc>)
 8007150:	4629      	mov	r1, r5
 8007152:	f7ff fb57 	bl	8006804 <rt_kprintf>
 8007156:	4b15      	ldr	r3, [pc, #84]	; (80071ac <rt_schedule+0xd0>)
 8007158:	f107 001c 	add.w	r0, r7, #28
 800715c:	781a      	ldrb	r2, [r3, #0]
 800715e:	f104 0108 	add.w	r1, r4, #8
 8007162:	b112      	cbz	r2, 800716a <rt_schedule+0x8e>
 8007164:	f7f8 ffd9 	bl	800011a <rt_hw_context_switch>
 8007168:	e7c1      	b.n	80070ee <rt_schedule+0x12>
 800716a:	f7f8 ffd6 	bl	800011a <rt_hw_context_switch>
 800716e:	e7be      	b.n	80070ee <rt_schedule+0x12>
 8007170:	480f      	ldr	r0, [pc, #60]	; (80071b0 <rt_schedule+0xd4>)
 8007172:	4910      	ldr	r1, [pc, #64]	; (80071b4 <rt_schedule+0xd8>)
 8007174:	4a10      	ldr	r2, [pc, #64]	; (80071b8 <rt_schedule+0xdc>)
 8007176:	235a      	movs	r3, #90	; 0x5a
 8007178:	f88d 5007 	strb.w	r5, [sp, #7]
 800717c:	f7ff fb42 	bl	8006804 <rt_kprintf>
 8007180:	f89d 0007 	ldrb.w	r0, [sp, #7]
 8007184:	2800      	cmp	r0, #0
 8007186:	d0fb      	beq.n	8007180 <rt_schedule+0xa4>
 8007188:	e7ce      	b.n	8007128 <rt_schedule+0x4c>
 800718a:	bf00      	nop
 800718c:	20000bf8 	.word	0x20000bf8
 8007190:	20001dd0 	.word	0x20001dd0
 8007194:	20001cc8 	.word	0x20001cc8
 8007198:	20001dcc 	.word	0x20001dcc
 800719c:	20000bfc 	.word	0x20000bfc
 80071a0:	20001dc8 	.word	0x20001dc8
 80071a4:	08009464 	.word	0x08009464
 80071a8:	08009480 	.word	0x08009480
 80071ac:	20001cb9 	.word	0x20001cb9
 80071b0:	08008674 	.word	0x08008674
 80071b4:	08009450 	.word	0x08009450
 80071b8:	08009434 	.word	0x08009434

080071bc <rt_schedule_insert_thread>:
 80071bc:	b5f0      	push	{r4, r5, r6, r7, lr}
 80071be:	4604      	mov	r4, r0
 80071c0:	b083      	sub	sp, #12
 80071c2:	b1c8      	cbz	r0, 80071f8 <rt_schedule_insert_thread+0x3c>
 80071c4:	f7f8 ffa2 	bl	800010c <rt_hw_interrupt_disable>
 80071c8:	4e12      	ldr	r6, [pc, #72]	; (8007214 <rt_schedule_insert_thread+0x58>)
 80071ca:	f894 1035 	ldrb.w	r1, [r4, #53]	; 0x35
 80071ce:	4a12      	ldr	r2, [pc, #72]	; (8007218 <rt_schedule_insert_thread+0x5c>)
 80071d0:	2501      	movs	r5, #1
 80071d2:	eb06 03c1 	add.w	r3, r6, r1, lsl #3
 80071d6:	f884 5034 	strb.w	r5, [r4, #52]	; 0x34
 80071da:	685d      	ldr	r5, [r3, #4]
 80071dc:	6817      	ldr	r7, [r2, #0]
 80071de:	6ba6      	ldr	r6, [r4, #56]	; 0x38
 80071e0:	f104 0114 	add.w	r1, r4, #20
 80071e4:	6029      	str	r1, [r5, #0]
 80071e6:	61a5      	str	r5, [r4, #24]
 80071e8:	433e      	orrs	r6, r7
 80071ea:	6163      	str	r3, [r4, #20]
 80071ec:	6059      	str	r1, [r3, #4]
 80071ee:	6016      	str	r6, [r2, #0]
 80071f0:	f7f8 ff90 	bl	8000114 <rt_hw_interrupt_enable>
 80071f4:	b003      	add	sp, #12
 80071f6:	bdf0      	pop	{r4, r5, r6, r7, pc}
 80071f8:	4808      	ldr	r0, [pc, #32]	; (800721c <rt_schedule_insert_thread+0x60>)
 80071fa:	4909      	ldr	r1, [pc, #36]	; (8007220 <rt_schedule_insert_thread+0x64>)
 80071fc:	4a09      	ldr	r2, [pc, #36]	; (8007224 <rt_schedule_insert_thread+0x68>)
 80071fe:	f240 130f 	movw	r3, #271	; 0x10f
 8007202:	f88d 4007 	strb.w	r4, [sp, #7]
 8007206:	f7ff fafd 	bl	8006804 <rt_kprintf>
 800720a:	f89d 3007 	ldrb.w	r3, [sp, #7]
 800720e:	2b00      	cmp	r3, #0
 8007210:	d0fb      	beq.n	800720a <rt_schedule_insert_thread+0x4e>
 8007212:	e7d7      	b.n	80071c4 <rt_schedule_insert_thread+0x8>
 8007214:	20001cc8 	.word	0x20001cc8
 8007218:	20001dd0 	.word	0x20001dd0
 800721c:	08008674 	.word	0x08008674
 8007220:	08009450 	.word	0x08009450
 8007224:	080093fc 	.word	0x080093fc

08007228 <rt_schedule_remove_thread>:
 8007228:	b530      	push	{r4, r5, lr}
 800722a:	4604      	mov	r4, r0
 800722c:	b083      	sub	sp, #12
 800722e:	b1f0      	cbz	r0, 800726e <rt_schedule_remove_thread+0x46>
 8007230:	f7f8 ff6c 	bl	800010c <rt_hw_interrupt_disable>
 8007234:	6961      	ldr	r1, [r4, #20]
 8007236:	69a2      	ldr	r2, [r4, #24]
 8007238:	f104 0314 	add.w	r3, r4, #20
 800723c:	604a      	str	r2, [r1, #4]
 800723e:	69a5      	ldr	r5, [r4, #24]
 8007240:	4a12      	ldr	r2, [pc, #72]	; (800728c <rt_schedule_remove_thread+0x64>)
 8007242:	6029      	str	r1, [r5, #0]
 8007244:	f894 1035 	ldrb.w	r1, [r4, #53]	; 0x35
 8007248:	6163      	str	r3, [r4, #20]
 800724a:	f852 5031 	ldr.w	r5, [r2, r1, lsl #3]
 800724e:	eb02 02c1 	add.w	r2, r2, r1, lsl #3
 8007252:	42aa      	cmp	r2, r5
 8007254:	61a3      	str	r3, [r4, #24]
 8007256:	d003      	beq.n	8007260 <rt_schedule_remove_thread+0x38>
 8007258:	f7f8 ff5c 	bl	8000114 <rt_hw_interrupt_enable>
 800725c:	b003      	add	sp, #12
 800725e:	bd30      	pop	{r4, r5, pc}
 8007260:	4b0b      	ldr	r3, [pc, #44]	; (8007290 <rt_schedule_remove_thread+0x68>)
 8007262:	6ba1      	ldr	r1, [r4, #56]	; 0x38
 8007264:	681a      	ldr	r2, [r3, #0]
 8007266:	ea22 0201 	bic.w	r2, r2, r1
 800726a:	601a      	str	r2, [r3, #0]
 800726c:	e7f4      	b.n	8007258 <rt_schedule_remove_thread+0x30>
 800726e:	4809      	ldr	r0, [pc, #36]	; (8007294 <rt_schedule_remove_thread+0x6c>)
 8007270:	4909      	ldr	r1, [pc, #36]	; (8007298 <rt_schedule_remove_thread+0x70>)
 8007272:	4a0a      	ldr	r2, [pc, #40]	; (800729c <rt_schedule_remove_thread+0x74>)
 8007274:	f240 133d 	movw	r3, #317	; 0x13d
 8007278:	f88d 4007 	strb.w	r4, [sp, #7]
 800727c:	f7ff fac2 	bl	8006804 <rt_kprintf>
 8007280:	f89d 3007 	ldrb.w	r3, [sp, #7]
 8007284:	2b00      	cmp	r3, #0
 8007286:	d0fb      	beq.n	8007280 <rt_schedule_remove_thread+0x58>
 8007288:	e7d2      	b.n	8007230 <rt_schedule_remove_thread+0x8>
 800728a:	bf00      	nop
 800728c:	20001cc8 	.word	0x20001cc8
 8007290:	20001dd0 	.word	0x20001dd0
 8007294:	08008674 	.word	0x08008674
 8007298:	08009450 	.word	0x08009450
 800729c:	08009418 	.word	0x08009418

080072a0 <rt_enter_critical>:
 80072a0:	b508      	push	{r3, lr}
 80072a2:	f7f8 ff33 	bl	800010c <rt_hw_interrupt_disable>
 80072a6:	f640 33f8 	movw	r3, #3064	; 0xbf8
 80072aa:	f2c2 0300 	movt	r3, #8192	; 0x2000
 80072ae:	881a      	ldrh	r2, [r3, #0]
 80072b0:	1c51      	adds	r1, r2, #1
 80072b2:	8019      	strh	r1, [r3, #0]
 80072b4:	e8bd 4008 	ldmia.w	sp!, {r3, lr}
 80072b8:	f7f8 bf2c 	b.w	8000114 <rt_hw_interrupt_enable>

080072bc <rt_exit_critical>:
 80072bc:	b508      	push	{r3, lr}
 80072be:	f7f8 ff25 	bl	800010c <rt_hw_interrupt_disable>
 80072c2:	4b0a      	ldr	r3, [pc, #40]	; (80072ec <rt_exit_critical+0x30>)
 80072c4:	881a      	ldrh	r2, [r3, #0]
 80072c6:	1e51      	subs	r1, r2, #1
 80072c8:	b28a      	uxth	r2, r1
 80072ca:	b211      	sxth	r1, r2
 80072cc:	2900      	cmp	r1, #0
 80072ce:	801a      	strh	r2, [r3, #0]
 80072d0:	dd03      	ble.n	80072da <rt_exit_critical+0x1e>
 80072d2:	e8bd 4008 	ldmia.w	sp!, {r3, lr}
 80072d6:	f7f8 bf1d 	b.w	8000114 <rt_hw_interrupt_enable>
 80072da:	2200      	movs	r2, #0
 80072dc:	801a      	strh	r2, [r3, #0]
 80072de:	f7f8 ff19 	bl	8000114 <rt_hw_interrupt_enable>
 80072e2:	e8bd 4008 	ldmia.w	sp!, {r3, lr}
 80072e6:	f7ff bef9 	b.w	80070dc <rt_schedule>
 80072ea:	bf00      	nop
 80072ec:	20000bf8 	.word	0x20000bf8

080072f0 <rt_thread_timeout>:
 80072f0:	b530      	push	{r4, r5, lr}
 80072f2:	4604      	mov	r4, r0
 80072f4:	b083      	sub	sp, #12
 80072f6:	2800      	cmp	r0, #0
 80072f8:	d024      	beq.n	8007344 <rt_thread_timeout+0x54>
 80072fa:	f894 0034 	ldrb.w	r0, [r4, #52]	; 0x34
 80072fe:	2802      	cmp	r0, #2
 8007300:	d00d      	beq.n	800731e <rt_thread_timeout+0x2e>
 8007302:	2500      	movs	r5, #0
 8007304:	4816      	ldr	r0, [pc, #88]	; (8007360 <rt_thread_timeout+0x70>)
 8007306:	4917      	ldr	r1, [pc, #92]	; (8007364 <rt_thread_timeout+0x74>)
 8007308:	4a17      	ldr	r2, [pc, #92]	; (8007368 <rt_thread_timeout+0x78>)
 800730a:	f240 2381 	movw	r3, #641	; 0x281
 800730e:	f88d 5007 	strb.w	r5, [sp, #7]
 8007312:	f7ff fa77 	bl	8006804 <rt_kprintf>
 8007316:	f89d 1007 	ldrb.w	r1, [sp, #7]
 800731a:	2900      	cmp	r1, #0
 800731c:	d0fb      	beq.n	8007316 <rt_thread_timeout+0x26>
 800731e:	6962      	ldr	r2, [r4, #20]
 8007320:	69a3      	ldr	r3, [r4, #24]
 8007322:	f06f 0001 	mvn.w	r0, #1
 8007326:	6320      	str	r0, [r4, #48]	; 0x30
 8007328:	6053      	str	r3, [r2, #4]
 800732a:	69a1      	ldr	r1, [r4, #24]
 800732c:	f104 0314 	add.w	r3, r4, #20
 8007330:	600a      	str	r2, [r1, #0]
 8007332:	4620      	mov	r0, r4
 8007334:	61a3      	str	r3, [r4, #24]
 8007336:	6163      	str	r3, [r4, #20]
 8007338:	f7ff ff40 	bl	80071bc <rt_schedule_insert_thread>
 800733c:	f7ff fece 	bl	80070dc <rt_schedule>
 8007340:	b003      	add	sp, #12
 8007342:	bd30      	pop	{r4, r5, pc}
 8007344:	4806      	ldr	r0, [pc, #24]	; (8007360 <rt_thread_timeout+0x70>)
 8007346:	4909      	ldr	r1, [pc, #36]	; (800736c <rt_thread_timeout+0x7c>)
 8007348:	4a07      	ldr	r2, [pc, #28]	; (8007368 <rt_thread_timeout+0x78>)
 800734a:	f44f 7320 	mov.w	r3, #640	; 0x280
 800734e:	f88d 4006 	strb.w	r4, [sp, #6]
 8007352:	f7ff fa57 	bl	8006804 <rt_kprintf>
 8007356:	f89d 3006 	ldrb.w	r3, [sp, #6]
 800735a:	2b00      	cmp	r3, #0
 800735c:	d0fb      	beq.n	8007356 <rt_thread_timeout+0x66>
 800735e:	e7cc      	b.n	80072fa <rt_thread_timeout+0xa>
 8007360:	08008674 	.word	0x08008674
 8007364:	080094f0 	.word	0x080094f0
 8007368:	08009590 	.word	0x08009590
 800736c:	08009450 	.word	0x08009450

08007370 <rt_thread_exit>:
 8007370:	b538      	push	{r3, r4, r5, lr}
 8007372:	4b15      	ldr	r3, [pc, #84]	; (80073c8 <rt_thread_exit+0x58>)
 8007374:	681c      	ldr	r4, [r3, #0]
 8007376:	f7f8 fec9 	bl	800010c <rt_hw_interrupt_disable>
 800737a:	4605      	mov	r5, r0
 800737c:	4620      	mov	r0, r4
 800737e:	f7ff ff53 	bl	8007228 <rt_schedule_remove_thread>
 8007382:	2004      	movs	r0, #4
 8007384:	f884 0034 	strb.w	r0, [r4, #52]	; 0x34
 8007388:	f104 0044 	add.w	r0, r4, #68	; 0x44
 800738c:	f000 fa24 	bl	80077d8 <rt_timer_detach>
 8007390:	4620      	mov	r0, r4
 8007392:	f7ff fe3d 	bl	8007010 <rt_object_is_systemobject>
 8007396:	2801      	cmp	r0, #1
 8007398:	d00e      	beq.n	80073b8 <rt_thread_exit+0x48>
 800739a:	4b0c      	ldr	r3, [pc, #48]	; (80073cc <rt_thread_exit+0x5c>)
 800739c:	f104 0014 	add.w	r0, r4, #20
 80073a0:	681a      	ldr	r2, [r3, #0]
 80073a2:	6018      	str	r0, [r3, #0]
 80073a4:	6050      	str	r0, [r2, #4]
 80073a6:	6162      	str	r2, [r4, #20]
 80073a8:	61a3      	str	r3, [r4, #24]
 80073aa:	4628      	mov	r0, r5
 80073ac:	f7f8 feb2 	bl	8000114 <rt_hw_interrupt_enable>
 80073b0:	e8bd 4038 	ldmia.w	sp!, {r3, r4, r5, lr}
 80073b4:	f7ff be92 	b.w	80070dc <rt_schedule>
 80073b8:	6f21      	ldr	r1, [r4, #112]	; 0x70
 80073ba:	2900      	cmp	r1, #0
 80073bc:	d1ed      	bne.n	800739a <rt_thread_exit+0x2a>
 80073be:	4620      	mov	r0, r4
 80073c0:	f7ff fd60 	bl	8006e84 <rt_object_detach>
 80073c4:	e7f1      	b.n	80073aa <rt_thread_exit+0x3a>
 80073c6:	bf00      	nop
 80073c8:	20001dcc 	.word	0x20001dcc
 80073cc:	20001dd4 	.word	0x20001dd4

080073d0 <_rt_thread_init.isra.0>:
 80073d0:	b5f0      	push	{r4, r5, r6, r7, lr}
 80073d2:	b085      	sub	sp, #20
 80073d4:	9d0a      	ldr	r5, [sp, #40]	; 0x28
 80073d6:	4604      	mov	r4, r0
 80073d8:	f100 0014 	add.w	r0, r0, #20
 80073dc:	6221      	str	r1, [r4, #32]
 80073de:	6262      	str	r2, [r4, #36]	; 0x24
 80073e0:	2123      	movs	r1, #35	; 0x23
 80073e2:	b2aa      	uxth	r2, r5
 80073e4:	61a0      	str	r0, [r4, #24]
 80073e6:	6160      	str	r0, [r4, #20]
 80073e8:	62a3      	str	r3, [r4, #40]	; 0x28
 80073ea:	85a5      	strh	r5, [r4, #44]	; 0x2c
 80073ec:	4618      	mov	r0, r3
 80073ee:	f89d 602c 	ldrb.w	r6, [sp, #44]	; 0x2c
 80073f2:	9f0c      	ldr	r7, [sp, #48]	; 0x30
 80073f4:	f7fe fe8c 	bl	8006110 <rt_memset>
 80073f8:	8da2      	ldrh	r2, [r4, #44]	; 0x2c
 80073fa:	6aa3      	ldr	r3, [r4, #40]	; 0x28
 80073fc:	1f15      	subs	r5, r2, #4
 80073fe:	195a      	adds	r2, r3, r5
 8007400:	6a20      	ldr	r0, [r4, #32]
 8007402:	6a61      	ldr	r1, [r4, #36]	; 0x24
 8007404:	4b15      	ldr	r3, [pc, #84]	; (800745c <_rt_thread_init.isra.0+0x8c>)
 8007406:	f000 fb3f 	bl	8007a88 <rt_hw_stack_init>
 800740a:	2e1f      	cmp	r6, #31
 800740c:	61e0      	str	r0, [r4, #28]
 800740e:	d817      	bhi.n	8007440 <_rt_thread_init.isra.0+0x70>
 8007410:	2500      	movs	r5, #0
 8007412:	f884 6036 	strb.w	r6, [r4, #54]	; 0x36
 8007416:	f884 6035 	strb.w	r6, [r4, #53]	; 0x35
 800741a:	63e7      	str	r7, [r4, #60]	; 0x3c
 800741c:	6427      	str	r7, [r4, #64]	; 0x40
 800741e:	6325      	str	r5, [r4, #48]	; 0x30
 8007420:	f884 5034 	strb.w	r5, [r4, #52]	; 0x34
 8007424:	6725      	str	r5, [r4, #112]	; 0x70
 8007426:	6765      	str	r5, [r4, #116]	; 0x74
 8007428:	f104 0044 	add.w	r0, r4, #68	; 0x44
 800742c:	4621      	mov	r1, r4
 800742e:	9500      	str	r5, [sp, #0]
 8007430:	9501      	str	r5, [sp, #4]
 8007432:	4a0b      	ldr	r2, [pc, #44]	; (8007460 <_rt_thread_init.isra.0+0x90>)
 8007434:	4623      	mov	r3, r4
 8007436:	f000 f99f 	bl	8007778 <rt_timer_init>
 800743a:	4628      	mov	r0, r5
 800743c:	b005      	add	sp, #20
 800743e:	bdf0      	pop	{r4, r5, r6, r7, pc}
 8007440:	2500      	movs	r5, #0
 8007442:	4808      	ldr	r0, [pc, #32]	; (8007464 <_rt_thread_init.isra.0+0x94>)
 8007444:	4908      	ldr	r1, [pc, #32]	; (8007468 <_rt_thread_init.isra.0+0x98>)
 8007446:	4a09      	ldr	r2, [pc, #36]	; (800746c <_rt_thread_init.isra.0+0x9c>)
 8007448:	236e      	movs	r3, #110	; 0x6e
 800744a:	f88d 500f 	strb.w	r5, [sp, #15]
 800744e:	f7ff f9d9 	bl	8006804 <rt_kprintf>
 8007452:	f89d 100f 	ldrb.w	r1, [sp, #15]
 8007456:	2900      	cmp	r1, #0
 8007458:	d0fb      	beq.n	8007452 <_rt_thread_init.isra.0+0x82>
 800745a:	e7d9      	b.n	8007410 <_rt_thread_init.isra.0+0x40>
 800745c:	08007371 	.word	0x08007371
 8007460:	080072f1 	.word	0x080072f1
 8007464:	08008674 	.word	0x08008674
 8007468:	08009514 	.word	0x08009514
 800746c:	080094e0 	.word	0x080094e0

08007470 <rt_thread_init>:
 8007470:	e92d 41f0 	stmdb	sp!, {r4, r5, r6, r7, r8, lr}
 8007474:	b086      	sub	sp, #24
 8007476:	4604      	mov	r4, r0
 8007478:	4688      	mov	r8, r1
 800747a:	4616      	mov	r6, r2
 800747c:	461f      	mov	r7, r3
 800747e:	9d0c      	ldr	r5, [sp, #48]	; 0x30
 8007480:	b1b0      	cbz	r0, 80074b0 <rt_thread_init+0x40>
 8007482:	2d00      	cmp	r5, #0
 8007484:	d022      	beq.n	80074cc <rt_thread_init+0x5c>
 8007486:	4620      	mov	r0, r4
 8007488:	4642      	mov	r2, r8
 800748a:	2100      	movs	r1, #0
 800748c:	f7ff fcd4 	bl	8006e38 <rt_object_init>
 8007490:	990d      	ldr	r1, [sp, #52]	; 0x34
 8007492:	f89d 2038 	ldrb.w	r2, [sp, #56]	; 0x38
 8007496:	9b0f      	ldr	r3, [sp, #60]	; 0x3c
 8007498:	9100      	str	r1, [sp, #0]
 800749a:	9201      	str	r2, [sp, #4]
 800749c:	9302      	str	r3, [sp, #8]
 800749e:	4620      	mov	r0, r4
 80074a0:	4631      	mov	r1, r6
 80074a2:	463a      	mov	r2, r7
 80074a4:	462b      	mov	r3, r5
 80074a6:	f7ff ff93 	bl	80073d0 <_rt_thread_init.isra.0>
 80074aa:	b006      	add	sp, #24
 80074ac:	e8bd 81f0 	ldmia.w	sp!, {r4, r5, r6, r7, r8, pc}
 80074b0:	480d      	ldr	r0, [pc, #52]	; (80074e8 <rt_thread_init+0x78>)
 80074b2:	490e      	ldr	r1, [pc, #56]	; (80074ec <rt_thread_init+0x7c>)
 80074b4:	4a0e      	ldr	r2, [pc, #56]	; (80074f0 <rt_thread_init+0x80>)
 80074b6:	23a8      	movs	r3, #168	; 0xa8
 80074b8:	f88d 4016 	strb.w	r4, [sp, #22]
 80074bc:	f7ff f9a2 	bl	8006804 <rt_kprintf>
 80074c0:	f89d 3016 	ldrb.w	r3, [sp, #22]
 80074c4:	2b00      	cmp	r3, #0
 80074c6:	d0fb      	beq.n	80074c0 <rt_thread_init+0x50>
 80074c8:	2d00      	cmp	r5, #0
 80074ca:	d1dc      	bne.n	8007486 <rt_thread_init+0x16>
 80074cc:	4806      	ldr	r0, [pc, #24]	; (80074e8 <rt_thread_init+0x78>)
 80074ce:	4909      	ldr	r1, [pc, #36]	; (80074f4 <rt_thread_init+0x84>)
 80074d0:	4a07      	ldr	r2, [pc, #28]	; (80074f0 <rt_thread_init+0x80>)
 80074d2:	23a9      	movs	r3, #169	; 0xa9
 80074d4:	f88d 5017 	strb.w	r5, [sp, #23]
 80074d8:	f7ff f994 	bl	8006804 <rt_kprintf>
 80074dc:	f89d 0017 	ldrb.w	r0, [sp, #23]
 80074e0:	2800      	cmp	r0, #0
 80074e2:	d0fb      	beq.n	80074dc <rt_thread_init+0x6c>
 80074e4:	e7cf      	b.n	8007486 <rt_thread_init+0x16>
 80074e6:	bf00      	nop
 80074e8:	08008674 	.word	0x08008674
 80074ec:	08009450 	.word	0x08009450
 80074f0:	08009570 	.word	0x08009570
 80074f4:	08009538 	.word	0x08009538

080074f8 <rt_thread_self>:
 80074f8:	f641 53cc 	movw	r3, #7628	; 0x1dcc
 80074fc:	f2c2 0300 	movt	r3, #8192	; 0x2000
 8007500:	6818      	ldr	r0, [r3, #0]
 8007502:	4770      	bx	lr

08007504 <rt_thread_create>:
 8007504:	b5f0      	push	{r4, r5, r6, r7, lr}
 8007506:	4604      	mov	r4, r0
 8007508:	b087      	sub	sp, #28
 800750a:	460f      	mov	r7, r1
 800750c:	2000      	movs	r0, #0
 800750e:	4621      	mov	r1, r4
 8007510:	4616      	mov	r6, r2
 8007512:	461d      	mov	r5, r3
 8007514:	f7ff fce4 	bl	8006ee0 <rt_object_allocate>
 8007518:	4604      	mov	r4, r0
 800751a:	b178      	cbz	r0, 800753c <rt_thread_create+0x38>
 800751c:	4628      	mov	r0, r5
 800751e:	f7ff fabf 	bl	8006aa0 <rt_malloc>
 8007522:	4603      	mov	r3, r0
 8007524:	b168      	cbz	r0, 8007542 <rt_thread_create+0x3e>
 8007526:	f89d 2030 	ldrb.w	r2, [sp, #48]	; 0x30
 800752a:	980d      	ldr	r0, [sp, #52]	; 0x34
 800752c:	9201      	str	r2, [sp, #4]
 800752e:	9002      	str	r0, [sp, #8]
 8007530:	9500      	str	r5, [sp, #0]
 8007532:	4620      	mov	r0, r4
 8007534:	4639      	mov	r1, r7
 8007536:	4632      	mov	r2, r6
 8007538:	f7ff ff4a 	bl	80073d0 <_rt_thread_init.isra.0>
 800753c:	4620      	mov	r0, r4
 800753e:	b007      	add	sp, #28
 8007540:	bdf0      	pop	{r4, r5, r6, r7, pc}
 8007542:	4620      	mov	r0, r4
 8007544:	9305      	str	r3, [sp, #20]
 8007546:	f7ff fd1b 	bl	8006f80 <rt_object_delete>
 800754a:	9b05      	ldr	r3, [sp, #20]
 800754c:	461c      	mov	r4, r3
 800754e:	e7f5      	b.n	800753c <rt_thread_create+0x38>

08007550 <rt_thread_yield>:
 8007550:	b510      	push	{r4, lr}
 8007552:	f7f8 fddb 	bl	800010c <rt_hw_interrupt_disable>
 8007556:	4b13      	ldr	r3, [pc, #76]	; (80075a4 <rt_thread_yield+0x54>)
 8007558:	4601      	mov	r1, r0
 800755a:	681b      	ldr	r3, [r3, #0]
 800755c:	f893 2034 	ldrb.w	r2, [r3, #52]	; 0x34
 8007560:	2a01      	cmp	r2, #1
 8007562:	d004      	beq.n	800756e <rt_thread_yield+0x1e>
 8007564:	4608      	mov	r0, r1
 8007566:	f7f8 fdd5 	bl	8000114 <rt_hw_interrupt_enable>
 800756a:	2000      	movs	r0, #0
 800756c:	bd10      	pop	{r4, pc}
 800756e:	695a      	ldr	r2, [r3, #20]
 8007570:	699c      	ldr	r4, [r3, #24]
 8007572:	42a2      	cmp	r2, r4
 8007574:	d0f6      	beq.n	8007564 <rt_thread_yield+0x14>
 8007576:	6054      	str	r4, [r2, #4]
 8007578:	699c      	ldr	r4, [r3, #24]
 800757a:	f103 0114 	add.w	r1, r3, #20
 800757e:	6022      	str	r2, [r4, #0]
 8007580:	f893 4035 	ldrb.w	r4, [r3, #53]	; 0x35
 8007584:	4a08      	ldr	r2, [pc, #32]	; (80075a8 <rt_thread_yield+0x58>)
 8007586:	6199      	str	r1, [r3, #24]
 8007588:	eb02 02c4 	add.w	r2, r2, r4, lsl #3
 800758c:	6854      	ldr	r4, [r2, #4]
 800758e:	6021      	str	r1, [r4, #0]
 8007590:	619c      	str	r4, [r3, #24]
 8007592:	615a      	str	r2, [r3, #20]
 8007594:	6051      	str	r1, [r2, #4]
 8007596:	f7f8 fdbd 	bl	8000114 <rt_hw_interrupt_enable>
 800759a:	f7ff fd9f 	bl	80070dc <rt_schedule>
 800759e:	2000      	movs	r0, #0
 80075a0:	bd10      	pop	{r4, pc}
 80075a2:	bf00      	nop
 80075a4:	20001dcc 	.word	0x20001dcc
 80075a8:	20001cc8 	.word	0x20001cc8

080075ac <rt_thread_suspend>:
 80075ac:	b530      	push	{r4, r5, lr}
 80075ae:	4604      	mov	r4, r0
 80075b0:	b083      	sub	sp, #12
 80075b2:	b1a8      	cbz	r0, 80075e0 <rt_thread_suspend+0x34>
 80075b4:	f894 0034 	ldrb.w	r0, [r4, #52]	; 0x34
 80075b8:	2801      	cmp	r0, #1
 80075ba:	d10e      	bne.n	80075da <rt_thread_suspend+0x2e>
 80075bc:	f7f8 fda6 	bl	800010c <rt_hw_interrupt_disable>
 80075c0:	2102      	movs	r1, #2
 80075c2:	4605      	mov	r5, r0
 80075c4:	f884 1034 	strb.w	r1, [r4, #52]	; 0x34
 80075c8:	4620      	mov	r0, r4
 80075ca:	f7ff fe2d 	bl	8007228 <rt_schedule_remove_thread>
 80075ce:	4628      	mov	r0, r5
 80075d0:	f7f8 fda0 	bl	8000114 <rt_hw_interrupt_enable>
 80075d4:	2000      	movs	r0, #0
 80075d6:	b003      	add	sp, #12
 80075d8:	bd30      	pop	{r4, r5, pc}
 80075da:	f04f 30ff 	mov.w	r0, #4294967295
 80075de:	e7fa      	b.n	80075d6 <rt_thread_suspend+0x2a>
 80075e0:	4806      	ldr	r0, [pc, #24]	; (80075fc <rt_thread_suspend+0x50>)
 80075e2:	4907      	ldr	r1, [pc, #28]	; (8007600 <rt_thread_suspend+0x54>)
 80075e4:	4a07      	ldr	r2, [pc, #28]	; (8007604 <rt_thread_suspend+0x58>)
 80075e6:	f240 232f 	movw	r3, #559	; 0x22f
 80075ea:	f88d 4007 	strb.w	r4, [sp, #7]
 80075ee:	f7ff f909 	bl	8006804 <rt_kprintf>
 80075f2:	f89d 3007 	ldrb.w	r3, [sp, #7]
 80075f6:	2b00      	cmp	r3, #0
 80075f8:	d0fb      	beq.n	80075f2 <rt_thread_suspend+0x46>
 80075fa:	e7db      	b.n	80075b4 <rt_thread_suspend+0x8>
 80075fc:	08008674 	.word	0x08008674
 8007600:	08009450 	.word	0x08009450
 8007604:	080094cc 	.word	0x080094cc

08007608 <rt_thread_sleep>:
 8007608:	b570      	push	{r4, r5, r6, lr}
 800760a:	b084      	sub	sp, #16
 800760c:	9001      	str	r0, [sp, #4]
 800760e:	f7f8 fd7d 	bl	800010c <rt_hw_interrupt_disable>
 8007612:	4b16      	ldr	r3, [pc, #88]	; (800766c <rt_thread_sleep+0x64>)
 8007614:	4606      	mov	r6, r0
 8007616:	681c      	ldr	r4, [r3, #0]
 8007618:	b1cc      	cbz	r4, 800764e <rt_thread_sleep+0x46>
 800761a:	f104 0544 	add.w	r5, r4, #68	; 0x44
 800761e:	4620      	mov	r0, r4
 8007620:	f7ff ffc4 	bl	80075ac <rt_thread_suspend>
 8007624:	2100      	movs	r1, #0
 8007626:	aa01      	add	r2, sp, #4
 8007628:	4628      	mov	r0, r5
 800762a:	f000 f9a9 	bl	8007980 <rt_timer_control>
 800762e:	4628      	mov	r0, r5
 8007630:	f000 f8fc 	bl	800782c <rt_timer_start>
 8007634:	4630      	mov	r0, r6
 8007636:	f7f8 fd6d 	bl	8000114 <rt_hw_interrupt_enable>
 800763a:	f7ff fd4f 	bl	80070dc <rt_schedule>
 800763e:	6b21      	ldr	r1, [r4, #48]	; 0x30
 8007640:	1c8b      	adds	r3, r1, #2
 8007642:	d101      	bne.n	8007648 <rt_thread_sleep+0x40>
 8007644:	2200      	movs	r2, #0
 8007646:	6322      	str	r2, [r4, #48]	; 0x30
 8007648:	2000      	movs	r0, #0
 800764a:	b004      	add	sp, #16
 800764c:	bd70      	pop	{r4, r5, r6, pc}
 800764e:	4808      	ldr	r0, [pc, #32]	; (8007670 <rt_thread_sleep+0x68>)
 8007650:	4908      	ldr	r1, [pc, #32]	; (8007674 <rt_thread_sleep+0x6c>)
 8007652:	4a09      	ldr	r2, [pc, #36]	; (8007678 <rt_thread_sleep+0x70>)
 8007654:	f44f 73d7 	mov.w	r3, #430	; 0x1ae
 8007658:	f88d 400f 	strb.w	r4, [sp, #15]
 800765c:	f7ff f8d2 	bl	8006804 <rt_kprintf>
 8007660:	f89d 000f 	ldrb.w	r0, [sp, #15]
 8007664:	2800      	cmp	r0, #0
 8007666:	d0fb      	beq.n	8007660 <rt_thread_sleep+0x58>
 8007668:	e7d7      	b.n	800761a <rt_thread_sleep+0x12>
 800766a:	bf00      	nop
 800766c:	20001dcc 	.word	0x20001dcc
 8007670:	08008674 	.word	0x08008674
 8007674:	08009450 	.word	0x08009450
 8007678:	08009580 	.word	0x08009580

0800767c <rt_thread_delay>:
 800767c:	f7ff bfc4 	b.w	8007608 <rt_thread_sleep>

08007680 <rt_thread_resume>:
 8007680:	b530      	push	{r4, r5, lr}
 8007682:	4604      	mov	r4, r0
 8007684:	b083      	sub	sp, #12
 8007686:	b1f8      	cbz	r0, 80076c8 <rt_thread_resume+0x48>
 8007688:	f894 0034 	ldrb.w	r0, [r4, #52]	; 0x34
 800768c:	2802      	cmp	r0, #2
 800768e:	d118      	bne.n	80076c2 <rt_thread_resume+0x42>
 8007690:	f7f8 fd3c 	bl	800010c <rt_hw_interrupt_disable>
 8007694:	6962      	ldr	r2, [r4, #20]
 8007696:	69a1      	ldr	r1, [r4, #24]
 8007698:	f104 0314 	add.w	r3, r4, #20
 800769c:	6051      	str	r1, [r2, #4]
 800769e:	69a1      	ldr	r1, [r4, #24]
 80076a0:	4605      	mov	r5, r0
 80076a2:	600a      	str	r2, [r1, #0]
 80076a4:	61a3      	str	r3, [r4, #24]
 80076a6:	6163      	str	r3, [r4, #20]
 80076a8:	f104 0044 	add.w	r0, r4, #68	; 0x44
 80076ac:	f000 f92e 	bl	800790c <rt_timer_stop>
 80076b0:	4628      	mov	r0, r5
 80076b2:	f7f8 fd2f 	bl	8000114 <rt_hw_interrupt_enable>
 80076b6:	4620      	mov	r0, r4
 80076b8:	f7ff fd80 	bl	80071bc <rt_schedule_insert_thread>
 80076bc:	2000      	movs	r0, #0
 80076be:	b003      	add	sp, #12
 80076c0:	bd30      	pop	{r4, r5, pc}
 80076c2:	f04f 30ff 	mov.w	r0, #4294967295
 80076c6:	e7fa      	b.n	80076be <rt_thread_resume+0x3e>
 80076c8:	4806      	ldr	r0, [pc, #24]	; (80076e4 <rt_thread_resume+0x64>)
 80076ca:	4907      	ldr	r1, [pc, #28]	; (80076e8 <rt_thread_resume+0x68>)
 80076cc:	4a07      	ldr	r2, [pc, #28]	; (80076ec <rt_thread_resume+0x6c>)
 80076ce:	f240 2355 	movw	r3, #597	; 0x255
 80076d2:	f88d 4007 	strb.w	r4, [sp, #7]
 80076d6:	f7ff f895 	bl	8006804 <rt_kprintf>
 80076da:	f89d 3007 	ldrb.w	r3, [sp, #7]
 80076de:	2b00      	cmp	r3, #0
 80076e0:	d0fb      	beq.n	80076da <rt_thread_resume+0x5a>
 80076e2:	e7d1      	b.n	8007688 <rt_thread_resume+0x8>
 80076e4:	08008674 	.word	0x08008674
 80076e8:	08009450 	.word	0x08009450
 80076ec:	080095a4 	.word	0x080095a4

080076f0 <rt_thread_startup>:
 80076f0:	b530      	push	{r4, r5, lr}
 80076f2:	4604      	mov	r4, r0
 80076f4:	b083      	sub	sp, #12
 80076f6:	2800      	cmp	r0, #0
 80076f8:	d026      	beq.n	8007748 <rt_thread_startup+0x58>
 80076fa:	f894 0034 	ldrb.w	r0, [r4, #52]	; 0x34
 80076fe:	b9a8      	cbnz	r0, 800772c <rt_thread_startup+0x3c>
 8007700:	f894 3036 	ldrb.w	r3, [r4, #54]	; 0x36
 8007704:	2201      	movs	r2, #1
 8007706:	fa02 f203 	lsl.w	r2, r2, r3
 800770a:	2002      	movs	r0, #2
 800770c:	f884 3035 	strb.w	r3, [r4, #53]	; 0x35
 8007710:	f884 0034 	strb.w	r0, [r4, #52]	; 0x34
 8007714:	63a2      	str	r2, [r4, #56]	; 0x38
 8007716:	4620      	mov	r0, r4
 8007718:	f7ff ffb2 	bl	8007680 <rt_thread_resume>
 800771c:	4911      	ldr	r1, [pc, #68]	; (8007764 <rt_thread_startup+0x74>)
 800771e:	680b      	ldr	r3, [r1, #0]
 8007720:	b10b      	cbz	r3, 8007726 <rt_thread_startup+0x36>
 8007722:	f7ff fcdb 	bl	80070dc <rt_schedule>
 8007726:	2000      	movs	r0, #0
 8007728:	b003      	add	sp, #12
 800772a:	bd30      	pop	{r4, r5, pc}
 800772c:	2500      	movs	r5, #0
 800772e:	480e      	ldr	r0, [pc, #56]	; (8007768 <rt_thread_startup+0x78>)
 8007730:	490e      	ldr	r1, [pc, #56]	; (800776c <rt_thread_startup+0x7c>)
 8007732:	4a0f      	ldr	r2, [pc, #60]	; (8007770 <rt_thread_startup+0x80>)
 8007734:	23cf      	movs	r3, #207	; 0xcf
 8007736:	f88d 5007 	strb.w	r5, [sp, #7]
 800773a:	f7ff f863 	bl	8006804 <rt_kprintf>
 800773e:	f89d 1007 	ldrb.w	r1, [sp, #7]
 8007742:	2900      	cmp	r1, #0
 8007744:	d0fb      	beq.n	800773e <rt_thread_startup+0x4e>
 8007746:	e7db      	b.n	8007700 <rt_thread_startup+0x10>
 8007748:	4807      	ldr	r0, [pc, #28]	; (8007768 <rt_thread_startup+0x78>)
 800774a:	490a      	ldr	r1, [pc, #40]	; (8007774 <rt_thread_startup+0x84>)
 800774c:	4a08      	ldr	r2, [pc, #32]	; (8007770 <rt_thread_startup+0x80>)
 800774e:	23ce      	movs	r3, #206	; 0xce
 8007750:	f88d 4006 	strb.w	r4, [sp, #6]
 8007754:	f7ff f856 	bl	8006804 <rt_kprintf>
 8007758:	f89d 3006 	ldrb.w	r3, [sp, #6]
 800775c:	2b00      	cmp	r3, #0
 800775e:	d0fb      	beq.n	8007758 <rt_thread_startup+0x68>
 8007760:	e7cb      	b.n	80076fa <rt_thread_startup+0xa>
 8007762:	bf00      	nop
 8007764:	20001dcc 	.word	0x20001dcc
 8007768:	08008674 	.word	0x08008674
 800776c:	08009550 	.word	0x08009550
 8007770:	080094b8 	.word	0x080094b8
 8007774:	08009450 	.word	0x08009450

08007778 <rt_timer_init>:
 8007778:	b5f0      	push	{r4, r5, r6, r7, lr}
 800777a:	4604      	mov	r4, r0
 800777c:	b083      	sub	sp, #12
 800777e:	460f      	mov	r7, r1
 8007780:	4615      	mov	r5, r2
 8007782:	461e      	mov	r6, r3
 8007784:	b1a8      	cbz	r0, 80077b2 <rt_timer_init+0x3a>
 8007786:	4620      	mov	r0, r4
 8007788:	2104      	movs	r1, #4
 800778a:	463a      	mov	r2, r7
 800778c:	f7ff fb54 	bl	8006e38 <rt_object_init>
 8007790:	f89d 0024 	ldrb.w	r0, [sp, #36]	; 0x24
 8007794:	f104 0114 	add.w	r1, r4, #20
 8007798:	f020 0201 	bic.w	r2, r0, #1
 800779c:	9808      	ldr	r0, [sp, #32]
 800779e:	2300      	movs	r3, #0
 80077a0:	7262      	strb	r2, [r4, #9]
 80077a2:	61e5      	str	r5, [r4, #28]
 80077a4:	6226      	str	r6, [r4, #32]
 80077a6:	62a3      	str	r3, [r4, #40]	; 0x28
 80077a8:	6260      	str	r0, [r4, #36]	; 0x24
 80077aa:	61a1      	str	r1, [r4, #24]
 80077ac:	6161      	str	r1, [r4, #20]
 80077ae:	b003      	add	sp, #12
 80077b0:	bdf0      	pop	{r4, r5, r6, r7, pc}
 80077b2:	4806      	ldr	r0, [pc, #24]	; (80077cc <rt_timer_init+0x54>)
 80077b4:	4906      	ldr	r1, [pc, #24]	; (80077d0 <rt_timer_init+0x58>)
 80077b6:	4a07      	ldr	r2, [pc, #28]	; (80077d4 <rt_timer_init+0x5c>)
 80077b8:	23b8      	movs	r3, #184	; 0xb8
 80077ba:	f88d 4007 	strb.w	r4, [sp, #7]
 80077be:	f7ff f821 	bl	8006804 <rt_kprintf>
 80077c2:	f89d 3007 	ldrb.w	r3, [sp, #7]
 80077c6:	2b00      	cmp	r3, #0
 80077c8:	d0fb      	beq.n	80077c2 <rt_timer_init+0x4a>
 80077ca:	e7dc      	b.n	8007786 <rt_timer_init+0xe>
 80077cc:	08008674 	.word	0x08008674
 80077d0:	08009600 	.word	0x08009600
 80077d4:	080095b8 	.word	0x080095b8

080077d8 <rt_timer_detach>:
 80077d8:	b510      	push	{r4, lr}
 80077da:	4604      	mov	r4, r0
 80077dc:	b082      	sub	sp, #8
 80077de:	b190      	cbz	r0, 8007806 <rt_timer_detach+0x2e>
 80077e0:	f7f8 fc94 	bl	800010c <rt_hw_interrupt_disable>
 80077e4:	6962      	ldr	r2, [r4, #20]
 80077e6:	69a1      	ldr	r1, [r4, #24]
 80077e8:	f104 0314 	add.w	r3, r4, #20
 80077ec:	6051      	str	r1, [r2, #4]
 80077ee:	69a1      	ldr	r1, [r4, #24]
 80077f0:	61a3      	str	r3, [r4, #24]
 80077f2:	600a      	str	r2, [r1, #0]
 80077f4:	6163      	str	r3, [r4, #20]
 80077f6:	f7f8 fc8d 	bl	8000114 <rt_hw_interrupt_enable>
 80077fa:	4620      	mov	r0, r4
 80077fc:	f7ff fb42 	bl	8006e84 <rt_object_detach>
 8007800:	2000      	movs	r0, #0
 8007802:	b002      	add	sp, #8
 8007804:	bd10      	pop	{r4, pc}
 8007806:	4806      	ldr	r0, [pc, #24]	; (8007820 <rt_timer_detach+0x48>)
 8007808:	4906      	ldr	r1, [pc, #24]	; (8007824 <rt_timer_detach+0x4c>)
 800780a:	4a07      	ldr	r2, [pc, #28]	; (8007828 <rt_timer_detach+0x50>)
 800780c:	23cd      	movs	r3, #205	; 0xcd
 800780e:	f88d 4007 	strb.w	r4, [sp, #7]
 8007812:	f7fe fff7 	bl	8006804 <rt_kprintf>
 8007816:	f89d 3007 	ldrb.w	r3, [sp, #7]
 800781a:	2b00      	cmp	r3, #0
 800781c:	d0fb      	beq.n	8007816 <rt_timer_detach+0x3e>
 800781e:	e7df      	b.n	80077e0 <rt_timer_detach+0x8>
 8007820:	08008674 	.word	0x08008674
 8007824:	08009600 	.word	0x08009600
 8007828:	080095c8 	.word	0x080095c8

0800782c <rt_timer_start>:
 800782c:	b5f0      	push	{r4, r5, r6, r7, lr}
 800782e:	4605      	mov	r5, r0
 8007830:	b083      	sub	sp, #12
 8007832:	2800      	cmp	r0, #0
 8007834:	d04a      	beq.n	80078cc <rt_timer_start+0xa0>
 8007836:	7a68      	ldrb	r0, [r5, #9]
 8007838:	07c3      	lsls	r3, r0, #31
 800783a:	d455      	bmi.n	80078e8 <rt_timer_start+0xbc>
 800783c:	492c      	ldr	r1, [pc, #176]	; (80078f0 <rt_timer_start+0xc4>)
 800783e:	680a      	ldr	r2, [r1, #0]
 8007840:	b10a      	cbz	r2, 8007846 <rt_timer_start+0x1a>
 8007842:	4628      	mov	r0, r5
 8007844:	4790      	blx	r2
 8007846:	f64f 74fe 	movw	r4, #65534	; 0xfffe
 800784a:	6a6f      	ldr	r7, [r5, #36]	; 0x24
 800784c:	f6c7 74ff 	movt	r4, #32767	; 0x7fff
 8007850:	42a7      	cmp	r7, r4
 8007852:	d82c      	bhi.n	80078ae <rt_timer_start+0x82>
 8007854:	f7fd ffea 	bl	800582c <rt_tick_get>
 8007858:	6a69      	ldr	r1, [r5, #36]	; 0x24
 800785a:	1840      	adds	r0, r0, r1
 800785c:	62a8      	str	r0, [r5, #40]	; 0x28
 800785e:	f7f8 fc55 	bl	800010c <rt_hw_interrupt_disable>
 8007862:	4b24      	ldr	r3, [pc, #144]	; (80078f4 <rt_timer_start+0xc8>)
 8007864:	f64f 7efe 	movw	lr, #65534	; 0xfffe
 8007868:	685f      	ldr	r7, [r3, #4]
 800786a:	f6c7 7eff 	movt	lr, #32767	; 0x7fff
 800786e:	e008      	b.n	8007882 <rt_timer_start+0x56>
 8007870:	6aa9      	ldr	r1, [r5, #40]	; 0x28
 8007872:	6954      	ldr	r4, [r2, #20]
 8007874:	428c      	cmp	r4, r1
 8007876:	ebc1 0604 	rsb	r6, r1, r4
 800787a:	d001      	beq.n	8007880 <rt_timer_start+0x54>
 800787c:	4576      	cmp	r6, lr
 800787e:	d903      	bls.n	8007888 <rt_timer_start+0x5c>
 8007880:	4613      	mov	r3, r2
 8007882:	429f      	cmp	r7, r3
 8007884:	681a      	ldr	r2, [r3, #0]
 8007886:	d1f3      	bne.n	8007870 <rt_timer_start+0x44>
 8007888:	f105 0414 	add.w	r4, r5, #20
 800788c:	6054      	str	r4, [r2, #4]
 800788e:	491a      	ldr	r1, [pc, #104]	; (80078f8 <rt_timer_start+0xcc>)
 8007890:	616a      	str	r2, [r5, #20]
 8007892:	601c      	str	r4, [r3, #0]
 8007894:	7a6c      	ldrb	r4, [r5, #9]
 8007896:	680a      	ldr	r2, [r1, #0]
 8007898:	f044 0401 	orr.w	r4, r4, #1
 800789c:	3201      	adds	r2, #1
 800789e:	61ab      	str	r3, [r5, #24]
 80078a0:	726c      	strb	r4, [r5, #9]
 80078a2:	600a      	str	r2, [r1, #0]
 80078a4:	f7f8 fc36 	bl	8000114 <rt_hw_interrupt_enable>
 80078a8:	2000      	movs	r0, #0
 80078aa:	b003      	add	sp, #12
 80078ac:	bdf0      	pop	{r4, r5, r6, r7, pc}
 80078ae:	2400      	movs	r4, #0
 80078b0:	4812      	ldr	r0, [pc, #72]	; (80078fc <rt_timer_start+0xd0>)
 80078b2:	4913      	ldr	r1, [pc, #76]	; (8007900 <rt_timer_start+0xd4>)
 80078b4:	4a13      	ldr	r2, [pc, #76]	; (8007904 <rt_timer_start+0xd8>)
 80078b6:	f44f 739b 	mov.w	r3, #310	; 0x136
 80078ba:	f88d 4007 	strb.w	r4, [sp, #7]
 80078be:	f7fe ffa1 	bl	8006804 <rt_kprintf>
 80078c2:	f89d 3007 	ldrb.w	r3, [sp, #7]
 80078c6:	2b00      	cmp	r3, #0
 80078c8:	d0fb      	beq.n	80078c2 <rt_timer_start+0x96>
 80078ca:	e7c3      	b.n	8007854 <rt_timer_start+0x28>
 80078cc:	480b      	ldr	r0, [pc, #44]	; (80078fc <rt_timer_start+0xd0>)
 80078ce:	490e      	ldr	r1, [pc, #56]	; (8007908 <rt_timer_start+0xdc>)
 80078d0:	4a0c      	ldr	r2, [pc, #48]	; (8007904 <rt_timer_start+0xd8>)
 80078d2:	f44f 7396 	mov.w	r3, #300	; 0x12c
 80078d6:	f88d 5006 	strb.w	r5, [sp, #6]
 80078da:	f7fe ff93 	bl	8006804 <rt_kprintf>
 80078de:	f89d 3006 	ldrb.w	r3, [sp, #6]
 80078e2:	2b00      	cmp	r3, #0
 80078e4:	d0fb      	beq.n	80078de <rt_timer_start+0xb2>
 80078e6:	e7a6      	b.n	8007836 <rt_timer_start+0xa>
 80078e8:	f04f 30ff 	mov.w	r0, #4294967295
 80078ec:	e7dd      	b.n	80078aa <rt_timer_start+0x7e>
 80078ee:	bf00      	nop
 80078f0:	20001cc0 	.word	0x20001cc0
 80078f4:	20000c00 	.word	0x20000c00
 80078f8:	20000c08 	.word	0x20000c08
 80078fc:	08008674 	.word	0x08008674
 8007900:	08009614 	.word	0x08009614
 8007904:	08009638 	.word	0x08009638
 8007908:	08009600 	.word	0x08009600

0800790c <rt_timer_stop>:
 800790c:	b510      	push	{r4, lr}
 800790e:	4604      	mov	r4, r0
 8007910:	b082      	sub	sp, #8
 8007912:	b1d8      	cbz	r0, 800794c <rt_timer_stop+0x40>
 8007914:	7a60      	ldrb	r0, [r4, #9]
 8007916:	07c2      	lsls	r2, r0, #31
 8007918:	d526      	bpl.n	8007968 <rt_timer_stop+0x5c>
 800791a:	4915      	ldr	r1, [pc, #84]	; (8007970 <rt_timer_stop+0x64>)
 800791c:	680a      	ldr	r2, [r1, #0]
 800791e:	b10a      	cbz	r2, 8007924 <rt_timer_stop+0x18>
 8007920:	4620      	mov	r0, r4
 8007922:	4790      	blx	r2
 8007924:	f7f8 fbf2 	bl	800010c <rt_hw_interrupt_disable>
 8007928:	6962      	ldr	r2, [r4, #20]
 800792a:	69a1      	ldr	r1, [r4, #24]
 800792c:	f104 0314 	add.w	r3, r4, #20
 8007930:	6051      	str	r1, [r2, #4]
 8007932:	69a1      	ldr	r1, [r4, #24]
 8007934:	61a3      	str	r3, [r4, #24]
 8007936:	600a      	str	r2, [r1, #0]
 8007938:	6163      	str	r3, [r4, #20]
 800793a:	f7f8 fbeb 	bl	8000114 <rt_hw_interrupt_enable>
 800793e:	7a62      	ldrb	r2, [r4, #9]
 8007940:	2000      	movs	r0, #0
 8007942:	f022 0301 	bic.w	r3, r2, #1
 8007946:	7263      	strb	r3, [r4, #9]
 8007948:	b002      	add	sp, #8
 800794a:	bd10      	pop	{r4, pc}
 800794c:	4809      	ldr	r0, [pc, #36]	; (8007974 <rt_timer_stop+0x68>)
 800794e:	490a      	ldr	r1, [pc, #40]	; (8007978 <rt_timer_stop+0x6c>)
 8007950:	4a0a      	ldr	r2, [pc, #40]	; (800797c <rt_timer_stop+0x70>)
 8007952:	f44f 73cf 	mov.w	r3, #414	; 0x19e
 8007956:	f88d 4007 	strb.w	r4, [sp, #7]
 800795a:	f7fe ff53 	bl	8006804 <rt_kprintf>
 800795e:	f89d 3007 	ldrb.w	r3, [sp, #7]
 8007962:	2b00      	cmp	r3, #0
 8007964:	d0fb      	beq.n	800795e <rt_timer_stop+0x52>
 8007966:	e7d5      	b.n	8007914 <rt_timer_stop+0x8>
 8007968:	f04f 30ff 	mov.w	r0, #4294967295
 800796c:	e7ec      	b.n	8007948 <rt_timer_stop+0x3c>
 800796e:	bf00      	nop
 8007970:	20001cbc 	.word	0x20001cbc
 8007974:	08008674 	.word	0x08008674
 8007978:	08009600 	.word	0x08009600
 800797c:	080095d8 	.word	0x080095d8

08007980 <rt_timer_control>:
 8007980:	b570      	push	{r4, r5, r6, lr}
 8007982:	4604      	mov	r4, r0
 8007984:	b082      	sub	sp, #8
 8007986:	460d      	mov	r5, r1
 8007988:	4616      	mov	r6, r2
 800798a:	b1b8      	cbz	r0, 80079bc <rt_timer_control+0x3c>
 800798c:	2d03      	cmp	r5, #3
 800798e:	d807      	bhi.n	80079a0 <rt_timer_control+0x20>
 8007990:	e8df f005 	tbb	[pc, r5]
 8007994:	02090e11 	.word	0x02090e11
 8007998:	7a60      	ldrb	r0, [r4, #9]
 800799a:	f040 0102 	orr.w	r1, r0, #2
 800799e:	7261      	strb	r1, [r4, #9]
 80079a0:	2000      	movs	r0, #0
 80079a2:	b002      	add	sp, #8
 80079a4:	bd70      	pop	{r4, r5, r6, pc}
 80079a6:	7a62      	ldrb	r2, [r4, #9]
 80079a8:	f022 0302 	bic.w	r3, r2, #2
 80079ac:	7263      	strb	r3, [r4, #9]
 80079ae:	e7f7      	b.n	80079a0 <rt_timer_control+0x20>
 80079b0:	6a60      	ldr	r0, [r4, #36]	; 0x24
 80079b2:	6030      	str	r0, [r6, #0]
 80079b4:	e7f4      	b.n	80079a0 <rt_timer_control+0x20>
 80079b6:	6831      	ldr	r1, [r6, #0]
 80079b8:	6261      	str	r1, [r4, #36]	; 0x24
 80079ba:	e7f1      	b.n	80079a0 <rt_timer_control+0x20>
 80079bc:	4806      	ldr	r0, [pc, #24]	; (80079d8 <rt_timer_control+0x58>)
 80079be:	4907      	ldr	r1, [pc, #28]	; (80079dc <rt_timer_control+0x5c>)
 80079c0:	4a07      	ldr	r2, [pc, #28]	; (80079e0 <rt_timer_control+0x60>)
 80079c2:	f240 13bf 	movw	r3, #447	; 0x1bf
 80079c6:	f88d 4007 	strb.w	r4, [sp, #7]
 80079ca:	f7fe ff1b 	bl	8006804 <rt_kprintf>
 80079ce:	f89d 3007 	ldrb.w	r3, [sp, #7]
 80079d2:	2b00      	cmp	r3, #0
 80079d4:	d0fb      	beq.n	80079ce <rt_timer_control+0x4e>
 80079d6:	e7d9      	b.n	800798c <rt_timer_control+0xc>
 80079d8:	08008674 	.word	0x08008674
 80079dc:	08009600 	.word	0x08009600
 80079e0:	080095e8 	.word	0x080095e8

080079e4 <rt_timer_check>:
 80079e4:	e92d 47f0 	stmdb	sp!, {r4, r5, r6, r7, r8, r9, sl, lr}
 80079e8:	f7fd ff20 	bl	800582c <rt_tick_get>
 80079ec:	4682      	mov	sl, r0
 80079ee:	f7f8 fb8d 	bl	800010c <rt_hw_interrupt_disable>
 80079f2:	f64f 77fe 	movw	r7, #65534	; 0xfffe
 80079f6:	4e1d      	ldr	r6, [pc, #116]	; (8007a6c <rt_timer_check+0x88>)
 80079f8:	f8df 8074 	ldr.w	r8, [pc, #116]	; 8007a70 <rt_timer_check+0x8c>
 80079fc:	4681      	mov	r9, r0
 80079fe:	f6c7 77ff 	movt	r7, #32767	; 0x7fff
 8007a02:	6834      	ldr	r4, [r6, #0]
 8007a04:	f1a4 0514 	sub.w	r5, r4, #20
 8007a08:	42b4      	cmp	r4, r6
 8007a0a:	4628      	mov	r0, r5
 8007a0c:	d028      	beq.n	8007a60 <rt_timer_check+0x7c>
 8007a0e:	6963      	ldr	r3, [r4, #20]
 8007a10:	ebc3 010a 	rsb	r1, r3, sl
 8007a14:	42b9      	cmp	r1, r7
 8007a16:	d823      	bhi.n	8007a60 <rt_timer_check+0x7c>
 8007a18:	f8d8 2000 	ldr.w	r2, [r8]
 8007a1c:	b102      	cbz	r2, 8007a20 <rt_timer_check+0x3c>
 8007a1e:	4790      	blx	r2
 8007a20:	e894 000a 	ldmia.w	r4, {r1, r3}
 8007a24:	68e0      	ldr	r0, [r4, #12]
 8007a26:	604b      	str	r3, [r1, #4]
 8007a28:	6862      	ldr	r2, [r4, #4]
 8007a2a:	68a3      	ldr	r3, [r4, #8]
 8007a2c:	6064      	str	r4, [r4, #4]
 8007a2e:	6011      	str	r1, [r2, #0]
 8007a30:	6024      	str	r4, [r4, #0]
 8007a32:	4798      	blx	r3
 8007a34:	f7fd fefa 	bl	800582c <rt_tick_get>
 8007a38:	4682      	mov	sl, r0
 8007a3a:	f814 0c0b 	ldrb.w	r0, [r4, #-11]
 8007a3e:	f000 0103 	and.w	r1, r0, #3
 8007a42:	f020 0201 	bic.w	r2, r0, #1
 8007a46:	2903      	cmp	r1, #3
 8007a48:	f804 2c0b 	strb.w	r2, [r4, #-11]
 8007a4c:	d1d9      	bne.n	8007a02 <rt_timer_check+0x1e>
 8007a4e:	4628      	mov	r0, r5
 8007a50:	f7ff feec 	bl	800782c <rt_timer_start>
 8007a54:	6834      	ldr	r4, [r6, #0]
 8007a56:	f1a4 0514 	sub.w	r5, r4, #20
 8007a5a:	42b4      	cmp	r4, r6
 8007a5c:	4628      	mov	r0, r5
 8007a5e:	d1d6      	bne.n	8007a0e <rt_timer_check+0x2a>
 8007a60:	4648      	mov	r0, r9
 8007a62:	e8bd 47f0 	ldmia.w	sp!, {r4, r5, r6, r7, r8, r9, sl, lr}
 8007a66:	f7f8 bb55 	b.w	8000114 <rt_hw_interrupt_enable>
 8007a6a:	bf00      	nop
 8007a6c:	20000c00 	.word	0x20000c00
 8007a70:	20000c0c 	.word	0x20000c0c

08007a74 <rt_system_timer_init>:
 8007a74:	f640 4300 	movw	r3, #3072	; 0xc00
 8007a78:	f2c2 0300 	movt	r3, #8192	; 0x2000
 8007a7c:	605b      	str	r3, [r3, #4]
 8007a7e:	601b      	str	r3, [r3, #0]
 8007a80:	4770      	bx	lr
 8007a82:	bf00      	nop

08007a84 <rt_system_timer_thread_init>:
 8007a84:	4770      	bx	lr
 8007a86:	bf00      	nop

08007a88 <rt_hw_stack_init>:
 8007a88:	3204      	adds	r2, #4
 8007a8a:	b430      	push	{r4, r5}
 8007a8c:	f022 0207 	bic.w	r2, r2, #7
 8007a90:	f64b 64ef 	movw	r4, #48879	; 0xbeef
 8007a94:	f6cd 64ad 	movt	r4, #57005	; 0xdead
 8007a98:	2500      	movs	r5, #0
 8007a9a:	f842 3c0c 	str.w	r3, [r2, #-12]
 8007a9e:	f04f 7380 	mov.w	r3, #16777216	; 0x1000000
 8007aa2:	f842 0c08 	str.w	r0, [r2, #-8]
 8007aa6:	f842 4c40 	str.w	r4, [r2, #-64]
 8007aaa:	f842 4c3c 	str.w	r4, [r2, #-60]
 8007aae:	f842 4c38 	str.w	r4, [r2, #-56]
 8007ab2:	f842 4c34 	str.w	r4, [r2, #-52]
 8007ab6:	f842 4c30 	str.w	r4, [r2, #-48]
 8007aba:	f842 4c2c 	str.w	r4, [r2, #-44]
 8007abe:	f842 4c28 	str.w	r4, [r2, #-40]
 8007ac2:	f842 4c24 	str.w	r4, [r2, #-36]
 8007ac6:	f842 1c20 	str.w	r1, [r2, #-32]
 8007aca:	f842 5c1c 	str.w	r5, [r2, #-28]
 8007ace:	f842 5c18 	str.w	r5, [r2, #-24]
 8007ad2:	f842 5c14 	str.w	r5, [r2, #-20]
 8007ad6:	f842 5c10 	str.w	r5, [r2, #-16]
 8007ada:	f842 3c04 	str.w	r3, [r2, #-4]
 8007ade:	f1a2 0040 	sub.w	r0, r2, #64	; 0x40
 8007ae2:	bc30      	pop	{r4, r5}
 8007ae4:	4770      	bx	lr
 8007ae6:	bf00      	nop

08007ae8 <rt_hw_hard_fault_exception>:
 8007ae8:	4b2b      	ldr	r3, [pc, #172]	; (8007b98 <rt_hw_hard_fault_exception+0xb0>)
 8007aea:	b510      	push	{r4, lr}
 8007aec:	6819      	ldr	r1, [r3, #0]
 8007aee:	4604      	mov	r4, r0
 8007af0:	b111      	cbz	r1, 8007af8 <rt_hw_hard_fault_exception+0x10>
 8007af2:	4788      	blx	r1
 8007af4:	2800      	cmp	r0, #0
 8007af6:	d04d      	beq.n	8007b94 <rt_hw_hard_fault_exception+0xac>
 8007af8:	4828      	ldr	r0, [pc, #160]	; (8007b9c <rt_hw_hard_fault_exception+0xb4>)
 8007afa:	6c21      	ldr	r1, [r4, #64]	; 0x40
 8007afc:	f7fe fe82 	bl	8006804 <rt_kprintf>
 8007b00:	4827      	ldr	r0, [pc, #156]	; (8007ba0 <rt_hw_hard_fault_exception+0xb8>)
 8007b02:	6a61      	ldr	r1, [r4, #36]	; 0x24
 8007b04:	f7fe fe7e 	bl	8006804 <rt_kprintf>
 8007b08:	4826      	ldr	r0, [pc, #152]	; (8007ba4 <rt_hw_hard_fault_exception+0xbc>)
 8007b0a:	6aa1      	ldr	r1, [r4, #40]	; 0x28
 8007b0c:	f7fe fe7a 	bl	8006804 <rt_kprintf>
 8007b10:	4825      	ldr	r0, [pc, #148]	; (8007ba8 <rt_hw_hard_fault_exception+0xc0>)
 8007b12:	6ae1      	ldr	r1, [r4, #44]	; 0x2c
 8007b14:	f7fe fe76 	bl	8006804 <rt_kprintf>
 8007b18:	4824      	ldr	r0, [pc, #144]	; (8007bac <rt_hw_hard_fault_exception+0xc4>)
 8007b1a:	6b21      	ldr	r1, [r4, #48]	; 0x30
 8007b1c:	f7fe fe72 	bl	8006804 <rt_kprintf>
 8007b20:	4823      	ldr	r0, [pc, #140]	; (8007bb0 <rt_hw_hard_fault_exception+0xc8>)
 8007b22:	6861      	ldr	r1, [r4, #4]
 8007b24:	f7fe fe6e 	bl	8006804 <rt_kprintf>
 8007b28:	4822      	ldr	r0, [pc, #136]	; (8007bb4 <rt_hw_hard_fault_exception+0xcc>)
 8007b2a:	68a1      	ldr	r1, [r4, #8]
 8007b2c:	f7fe fe6a 	bl	8006804 <rt_kprintf>
 8007b30:	4821      	ldr	r0, [pc, #132]	; (8007bb8 <rt_hw_hard_fault_exception+0xd0>)
 8007b32:	68e1      	ldr	r1, [r4, #12]
 8007b34:	f7fe fe66 	bl	8006804 <rt_kprintf>
 8007b38:	4820      	ldr	r0, [pc, #128]	; (8007bbc <rt_hw_hard_fault_exception+0xd4>)
 8007b3a:	6921      	ldr	r1, [r4, #16]
 8007b3c:	f7fe fe62 	bl	8006804 <rt_kprintf>
 8007b40:	481f      	ldr	r0, [pc, #124]	; (8007bc0 <rt_hw_hard_fault_exception+0xd8>)
 8007b42:	6961      	ldr	r1, [r4, #20]
 8007b44:	f7fe fe5e 	bl	8006804 <rt_kprintf>
 8007b48:	481e      	ldr	r0, [pc, #120]	; (8007bc4 <rt_hw_hard_fault_exception+0xdc>)
 8007b4a:	69a1      	ldr	r1, [r4, #24]
 8007b4c:	f7fe fe5a 	bl	8006804 <rt_kprintf>
 8007b50:	481d      	ldr	r0, [pc, #116]	; (8007bc8 <rt_hw_hard_fault_exception+0xe0>)
 8007b52:	69e1      	ldr	r1, [r4, #28]
 8007b54:	f7fe fe56 	bl	8006804 <rt_kprintf>
 8007b58:	481c      	ldr	r0, [pc, #112]	; (8007bcc <rt_hw_hard_fault_exception+0xe4>)
 8007b5a:	6a21      	ldr	r1, [r4, #32]
 8007b5c:	f7fe fe52 	bl	8006804 <rt_kprintf>
 8007b60:	481b      	ldr	r0, [pc, #108]	; (8007bd0 <rt_hw_hard_fault_exception+0xe8>)
 8007b62:	6b61      	ldr	r1, [r4, #52]	; 0x34
 8007b64:	f7fe fe4e 	bl	8006804 <rt_kprintf>
 8007b68:	481a      	ldr	r0, [pc, #104]	; (8007bd4 <rt_hw_hard_fault_exception+0xec>)
 8007b6a:	6ba1      	ldr	r1, [r4, #56]	; 0x38
 8007b6c:	f7fe fe4a 	bl	8006804 <rt_kprintf>
 8007b70:	4819      	ldr	r0, [pc, #100]	; (8007bd8 <rt_hw_hard_fault_exception+0xf0>)
 8007b72:	6be1      	ldr	r1, [r4, #60]	; 0x3c
 8007b74:	f7fe fe46 	bl	8006804 <rt_kprintf>
 8007b78:	6820      	ldr	r0, [r4, #0]
 8007b7a:	0743      	lsls	r3, r0, #29
 8007b7c:	d506      	bpl.n	8007b8c <rt_hw_hard_fault_exception+0xa4>
 8007b7e:	f7ff fcbb 	bl	80074f8 <rt_thread_self>
 8007b82:	4601      	mov	r1, r0
 8007b84:	4815      	ldr	r0, [pc, #84]	; (8007bdc <rt_hw_hard_fault_exception+0xf4>)
 8007b86:	f7fe fe3d 	bl	8006804 <rt_kprintf>
 8007b8a:	e7fe      	b.n	8007b8a <rt_hw_hard_fault_exception+0xa2>
 8007b8c:	4814      	ldr	r0, [pc, #80]	; (8007be0 <rt_hw_hard_fault_exception+0xf8>)
 8007b8e:	f7fe fe39 	bl	8006804 <rt_kprintf>
 8007b92:	e7fa      	b.n	8007b8a <rt_hw_hard_fault_exception+0xa2>
 8007b94:	bd10      	pop	{r4, pc}
 8007b96:	bf00      	nop
 8007b98:	20000c10 	.word	0x20000c10
 8007b9c:	08009648 	.word	0x08009648
 8007ba0:	08009658 	.word	0x08009658
 8007ba4:	08009668 	.word	0x08009668
 8007ba8:	08009678 	.word	0x08009678
 8007bac:	08009688 	.word	0x08009688
 8007bb0:	08009698 	.word	0x08009698
 8007bb4:	080096a8 	.word	0x080096a8
 8007bb8:	080096b8 	.word	0x080096b8
 8007bbc:	080096c8 	.word	0x080096c8
 8007bc0:	080096d8 	.word	0x080096d8
 8007bc4:	080096e8 	.word	0x080096e8
 8007bc8:	080096f8 	.word	0x080096f8
 8007bcc:	08009708 	.word	0x08009708
 8007bd0:	08009718 	.word	0x08009718
 8007bd4:	08009728 	.word	0x08009728
 8007bd8:	08009738 	.word	0x08009738
 8007bdc:	08009748 	.word	0x08009748
 8007be0:	08009768 	.word	0x08009768

08007be4 <rt_serial_close>:
 8007be4:	b510      	push	{r4, lr}
 8007be6:	4604      	mov	r4, r0
 8007be8:	b082      	sub	sp, #8
 8007bea:	b1a0      	cbz	r0, 8007c16 <rt_serial_close+0x32>
 8007bec:	8ae2      	ldrh	r2, [r4, #22]
 8007bee:	f402 6080 	and.w	r0, r2, #1024	; 0x400
 8007bf2:	b281      	uxth	r1, r0
 8007bf4:	f3c2 2300 	ubfx	r3, r2, #8, #1
 8007bf8:	b149      	cbz	r1, 8007c0e <rt_serial_close+0x2a>
 8007bfa:	f043 0202 	orr.w	r2, r3, #2
 8007bfe:	6c21      	ldr	r1, [r4, #64]	; 0x40
 8007c00:	4620      	mov	r0, r4
 8007c02:	684b      	ldr	r3, [r1, #4]
 8007c04:	2111      	movs	r1, #17
 8007c06:	4798      	blx	r3
 8007c08:	2000      	movs	r0, #0
 8007c0a:	b002      	add	sp, #8
 8007c0c:	bd10      	pop	{r4, pc}
 8007c0e:	2b00      	cmp	r3, #0
 8007c10:	d0fa      	beq.n	8007c08 <rt_serial_close+0x24>
 8007c12:	2201      	movs	r2, #1
 8007c14:	e7f3      	b.n	8007bfe <rt_serial_close+0x1a>
 8007c16:	4806      	ldr	r0, [pc, #24]	; (8007c30 <rt_serial_close+0x4c>)
 8007c18:	4906      	ldr	r1, [pc, #24]	; (8007c34 <rt_serial_close+0x50>)
 8007c1a:	4a07      	ldr	r2, [pc, #28]	; (8007c38 <rt_serial_close+0x54>)
 8007c1c:	23c7      	movs	r3, #199	; 0xc7
 8007c1e:	f88d 4007 	strb.w	r4, [sp, #7]
 8007c22:	f7fe fdef 	bl	8006804 <rt_kprintf>
 8007c26:	f89d 3007 	ldrb.w	r3, [sp, #7]
 8007c2a:	2b00      	cmp	r3, #0
 8007c2c:	d0fb      	beq.n	8007c26 <rt_serial_close+0x42>
 8007c2e:	e7dd      	b.n	8007bec <rt_serial_close+0x8>
 8007c30:	08008674 	.word	0x08008674
 8007c34:	08008e30 	.word	0x08008e30
 8007c38:	0800986c 	.word	0x0800986c

08007c3c <rt_serial_open>:
 8007c3c:	b510      	push	{r4, lr}
 8007c3e:	4604      	mov	r4, r0
 8007c40:	b082      	sub	sp, #8
 8007c42:	b1a0      	cbz	r0, 8007c6e <rt_serial_open+0x32>
 8007c44:	8ae2      	ldrh	r2, [r4, #22]
 8007c46:	f402 6080 	and.w	r0, r2, #1024	; 0x400
 8007c4a:	b281      	uxth	r1, r0
 8007c4c:	f3c2 2300 	ubfx	r3, r2, #8, #1
 8007c50:	b149      	cbz	r1, 8007c66 <rt_serial_open+0x2a>
 8007c52:	f043 0202 	orr.w	r2, r3, #2
 8007c56:	6c21      	ldr	r1, [r4, #64]	; 0x40
 8007c58:	4620      	mov	r0, r4
 8007c5a:	684b      	ldr	r3, [r1, #4]
 8007c5c:	2110      	movs	r1, #16
 8007c5e:	4798      	blx	r3
 8007c60:	2000      	movs	r0, #0
 8007c62:	b002      	add	sp, #8
 8007c64:	bd10      	pop	{r4, pc}
 8007c66:	2b00      	cmp	r3, #0
 8007c68:	d0fa      	beq.n	8007c60 <rt_serial_open+0x24>
 8007c6a:	2201      	movs	r2, #1
 8007c6c:	e7f3      	b.n	8007c56 <rt_serial_open+0x1a>
 8007c6e:	4806      	ldr	r0, [pc, #24]	; (8007c88 <rt_serial_open+0x4c>)
 8007c70:	4906      	ldr	r1, [pc, #24]	; (8007c8c <rt_serial_open+0x50>)
 8007c72:	4a07      	ldr	r2, [pc, #28]	; (8007c90 <rt_serial_open+0x54>)
 8007c74:	23b2      	movs	r3, #178	; 0xb2
 8007c76:	f88d 4007 	strb.w	r4, [sp, #7]
 8007c7a:	f7fe fdc3 	bl	8006804 <rt_kprintf>
 8007c7e:	f89d 3007 	ldrb.w	r3, [sp, #7]
 8007c82:	2b00      	cmp	r3, #0
 8007c84:	d0fb      	beq.n	8007c7e <rt_serial_open+0x42>
 8007c86:	e7dd      	b.n	8007c44 <rt_serial_open+0x8>
 8007c88:	08008674 	.word	0x08008674
 8007c8c:	08008e30 	.word	0x08008e30
 8007c90:	080097b4 	.word	0x080097b4

08007c94 <rt_serial_init>:
 8007c94:	b530      	push	{r4, r5, lr}
 8007c96:	4604      	mov	r4, r0
 8007c98:	b083      	sub	sp, #12
 8007c9a:	2800      	cmp	r0, #0
 8007c9c:	d033      	beq.n	8007d06 <rt_serial_init+0x72>
 8007c9e:	8ae3      	ldrh	r3, [r4, #22]
 8007ca0:	f003 0210 	and.w	r2, r3, #16
 8007ca4:	b290      	uxth	r0, r2
 8007ca6:	b998      	cbnz	r0, 8007cd0 <rt_serial_init+0x3c>
 8007ca8:	6c21      	ldr	r1, [r4, #64]	; 0x40
 8007caa:	680a      	ldr	r2, [r1, #0]
 8007cac:	b12a      	cbz	r2, 8007cba <rt_serial_init+0x26>
 8007cae:	4620      	mov	r0, r4
 8007cb0:	f104 0144 	add.w	r1, r4, #68	; 0x44
 8007cb4:	4790      	blx	r2
 8007cb6:	b960      	cbnz	r0, 8007cd2 <rt_serial_init+0x3e>
 8007cb8:	8ae3      	ldrh	r3, [r4, #22]
 8007cba:	f403 7080 	and.w	r0, r3, #256	; 0x100
 8007cbe:	b281      	uxth	r1, r0
 8007cc0:	b9a1      	cbnz	r1, 8007cec <rt_serial_init+0x58>
 8007cc2:	f403 6000 	and.w	r0, r3, #2048	; 0x800
 8007cc6:	b281      	uxth	r1, r0
 8007cc8:	b929      	cbnz	r1, 8007cd6 <rt_serial_init+0x42>
 8007cca:	f043 0210 	orr.w	r2, r3, #16
 8007cce:	82e2      	strh	r2, [r4, #22]
 8007cd0:	2000      	movs	r0, #0
 8007cd2:	b003      	add	sp, #12
 8007cd4:	bd30      	pop	{r4, r5, pc}
 8007cd6:	2300      	movs	r3, #0
 8007cd8:	67a3      	str	r3, [r4, #120]	; 0x78
 8007cda:	f104 0054 	add.w	r0, r4, #84	; 0x54
 8007cde:	f44f 6100 	mov.w	r1, #2048	; 0x800
 8007ce2:	221e      	movs	r2, #30
 8007ce4:	f000 faea 	bl	80082bc <rt_data_queue_init>
 8007ce8:	8ae3      	ldrh	r3, [r4, #22]
 8007cea:	e7ee      	b.n	8007cca <rt_serial_init+0x36>
 8007cec:	6ce5      	ldr	r5, [r4, #76]	; 0x4c
 8007cee:	2240      	movs	r2, #64	; 0x40
 8007cf0:	2100      	movs	r1, #0
 8007cf2:	4628      	mov	r0, r5
 8007cf4:	f7fe fa0c 	bl	8006110 <rt_memset>
 8007cf8:	2200      	movs	r2, #0
 8007cfa:	8ae3      	ldrh	r3, [r4, #22]
 8007cfc:	f8a5 2040 	strh.w	r2, [r5, #64]	; 0x40
 8007d00:	f8a5 2042 	strh.w	r2, [r5, #66]	; 0x42
 8007d04:	e7dd      	b.n	8007cc2 <rt_serial_init+0x2e>
 8007d06:	4806      	ldr	r0, [pc, #24]	; (8007d20 <rt_serial_init+0x8c>)
 8007d08:	4906      	ldr	r1, [pc, #24]	; (8007d24 <rt_serial_init+0x90>)
 8007d0a:	4a07      	ldr	r2, [pc, #28]	; (8007d28 <rt_serial_init+0x94>)
 8007d0c:	2384      	movs	r3, #132	; 0x84
 8007d0e:	f88d 4007 	strb.w	r4, [sp, #7]
 8007d12:	f7fe fd77 	bl	8006804 <rt_kprintf>
 8007d16:	f89d 3007 	ldrb.w	r3, [sp, #7]
 8007d1a:	2b00      	cmp	r3, #0
 8007d1c:	d0fb      	beq.n	8007d16 <rt_serial_init+0x82>
 8007d1e:	e7be      	b.n	8007c9e <rt_serial_init+0xa>
 8007d20:	08008674 	.word	0x08008674
 8007d24:	08008e30 	.word	0x08008e30
 8007d28:	080097a4 	.word	0x080097a4

08007d2c <rt_serial_control>:
 8007d2c:	b570      	push	{r4, r5, r6, lr}
 8007d2e:	4604      	mov	r4, r0
 8007d30:	b082      	sub	sp, #8
 8007d32:	460d      	mov	r5, r1
 8007d34:	4616      	mov	r6, r2
 8007d36:	b1c0      	cbz	r0, 8007d6a <rt_serial_control+0x3e>
 8007d38:	2d02      	cmp	r5, #2
 8007d3a:	d011      	beq.n	8007d60 <rt_serial_control+0x34>
 8007d3c:	2d03      	cmp	r5, #3
 8007d3e:	d009      	beq.n	8007d54 <rt_serial_control+0x28>
 8007d40:	2d01      	cmp	r5, #1
 8007d42:	d002      	beq.n	8007d4a <rt_serial_control+0x1e>
 8007d44:	2000      	movs	r0, #0
 8007d46:	b002      	add	sp, #8
 8007d48:	bd70      	pop	{r4, r5, r6, pc}
 8007d4a:	8ae0      	ldrh	r0, [r4, #22]
 8007d4c:	f020 0120 	bic.w	r1, r0, #32
 8007d50:	82e1      	strh	r1, [r4, #22]
 8007d52:	e7f7      	b.n	8007d44 <rt_serial_control+0x18>
 8007d54:	6c22      	ldr	r2, [r4, #64]	; 0x40
 8007d56:	4620      	mov	r0, r4
 8007d58:	6813      	ldr	r3, [r2, #0]
 8007d5a:	4631      	mov	r1, r6
 8007d5c:	4798      	blx	r3
 8007d5e:	e7f1      	b.n	8007d44 <rt_serial_control+0x18>
 8007d60:	8ae0      	ldrh	r0, [r4, #22]
 8007d62:	f040 0120 	orr.w	r1, r0, #32
 8007d66:	82e1      	strh	r1, [r4, #22]
 8007d68:	e7ec      	b.n	8007d44 <rt_serial_control+0x18>
 8007d6a:	4807      	ldr	r0, [pc, #28]	; (8007d88 <rt_serial_control+0x5c>)
 8007d6c:	4907      	ldr	r1, [pc, #28]	; (8007d8c <rt_serial_control+0x60>)
 8007d6e:	4a08      	ldr	r2, [pc, #32]	; (8007d90 <rt_serial_control+0x64>)
 8007d70:	f44f 73b7 	mov.w	r3, #366	; 0x16e
 8007d74:	f88d 4007 	strb.w	r4, [sp, #7]
 8007d78:	f7fe fd44 	bl	8006804 <rt_kprintf>
 8007d7c:	f89d 3007 	ldrb.w	r3, [sp, #7]
 8007d80:	2b00      	cmp	r3, #0
 8007d82:	d0fb      	beq.n	8007d7c <rt_serial_control+0x50>
 8007d84:	e7d8      	b.n	8007d38 <rt_serial_control+0xc>
 8007d86:	bf00      	nop
 8007d88:	08008674 	.word	0x08008674
 8007d8c:	08008e30 	.word	0x08008e30
 8007d90:	080097c4 	.word	0x080097c4

08007d94 <rt_serial_write>:
 8007d94:	e92d 47f0 	stmdb	sp!, {r4, r5, r6, r7, r8, r9, sl, lr}
 8007d98:	4604      	mov	r4, r0
 8007d9a:	b082      	sub	sp, #8
 8007d9c:	4690      	mov	r8, r2
 8007d9e:	461d      	mov	r5, r3
 8007da0:	2800      	cmp	r0, #0
 8007da2:	f000 80ce 	beq.w	8007f42 <rt_serial_write+0x1ae>
 8007da6:	2d00      	cmp	r5, #0
 8007da8:	d05a      	beq.n	8007e60 <rt_serial_write+0xcc>
 8007daa:	8ae0      	ldrh	r0, [r4, #22]
 8007dac:	f400 6680 	and.w	r6, r0, #1024	; 0x400
 8007db0:	b2b6      	uxth	r6, r6
 8007db2:	2e00      	cmp	r6, #0
 8007db4:	d058      	beq.n	8007e68 <rt_serial_write+0xd4>
 8007db6:	6d26      	ldr	r6, [r4, #80]	; 0x50
 8007db8:	f898 a000 	ldrb.w	sl, [r8]
 8007dbc:	f7f8 f9a6 	bl	800010c <rt_hw_interrupt_disable>
 8007dc0:	f8b6 2040 	ldrh.w	r2, [r6, #64]	; 0x40
 8007dc4:	f8b6 1042 	ldrh.w	r1, [r6, #66]	; 0x42
 8007dc8:	1c57      	adds	r7, r2, #1
 8007dca:	f007 033f 	and.w	r3, r7, #63	; 0x3f
 8007dce:	f105 39ff 	add.w	r9, r5, #4294967295
 8007dd2:	4299      	cmp	r1, r3
 8007dd4:	4645      	mov	r5, r8
 8007dd6:	f009 0701 	and.w	r7, r9, #1
 8007dda:	f000 80d8 	beq.w	8007f8e <rt_serial_write+0x1fa>
 8007dde:	f806 a002 	strb.w	sl, [r6, r2]
 8007de2:	f8a6 3040 	strh.w	r3, [r6, #64]	; 0x40
 8007de6:	f7f8 f995 	bl	8000114 <rt_hw_interrupt_enable>
 8007dea:	f108 0501 	add.w	r5, r8, #1
 8007dee:	f1b9 0f00 	cmp.w	r9, #0
 8007df2:	d032      	beq.n	8007e5a <rt_serial_write+0xc6>
 8007df4:	b117      	cbz	r7, 8007dfc <rt_serial_write+0x68>
 8007df6:	6d26      	ldr	r6, [r4, #80]	; 0x50
 8007df8:	782f      	ldrb	r7, [r5, #0]
 8007dfa:	e019      	b.n	8007e30 <rt_serial_write+0x9c>
 8007dfc:	6d26      	ldr	r6, [r4, #80]	; 0x50
 8007dfe:	f895 a000 	ldrb.w	sl, [r5]
 8007e02:	f7f8 f983 	bl	800010c <rt_hw_interrupt_disable>
 8007e06:	f8b6 7040 	ldrh.w	r7, [r6, #64]	; 0x40
 8007e0a:	f8b6 2042 	ldrh.w	r2, [r6, #66]	; 0x42
 8007e0e:	1c79      	adds	r1, r7, #1
 8007e10:	f001 033f 	and.w	r3, r1, #63	; 0x3f
 8007e14:	429a      	cmp	r2, r3
 8007e16:	f109 39ff 	add.w	r9, r9, #4294967295
 8007e1a:	f000 80b8 	beq.w	8007f8e <rt_serial_write+0x1fa>
 8007e1e:	f806 a007 	strb.w	sl, [r6, r7]
 8007e22:	f8a6 3040 	strh.w	r3, [r6, #64]	; 0x40
 8007e26:	f7f8 f975 	bl	8000114 <rt_hw_interrupt_enable>
 8007e2a:	6d26      	ldr	r6, [r4, #80]	; 0x50
 8007e2c:	f815 7f01 	ldrb.w	r7, [r5, #1]!
 8007e30:	f7f8 f96c 	bl	800010c <rt_hw_interrupt_disable>
 8007e34:	f8b6 2040 	ldrh.w	r2, [r6, #64]	; 0x40
 8007e38:	f8b6 1042 	ldrh.w	r1, [r6, #66]	; 0x42
 8007e3c:	1c53      	adds	r3, r2, #1
 8007e3e:	f003 033f 	and.w	r3, r3, #63	; 0x3f
 8007e42:	4299      	cmp	r1, r3
 8007e44:	f000 80a3 	beq.w	8007f8e <rt_serial_write+0x1fa>
 8007e48:	54b7      	strb	r7, [r6, r2]
 8007e4a:	f8a6 3040 	strh.w	r3, [r6, #64]	; 0x40
 8007e4e:	f7f8 f961 	bl	8000114 <rt_hw_interrupt_enable>
 8007e52:	3501      	adds	r5, #1
 8007e54:	f1b9 0901 	subs.w	r9, r9, #1
 8007e58:	d1d0      	bne.n	8007dfc <rt_serial_write+0x68>
 8007e5a:	ebb5 0508 	subs.w	r5, r5, r8
 8007e5e:	d06b      	beq.n	8007f38 <rt_serial_write+0x1a4>
 8007e60:	4628      	mov	r0, r5
 8007e62:	b002      	add	sp, #8
 8007e64:	e8bd 87f0 	ldmia.w	sp!, {r4, r5, r6, r7, r8, r9, sl, pc}
 8007e68:	f400 6200 	and.w	r2, r0, #2048	; 0x800
 8007e6c:	b291      	uxth	r1, r2
 8007e6e:	2900      	cmp	r1, #0
 8007e70:	d144      	bne.n	8007efc <rt_serial_write+0x168>
 8007e72:	4647      	mov	r7, r8
 8007e74:	f817 1b01 	ldrb.w	r1, [r7], #1
 8007e78:	1e6b      	subs	r3, r5, #1
 8007e7a:	290a      	cmp	r1, #10
 8007e7c:	f003 0601 	and.w	r6, r3, #1
 8007e80:	f000 8099 	beq.w	8007fb6 <rt_serial_write+0x222>
 8007e84:	6c22      	ldr	r2, [r4, #64]	; 0x40
 8007e86:	4620      	mov	r0, r4
 8007e88:	6893      	ldr	r3, [r2, #8]
 8007e8a:	4798      	blx	r3
 8007e8c:	3701      	adds	r7, #1
 8007e8e:	f1b5 0901 	subs.w	r9, r5, #1
 8007e92:	d072      	beq.n	8007f7a <rt_serial_write+0x1e6>
 8007e94:	b1ee      	cbz	r6, 8007ed2 <rt_serial_write+0x13e>
 8007e96:	f817 1c01 	ldrb.w	r1, [r7, #-1]
 8007e9a:	290a      	cmp	r1, #10
 8007e9c:	f000 8099 	beq.w	8007fd2 <rt_serial_write+0x23e>
 8007ea0:	6c23      	ldr	r3, [r4, #64]	; 0x40
 8007ea2:	4620      	mov	r0, r4
 8007ea4:	689a      	ldr	r2, [r3, #8]
 8007ea6:	4790      	blx	r2
 8007ea8:	3701      	adds	r7, #1
 8007eaa:	f1b9 0901 	subs.w	r9, r9, #1
 8007eae:	d110      	bne.n	8007ed2 <rt_serial_write+0x13e>
 8007eb0:	e063      	b.n	8007f7a <rt_serial_write+0x1e6>
 8007eb2:	6c27      	ldr	r7, [r4, #64]	; 0x40
 8007eb4:	4620      	mov	r0, r4
 8007eb6:	68ba      	ldr	r2, [r7, #8]
 8007eb8:	4790      	blx	r2
 8007eba:	f816 1b01 	ldrb.w	r1, [r6], #1
 8007ebe:	290a      	cmp	r1, #10
 8007ec0:	d04d      	beq.n	8007f5e <rt_serial_write+0x1ca>
 8007ec2:	6c27      	ldr	r7, [r4, #64]	; 0x40
 8007ec4:	4620      	mov	r0, r4
 8007ec6:	68ba      	ldr	r2, [r7, #8]
 8007ec8:	4790      	blx	r2
 8007eca:	1c77      	adds	r7, r6, #1
 8007ecc:	f1b9 0901 	subs.w	r9, r9, #1
 8007ed0:	d053      	beq.n	8007f7a <rt_serial_write+0x1e6>
 8007ed2:	f817 1c01 	ldrb.w	r1, [r7, #-1]
 8007ed6:	463e      	mov	r6, r7
 8007ed8:	290a      	cmp	r1, #10
 8007eda:	f109 39ff 	add.w	r9, r9, #4294967295
 8007ede:	d1e8      	bne.n	8007eb2 <rt_serial_write+0x11e>
 8007ee0:	8ae0      	ldrh	r0, [r4, #22]
 8007ee2:	f000 0340 	and.w	r3, r0, #64	; 0x40
 8007ee6:	b29a      	uxth	r2, r3
 8007ee8:	2a00      	cmp	r2, #0
 8007eea:	d0e2      	beq.n	8007eb2 <rt_serial_write+0x11e>
 8007eec:	6c21      	ldr	r1, [r4, #64]	; 0x40
 8007eee:	4620      	mov	r0, r4
 8007ef0:	688b      	ldr	r3, [r1, #8]
 8007ef2:	210d      	movs	r1, #13
 8007ef4:	4798      	blx	r3
 8007ef6:	f817 1c01 	ldrb.w	r1, [r7, #-1]
 8007efa:	e7da      	b.n	8007eb2 <rt_serial_write+0x11e>
 8007efc:	f000 0140 	and.w	r1, r0, #64	; 0x40
 8007f00:	b288      	uxth	r0, r1
 8007f02:	2800      	cmp	r0, #0
 8007f04:	d149      	bne.n	8007f9a <rt_serial_write+0x206>
 8007f06:	f104 0054 	add.w	r0, r4, #84	; 0x54
 8007f0a:	4641      	mov	r1, r8
 8007f0c:	462a      	mov	r2, r5
 8007f0e:	2314      	movs	r3, #20
 8007f10:	f000 fa0c 	bl	800832c <rt_data_queue_push>
 8007f14:	2800      	cmp	r0, #0
 8007f16:	d136      	bne.n	8007f86 <rt_serial_write+0x1f2>
 8007f18:	f7f8 f8f8 	bl	800010c <rt_hw_interrupt_disable>
 8007f1c:	6fa2      	ldr	r2, [r4, #120]	; 0x78
 8007f1e:	2a00      	cmp	r2, #0
 8007f20:	d138      	bne.n	8007f94 <rt_serial_write+0x200>
 8007f22:	2101      	movs	r1, #1
 8007f24:	67a1      	str	r1, [r4, #120]	; 0x78
 8007f26:	f7f8 f8f5 	bl	8000114 <rt_hw_interrupt_enable>
 8007f2a:	6c23      	ldr	r3, [r4, #64]	; 0x40
 8007f2c:	4620      	mov	r0, r4
 8007f2e:	691b      	ldr	r3, [r3, #16]
 8007f30:	4641      	mov	r1, r8
 8007f32:	462a      	mov	r2, r5
 8007f34:	4798      	blx	r3
 8007f36:	e793      	b.n	8007e60 <rt_serial_write+0xcc>
 8007f38:	f06f 0002 	mvn.w	r0, #2
 8007f3c:	f7fe f8d8 	bl	80060f0 <rt_set_errno>
 8007f40:	e78e      	b.n	8007e60 <rt_serial_write+0xcc>
 8007f42:	482b      	ldr	r0, [pc, #172]	; (8007ff0 <rt_serial_write+0x25c>)
 8007f44:	492b      	ldr	r1, [pc, #172]	; (8007ff4 <rt_serial_write+0x260>)
 8007f46:	4a2c      	ldr	r2, [pc, #176]	; (8007ff8 <rt_serial_write+0x264>)
 8007f48:	f44f 738b 	mov.w	r3, #278	; 0x116
 8007f4c:	f88d 4006 	strb.w	r4, [sp, #6]
 8007f50:	f7fe fc58 	bl	8006804 <rt_kprintf>
 8007f54:	f89d 3006 	ldrb.w	r3, [sp, #6]
 8007f58:	2b00      	cmp	r3, #0
 8007f5a:	d0fb      	beq.n	8007f54 <rt_serial_write+0x1c0>
 8007f5c:	e723      	b.n	8007da6 <rt_serial_write+0x12>
 8007f5e:	8ae0      	ldrh	r0, [r4, #22]
 8007f60:	f000 0340 	and.w	r3, r0, #64	; 0x40
 8007f64:	b29f      	uxth	r7, r3
 8007f66:	2f00      	cmp	r7, #0
 8007f68:	d0ab      	beq.n	8007ec2 <rt_serial_write+0x12e>
 8007f6a:	6c22      	ldr	r2, [r4, #64]	; 0x40
 8007f6c:	210d      	movs	r1, #13
 8007f6e:	6893      	ldr	r3, [r2, #8]
 8007f70:	4620      	mov	r0, r4
 8007f72:	4798      	blx	r3
 8007f74:	f816 1c01 	ldrb.w	r1, [r6, #-1]
 8007f78:	e7a3      	b.n	8007ec2 <rt_serial_write+0x12e>
 8007f7a:	4445      	add	r5, r8
 8007f7c:	ebb5 0508 	subs.w	r5, r5, r8
 8007f80:	f47f af6e 	bne.w	8007e60 <rt_serial_write+0xcc>
 8007f84:	e7d8      	b.n	8007f38 <rt_serial_write+0x1a4>
 8007f86:	f7fe f8b3 	bl	80060f0 <rt_set_errno>
 8007f8a:	2500      	movs	r5, #0
 8007f8c:	e768      	b.n	8007e60 <rt_serial_write+0xcc>
 8007f8e:	f7f8 f8c1 	bl	8000114 <rt_hw_interrupt_enable>
 8007f92:	e762      	b.n	8007e5a <rt_serial_write+0xc6>
 8007f94:	f7f8 f8be 	bl	8000114 <rt_hw_interrupt_enable>
 8007f98:	e762      	b.n	8007e60 <rt_serial_write+0xcc>
 8007f9a:	4815      	ldr	r0, [pc, #84]	; (8007ff0 <rt_serial_write+0x25c>)
 8007f9c:	4917      	ldr	r1, [pc, #92]	; (8007ffc <rt_serial_write+0x268>)
 8007f9e:	4a16      	ldr	r2, [pc, #88]	; (8007ff8 <rt_serial_write+0x264>)
 8007fa0:	f44f 7399 	mov.w	r3, #306	; 0x132
 8007fa4:	f88d 6007 	strb.w	r6, [sp, #7]
 8007fa8:	f7fe fc2c 	bl	8006804 <rt_kprintf>
 8007fac:	f89d 3007 	ldrb.w	r3, [sp, #7]
 8007fb0:	2b00      	cmp	r3, #0
 8007fb2:	d0fb      	beq.n	8007fac <rt_serial_write+0x218>
 8007fb4:	e7a7      	b.n	8007f06 <rt_serial_write+0x172>
 8007fb6:	f000 0040 	and.w	r0, r0, #64	; 0x40
 8007fba:	b282      	uxth	r2, r0
 8007fbc:	2a00      	cmp	r2, #0
 8007fbe:	f43f af61 	beq.w	8007e84 <rt_serial_write+0xf0>
 8007fc2:	6c21      	ldr	r1, [r4, #64]	; 0x40
 8007fc4:	4620      	mov	r0, r4
 8007fc6:	688b      	ldr	r3, [r1, #8]
 8007fc8:	210d      	movs	r1, #13
 8007fca:	4798      	blx	r3
 8007fcc:	f817 1c01 	ldrb.w	r1, [r7, #-1]
 8007fd0:	e758      	b.n	8007e84 <rt_serial_write+0xf0>
 8007fd2:	8ae0      	ldrh	r0, [r4, #22]
 8007fd4:	f000 0240 	and.w	r2, r0, #64	; 0x40
 8007fd8:	b293      	uxth	r3, r2
 8007fda:	2b00      	cmp	r3, #0
 8007fdc:	f43f af60 	beq.w	8007ea0 <rt_serial_write+0x10c>
 8007fe0:	6c21      	ldr	r1, [r4, #64]	; 0x40
 8007fe2:	4620      	mov	r0, r4
 8007fe4:	688a      	ldr	r2, [r1, #8]
 8007fe6:	210d      	movs	r1, #13
 8007fe8:	4790      	blx	r2
 8007fea:	f817 1c01 	ldrb.w	r1, [r7, #-1]
 8007fee:	e757      	b.n	8007ea0 <rt_serial_write+0x10c>
 8007ff0:	08008674 	.word	0x08008674
 8007ff4:	08008e30 	.word	0x08008e30
 8007ff8:	08009794 	.word	0x08009794
 8007ffc:	080097d8 	.word	0x080097d8

08008000 <rt_serial_read>:
 8008000:	e92d 47f0 	stmdb	sp!, {r4, r5, r6, r7, r8, r9, sl, lr}
 8008004:	4604      	mov	r4, r0
 8008006:	b082      	sub	sp, #8
 8008008:	4617      	mov	r7, r2
 800800a:	461e      	mov	r6, r3
 800800c:	2800      	cmp	r0, #0
 800800e:	f000 80b0 	beq.w	8008172 <rt_serial_read+0x172>
 8008012:	2e00      	cmp	r6, #0
 8008014:	f000 80ab 	beq.w	800816e <rt_serial_read+0x16e>
 8008018:	8ae0      	ldrh	r0, [r4, #22]
 800801a:	f400 7180 	and.w	r1, r0, #256	; 0x100
 800801e:	b28a      	uxth	r2, r1
 8008020:	2a00      	cmp	r2, #0
 8008022:	d138      	bne.n	8008096 <rt_serial_read+0x96>
 8008024:	6c25      	ldr	r5, [r4, #64]	; 0x40
 8008026:	f107 0901 	add.w	r9, r7, #1
 800802a:	eb07 0806 	add.w	r8, r7, r6
 800802e:	ebc9 0108 	rsb	r1, r9, r8
 8008032:	68eb      	ldr	r3, [r5, #12]
 8008034:	4620      	mov	r0, r4
 8008036:	f001 0a01 	and.w	sl, r1, #1
 800803a:	4798      	blx	r3
 800803c:	f108 0801 	add.w	r8, r8, #1
 8008040:	f109 0501 	add.w	r5, r9, #1
 8008044:	4545      	cmp	r5, r8
 8008046:	f809 0c01 	strb.w	r0, [r9, #-1]
 800804a:	d01a      	beq.n	8008082 <rt_serial_read+0x82>
 800804c:	f1ba 0f00 	cmp.w	sl, #0
 8008050:	d008      	beq.n	8008064 <rt_serial_read+0x64>
 8008052:	6c22      	ldr	r2, [r4, #64]	; 0x40
 8008054:	4620      	mov	r0, r4
 8008056:	68d1      	ldr	r1, [r2, #12]
 8008058:	4788      	blx	r1
 800805a:	f805 0c01 	strb.w	r0, [r5, #-1]
 800805e:	3501      	adds	r5, #1
 8008060:	4545      	cmp	r5, r8
 8008062:	d00e      	beq.n	8008082 <rt_serial_read+0x82>
 8008064:	6c23      	ldr	r3, [r4, #64]	; 0x40
 8008066:	4620      	mov	r0, r4
 8008068:	68da      	ldr	r2, [r3, #12]
 800806a:	4790      	blx	r2
 800806c:	f805 0c01 	strb.w	r0, [r5, #-1]
 8008070:	6c21      	ldr	r1, [r4, #64]	; 0x40
 8008072:	4620      	mov	r0, r4
 8008074:	68cb      	ldr	r3, [r1, #12]
 8008076:	4798      	blx	r3
 8008078:	f805 0b01 	strb.w	r0, [r5], #1
 800807c:	3501      	adds	r5, #1
 800807e:	4545      	cmp	r5, r8
 8008080:	d1f0      	bne.n	8008064 <rt_serial_read+0x64>
 8008082:	3e01      	subs	r6, #1
 8008084:	1bf0      	subs	r0, r6, r7
 8008086:	eb09 0700 	add.w	r7, r9, r0
 800808a:	2f00      	cmp	r7, #0
 800808c:	d06a      	beq.n	8008164 <rt_serial_read+0x164>
 800808e:	4638      	mov	r0, r7
 8008090:	b002      	add	sp, #8
 8008092:	e8bd 87f0 	ldmia.w	sp!, {r4, r5, r6, r7, r8, r9, sl, pc}
 8008096:	6ce5      	ldr	r5, [r4, #76]	; 0x4c
 8008098:	f7f8 f838 	bl	800010c <rt_hw_interrupt_disable>
 800809c:	f8b5 1042 	ldrh.w	r1, [r5, #66]	; 0x42
 80080a0:	f8b5 2040 	ldrh.w	r2, [r5, #64]	; 0x40
 80080a4:	f106 38ff 	add.w	r8, r6, #4294967295
 80080a8:	428a      	cmp	r2, r1
 80080aa:	463e      	mov	r6, r7
 80080ac:	f008 0901 	and.w	r9, r8, #1
 80080b0:	d06c      	beq.n	800818c <rt_serial_read+0x18c>
 80080b2:	1c4e      	adds	r6, r1, #1
 80080b4:	f006 033f 	and.w	r3, r6, #63	; 0x3f
 80080b8:	f815 a001 	ldrb.w	sl, [r5, r1]
 80080bc:	f8a5 3042 	strh.w	r3, [r5, #66]	; 0x42
 80080c0:	463e      	mov	r6, r7
 80080c2:	f7f8 f827 	bl	8000114 <rt_hw_interrupt_enable>
 80080c6:	f806 ab01 	strb.w	sl, [r6], #1
 80080ca:	f1b8 0f00 	cmp.w	r8, #0
 80080ce:	d046      	beq.n	800815e <rt_serial_read+0x15e>
 80080d0:	f1b9 0f00 	cmp.w	r9, #0
 80080d4:	d016      	beq.n	8008104 <rt_serial_read+0x104>
 80080d6:	6ce5      	ldr	r5, [r4, #76]	; 0x4c
 80080d8:	f7f8 f818 	bl	800010c <rt_hw_interrupt_disable>
 80080dc:	f8b5 1042 	ldrh.w	r1, [r5, #66]	; 0x42
 80080e0:	f8b5 2040 	ldrh.w	r2, [r5, #64]	; 0x40
 80080e4:	428a      	cmp	r2, r1
 80080e6:	d051      	beq.n	800818c <rt_serial_read+0x18c>
 80080e8:	1c4b      	adds	r3, r1, #1
 80080ea:	f815 9001 	ldrb.w	r9, [r5, r1]
 80080ee:	f003 013f 	and.w	r1, r3, #63	; 0x3f
 80080f2:	f8a5 1042 	strh.w	r1, [r5, #66]	; 0x42
 80080f6:	f7f8 f80d 	bl	8000114 <rt_hw_interrupt_enable>
 80080fa:	f1b8 0801 	subs.w	r8, r8, #1
 80080fe:	f806 9b01 	strb.w	r9, [r6], #1
 8008102:	d02c      	beq.n	800815e <rt_serial_read+0x15e>
 8008104:	6ce5      	ldr	r5, [r4, #76]	; 0x4c
 8008106:	f7f8 f801 	bl	800010c <rt_hw_interrupt_disable>
 800810a:	f8b5 1042 	ldrh.w	r1, [r5, #66]	; 0x42
 800810e:	f8b5 3040 	ldrh.w	r3, [r5, #64]	; 0x40
 8008112:	1c4a      	adds	r2, r1, #1
 8008114:	428b      	cmp	r3, r1
 8008116:	f002 023f 	and.w	r2, r2, #63	; 0x3f
 800811a:	f108 38ff 	add.w	r8, r8, #4294967295
 800811e:	d035      	beq.n	800818c <rt_serial_read+0x18c>
 8008120:	f815 9001 	ldrb.w	r9, [r5, r1]
 8008124:	f8a5 2042 	strh.w	r2, [r5, #66]	; 0x42
 8008128:	f7f7 fff4 	bl	8000114 <rt_hw_interrupt_enable>
 800812c:	f806 9b01 	strb.w	r9, [r6], #1
 8008130:	6ce5      	ldr	r5, [r4, #76]	; 0x4c
 8008132:	f7f7 ffeb 	bl	800010c <rt_hw_interrupt_disable>
 8008136:	f8b5 1042 	ldrh.w	r1, [r5, #66]	; 0x42
 800813a:	f8b5 3040 	ldrh.w	r3, [r5, #64]	; 0x40
 800813e:	1c4a      	adds	r2, r1, #1
 8008140:	428b      	cmp	r3, r1
 8008142:	f002 023f 	and.w	r2, r2, #63	; 0x3f
 8008146:	d021      	beq.n	800818c <rt_serial_read+0x18c>
 8008148:	f815 9001 	ldrb.w	r9, [r5, r1]
 800814c:	f8a5 2042 	strh.w	r2, [r5, #66]	; 0x42
 8008150:	f7f7 ffe0 	bl	8000114 <rt_hw_interrupt_enable>
 8008154:	f1b8 0801 	subs.w	r8, r8, #1
 8008158:	f806 9b01 	strb.w	r9, [r6], #1
 800815c:	d1d2      	bne.n	8008104 <rt_serial_read+0x104>
 800815e:	1bf7      	subs	r7, r6, r7
 8008160:	2f00      	cmp	r7, #0
 8008162:	d194      	bne.n	800808e <rt_serial_read+0x8e>
 8008164:	f06f 0003 	mvn.w	r0, #3
 8008168:	f7fd ffc2 	bl	80060f0 <rt_set_errno>
 800816c:	e78f      	b.n	800808e <rt_serial_read+0x8e>
 800816e:	4637      	mov	r7, r6
 8008170:	e78d      	b.n	800808e <rt_serial_read+0x8e>
 8008172:	4808      	ldr	r0, [pc, #32]	; (8008194 <rt_serial_read+0x194>)
 8008174:	4908      	ldr	r1, [pc, #32]	; (8008198 <rt_serial_read+0x198>)
 8008176:	4a09      	ldr	r2, [pc, #36]	; (800819c <rt_serial_read+0x19c>)
 8008178:	23e0      	movs	r3, #224	; 0xe0
 800817a:	f88d 4007 	strb.w	r4, [sp, #7]
 800817e:	f7fe fb41 	bl	8006804 <rt_kprintf>
 8008182:	f89d 3007 	ldrb.w	r3, [sp, #7]
 8008186:	2b00      	cmp	r3, #0
 8008188:	d0fb      	beq.n	8008182 <rt_serial_read+0x182>
 800818a:	e742      	b.n	8008012 <rt_serial_read+0x12>
 800818c:	f7f7 ffc2 	bl	8000114 <rt_hw_interrupt_enable>
 8008190:	e7e5      	b.n	800815e <rt_serial_read+0x15e>
 8008192:	bf00      	nop
 8008194:	08008674 	.word	0x08008674
 8008198:	08008e30 	.word	0x08008e30
 800819c:	08009830 	.word	0x08009830

080081a0 <rt_hw_serial_register>:
 80081a0:	b5f0      	push	{r4, r5, r6, r7, lr}
 80081a2:	4604      	mov	r4, r0
 80081a4:	b083      	sub	sp, #12
 80081a6:	460d      	mov	r5, r1
 80081a8:	4616      	mov	r6, r2
 80081aa:	461f      	mov	r7, r3
 80081ac:	b1b8      	cbz	r0, 80081de <rt_hw_serial_register+0x3e>
 80081ae:	4b13      	ldr	r3, [pc, #76]	; (80081fc <rt_hw_serial_register+0x5c>)
 80081b0:	4a13      	ldr	r2, [pc, #76]	; (8008200 <rt_hw_serial_register+0x60>)
 80081b2:	2100      	movs	r1, #0
 80081b4:	7521      	strb	r1, [r4, #20]
 80081b6:	61e1      	str	r1, [r4, #28]
 80081b8:	6221      	str	r1, [r4, #32]
 80081ba:	6263      	str	r3, [r4, #36]	; 0x24
 80081bc:	62a2      	str	r2, [r4, #40]	; 0x28
 80081be:	4811      	ldr	r0, [pc, #68]	; (8008204 <rt_hw_serial_register+0x64>)
 80081c0:	4911      	ldr	r1, [pc, #68]	; (8008208 <rt_hw_serial_register+0x68>)
 80081c2:	4b12      	ldr	r3, [pc, #72]	; (800820c <rt_hw_serial_register+0x6c>)
 80081c4:	4a12      	ldr	r2, [pc, #72]	; (8008210 <rt_hw_serial_register+0x70>)
 80081c6:	62e0      	str	r0, [r4, #44]	; 0x2c
 80081c8:	6321      	str	r1, [r4, #48]	; 0x30
 80081ca:	63a2      	str	r2, [r4, #56]	; 0x38
 80081cc:	6363      	str	r3, [r4, #52]	; 0x34
 80081ce:	63e7      	str	r7, [r4, #60]	; 0x3c
 80081d0:	4620      	mov	r0, r4
 80081d2:	4629      	mov	r1, r5
 80081d4:	b2b2      	uxth	r2, r6
 80081d6:	f7fd fb73 	bl	80058c0 <rt_device_register>
 80081da:	b003      	add	sp, #12
 80081dc:	bdf0      	pop	{r4, r5, r6, r7, pc}
 80081de:	480d      	ldr	r0, [pc, #52]	; (8008214 <rt_hw_serial_register+0x74>)
 80081e0:	490d      	ldr	r1, [pc, #52]	; (8008218 <rt_hw_serial_register+0x78>)
 80081e2:	4a0e      	ldr	r2, [pc, #56]	; (800821c <rt_hw_serial_register+0x7c>)
 80081e4:	f240 138f 	movw	r3, #399	; 0x18f
 80081e8:	f88d 4007 	strb.w	r4, [sp, #7]
 80081ec:	f7fe fb0a 	bl	8006804 <rt_kprintf>
 80081f0:	f89d 0007 	ldrb.w	r0, [sp, #7]
 80081f4:	2800      	cmp	r0, #0
 80081f6:	d0fb      	beq.n	80081f0 <rt_hw_serial_register+0x50>
 80081f8:	e7d9      	b.n	80081ae <rt_hw_serial_register+0xe>
 80081fa:	bf00      	nop
 80081fc:	08007c95 	.word	0x08007c95
 8008200:	08007c3d 	.word	0x08007c3d
 8008204:	08007be5 	.word	0x08007be5
 8008208:	08008001 	.word	0x08008001
 800820c:	08007d95 	.word	0x08007d95
 8008210:	08007d2d 	.word	0x08007d2d
 8008214:	08008674 	.word	0x08008674
 8008218:	08008694 	.word	0x08008694
 800821c:	08009840 	.word	0x08009840

08008220 <rt_hw_serial_isr>:
 8008220:	b570      	push	{r4, r5, r6, lr}
 8008222:	8ac4      	ldrh	r4, [r0, #22]
 8008224:	4605      	mov	r5, r0
 8008226:	f404 7080 	and.w	r0, r4, #256	; 0x100
 800822a:	b284      	uxth	r4, r0
 800822c:	b082      	sub	sp, #8
 800822e:	b9b4      	cbnz	r4, 800825e <rt_hw_serial_isr+0x3e>
 8008230:	e030      	b.n	8008294 <rt_hw_serial_isr+0x74>
 8008232:	6cec      	ldr	r4, [r5, #76]	; 0x4c
 8008234:	f7f7 ff6a 	bl	800010c <rt_hw_interrupt_disable>
 8008238:	f8b4 2040 	ldrh.w	r2, [r4, #64]	; 0x40
 800823c:	f8b4 1042 	ldrh.w	r1, [r4, #66]	; 0x42
 8008240:	1c53      	adds	r3, r2, #1
 8008242:	f003 033f 	and.w	r3, r3, #63	; 0x3f
 8008246:	4299      	cmp	r1, r3
 8008248:	54a6      	strb	r6, [r4, r2]
 800824a:	f8a4 3040 	strh.w	r3, [r4, #64]	; 0x40
 800824e:	d104      	bne.n	800825a <rt_hw_serial_isr+0x3a>
 8008250:	1c4e      	adds	r6, r1, #1
 8008252:	f006 023f 	and.w	r2, r6, #63	; 0x3f
 8008256:	f8a4 2042 	strh.w	r2, [r4, #66]	; 0x42
 800825a:	f7f7 ff5b 	bl	8000114 <rt_hw_interrupt_enable>
 800825e:	6c29      	ldr	r1, [r5, #64]	; 0x40
 8008260:	4628      	mov	r0, r5
 8008262:	68ca      	ldr	r2, [r1, #12]
 8008264:	4790      	blx	r2
 8008266:	1c43      	adds	r3, r0, #1
 8008268:	4606      	mov	r6, r0
 800826a:	d1e2      	bne.n	8008232 <rt_hw_serial_isr+0x12>
 800826c:	69e8      	ldr	r0, [r5, #28]
 800826e:	b178      	cbz	r0, 8008290 <rt_hw_serial_isr+0x70>
 8008270:	6cec      	ldr	r4, [r5, #76]	; 0x4c
 8008272:	f7f7 ff4b 	bl	800010c <rt_hw_interrupt_disable>
 8008276:	f8b4 1040 	ldrh.w	r1, [r4, #64]	; 0x40
 800827a:	f8b4 3042 	ldrh.w	r3, [r4, #66]	; 0x42
 800827e:	1aca      	subs	r2, r1, r3
 8008280:	f002 043f 	and.w	r4, r2, #63	; 0x3f
 8008284:	f7f7 ff46 	bl	8000114 <rt_hw_interrupt_enable>
 8008288:	69eb      	ldr	r3, [r5, #28]
 800828a:	4628      	mov	r0, r5
 800828c:	4621      	mov	r1, r4
 800828e:	4798      	blx	r3
 8008290:	b002      	add	sp, #8
 8008292:	bd70      	pop	{r4, r5, r6, pc}
 8008294:	4806      	ldr	r0, [pc, #24]	; (80082b0 <rt_hw_serial_isr+0x90>)
 8008296:	4907      	ldr	r1, [pc, #28]	; (80082b4 <rt_hw_serial_isr+0x94>)
 8008298:	4a07      	ldr	r2, [pc, #28]	; (80082b8 <rt_hw_serial_isr+0x98>)
 800829a:	f240 13a9 	movw	r3, #425	; 0x1a9
 800829e:	f88d 4007 	strb.w	r4, [sp, #7]
 80082a2:	f7fe faaf 	bl	8006804 <rt_kprintf>
 80082a6:	f89d 3007 	ldrb.w	r3, [sp, #7]
 80082aa:	2b00      	cmp	r3, #0
 80082ac:	d0fb      	beq.n	80082a6 <rt_hw_serial_isr+0x86>
 80082ae:	e7d6      	b.n	800825e <rt_hw_serial_isr+0x3e>
 80082b0:	08008674 	.word	0x08008674
 80082b4:	08009804 	.word	0x08009804
 80082b8:	08009858 	.word	0x08009858

080082bc <rt_data_queue_init>:
 80082bc:	e92d 41f0 	stmdb	sp!, {r4, r5, r6, r7, r8, lr}
 80082c0:	4604      	mov	r4, r0
 80082c2:	b082      	sub	sp, #8
 80082c4:	460e      	mov	r6, r1
 80082c6:	4617      	mov	r7, r2
 80082c8:	4698      	mov	r8, r3
 80082ca:	b1d8      	cbz	r0, 8008304 <rt_data_queue_init+0x48>
 80082cc:	2500      	movs	r5, #0
 80082ce:	f104 0010 	add.w	r0, r4, #16
 80082d2:	f104 0118 	add.w	r1, r4, #24
 80082d6:	6160      	str	r0, [r4, #20]
 80082d8:	6120      	str	r0, [r4, #16]
 80082da:	f8c4 8020 	str.w	r8, [r4, #32]
 80082de:	00f0      	lsls	r0, r6, #3
 80082e0:	8026      	strh	r6, [r4, #0]
 80082e2:	8067      	strh	r7, [r4, #2]
 80082e4:	6065      	str	r5, [r4, #4]
 80082e6:	8125      	strh	r5, [r4, #8]
 80082e8:	8165      	strh	r5, [r4, #10]
 80082ea:	61e1      	str	r1, [r4, #28]
 80082ec:	61a1      	str	r1, [r4, #24]
 80082ee:	f7fe fbd7 	bl	8006aa0 <rt_malloc>
 80082f2:	42a8      	cmp	r0, r5
 80082f4:	60e0      	str	r0, [r4, #12]
 80082f6:	bf0c      	ite	eq
 80082f8:	f06f 0004 	mvneq.w	r0, #4
 80082fc:	4628      	movne	r0, r5
 80082fe:	b002      	add	sp, #8
 8008300:	e8bd 81f0 	ldmia.w	sp!, {r4, r5, r6, r7, r8, pc}
 8008304:	4806      	ldr	r0, [pc, #24]	; (8008320 <rt_data_queue_init+0x64>)
 8008306:	4907      	ldr	r1, [pc, #28]	; (8008324 <rt_data_queue_init+0x68>)
 8008308:	4a07      	ldr	r2, [pc, #28]	; (8008328 <rt_data_queue_init+0x6c>)
 800830a:	2329      	movs	r3, #41	; 0x29
 800830c:	f88d 4007 	strb.w	r4, [sp, #7]
 8008310:	f7fe fa78 	bl	8006804 <rt_kprintf>
 8008314:	f89d 3007 	ldrb.w	r3, [sp, #7]
 8008318:	2b00      	cmp	r3, #0
 800831a:	d0fb      	beq.n	8008314 <rt_data_queue_init+0x58>
 800831c:	e7d6      	b.n	80082cc <rt_data_queue_init+0x10>
 800831e:	bf00      	nop
 8008320:	08008674 	.word	0x08008674
 8008324:	08009890 	.word	0x08009890
 8008328:	080098c8 	.word	0x080098c8

0800832c <rt_data_queue_push>:
 800832c:	e92d 4ff0 	stmdb	sp!, {r4, r5, r6, r7, r8, r9, sl, fp, lr}
 8008330:	b085      	sub	sp, #20
 8008332:	4681      	mov	r9, r0
 8008334:	468a      	mov	sl, r1
 8008336:	e88d 000c 	stmia.w	sp, {r2, r3}
 800833a:	2800      	cmp	r0, #0
 800833c:	d07f      	beq.n	800843e <rt_data_queue_push+0x112>
 800833e:	f7ff f8db 	bl	80074f8 <rt_thread_self>
 8008342:	f8b9 b000 	ldrh.w	fp, [r9]
 8008346:	4604      	mov	r4, r0
 8008348:	f7f7 fee0 	bl	800010c <rt_hw_interrupt_disable>
 800834c:	f04f 0801 	mov.w	r8, #1
 8008350:	4605      	mov	r5, r0
 8008352:	2700      	movs	r7, #0
 8008354:	e028      	b.n	80083a8 <rt_data_queue_push+0x7c>
 8008356:	4630      	mov	r0, r6
 8008358:	f7f7 fedc 	bl	8000114 <rt_hw_interrupt_enable>
 800835c:	6327      	str	r7, [r4, #48]	; 0x30
 800835e:	4620      	mov	r0, r4
 8008360:	f7ff f924 	bl	80075ac <rt_thread_suspend>
 8008364:	9e01      	ldr	r6, [sp, #4]
 8008366:	f8d9 0014 	ldr.w	r0, [r9, #20]
 800836a:	f104 0314 	add.w	r3, r4, #20
 800836e:	f109 0110 	add.w	r1, r9, #16
 8008372:	2e00      	cmp	r6, #0
 8008374:	6003      	str	r3, [r0, #0]
 8008376:	61a0      	str	r0, [r4, #24]
 8008378:	6161      	str	r1, [r4, #20]
 800837a:	f8c9 3014 	str.w	r3, [r9, #20]
 800837e:	dd09      	ble.n	8008394 <rt_data_queue_push+0x68>
 8008380:	f104 0644 	add.w	r6, r4, #68	; 0x44
 8008384:	4630      	mov	r0, r6
 8008386:	2100      	movs	r1, #0
 8008388:	aa01      	add	r2, sp, #4
 800838a:	f7ff faf9 	bl	8007980 <rt_timer_control>
 800838e:	4630      	mov	r0, r6
 8008390:	f7ff fa4c 	bl	800782c <rt_timer_start>
 8008394:	4628      	mov	r0, r5
 8008396:	f7f7 febd 	bl	8000114 <rt_hw_interrupt_enable>
 800839a:	f7fe fe9f 	bl	80070dc <rt_schedule>
 800839e:	6b26      	ldr	r6, [r4, #48]	; 0x30
 80083a0:	f7f7 feb4 	bl	800010c <rt_hw_interrupt_disable>
 80083a4:	4605      	mov	r5, r0
 80083a6:	bb36      	cbnz	r6, 80083f6 <rt_data_queue_push+0xca>
 80083a8:	f8b9 300a 	ldrh.w	r3, [r9, #10]
 80083ac:	f8b9 1008 	ldrh.w	r1, [r9, #8]
 80083b0:	f8b9 2000 	ldrh.w	r2, [r9]
 80083b4:	1a58      	subs	r0, r3, r1
 80083b6:	4290      	cmp	r0, r2
 80083b8:	d124      	bne.n	8008404 <rt_data_queue_push+0xd8>
 80083ba:	9801      	ldr	r0, [sp, #4]
 80083bc:	f8c9 8004 	str.w	r8, [r9, #4]
 80083c0:	b1b8      	cbz	r0, 80083f2 <rt_data_queue_push+0xc6>
 80083c2:	f7f7 fea3 	bl	800010c <rt_hw_interrupt_disable>
 80083c6:	4606      	mov	r6, r0
 80083c8:	f7fd fd50 	bl	8005e6c <rt_interrupt_get_nest>
 80083cc:	2800      	cmp	r0, #0
 80083ce:	d0c2      	beq.n	8008356 <rt_data_queue_push+0x2a>
 80083d0:	4827      	ldr	r0, [pc, #156]	; (8008470 <rt_data_queue_push+0x144>)
 80083d2:	4928      	ldr	r1, [pc, #160]	; (8008474 <rt_data_queue_push+0x148>)
 80083d4:	f7fe fa16 	bl	8006804 <rt_kprintf>
 80083d8:	4827      	ldr	r0, [pc, #156]	; (8008478 <rt_data_queue_push+0x14c>)
 80083da:	4928      	ldr	r1, [pc, #160]	; (800847c <rt_data_queue_push+0x150>)
 80083dc:	4a25      	ldr	r2, [pc, #148]	; (8008474 <rt_data_queue_push+0x148>)
 80083de:	235f      	movs	r3, #95	; 0x5f
 80083e0:	f88d 700f 	strb.w	r7, [sp, #15]
 80083e4:	f7fe fa0e 	bl	8006804 <rt_kprintf>
 80083e8:	f89d 200f 	ldrb.w	r2, [sp, #15]
 80083ec:	2a00      	cmp	r2, #0
 80083ee:	d0fb      	beq.n	80083e8 <rt_data_queue_push+0xbc>
 80083f0:	e7b1      	b.n	8008356 <rt_data_queue_push+0x2a>
 80083f2:	f06f 0601 	mvn.w	r6, #1
 80083f6:	4628      	mov	r0, r5
 80083f8:	f7f7 fe8c 	bl	8000114 <rt_hw_interrupt_enable>
 80083fc:	4630      	mov	r0, r6
 80083fe:	b005      	add	sp, #20
 8008400:	e8bd 8ff0 	ldmia.w	sp!, {r4, r5, r6, r7, r8, r9, sl, fp, pc}
 8008404:	f8d9 100c 	ldr.w	r1, [r9, #12]
 8008408:	464a      	mov	r2, r9
 800840a:	f10b 34ff 	add.w	r4, fp, #4294967295
 800840e:	f852 0f18 	ldr.w	r0, [r2, #24]!
 8008412:	401c      	ands	r4, r3
 8008414:	eb01 06c4 	add.w	r6, r1, r4, lsl #3
 8008418:	f841 a034 	str.w	sl, [r1, r4, lsl #3]
 800841c:	9900      	ldr	r1, [sp, #0]
 800841e:	3301      	adds	r3, #1
 8008420:	4290      	cmp	r0, r2
 8008422:	6071      	str	r1, [r6, #4]
 8008424:	f8a9 300a 	strh.w	r3, [r9, #10]
 8008428:	d016      	beq.n	8008458 <rt_data_queue_push+0x12c>
 800842a:	3814      	subs	r0, #20
 800842c:	f7ff f928 	bl	8007680 <rt_thread_resume>
 8008430:	4628      	mov	r0, r5
 8008432:	f7f7 fe6f 	bl	8000114 <rt_hw_interrupt_enable>
 8008436:	2600      	movs	r6, #0
 8008438:	f7fe fe50 	bl	80070dc <rt_schedule>
 800843c:	e7de      	b.n	80083fc <rt_data_queue_push+0xd0>
 800843e:	480e      	ldr	r0, [pc, #56]	; (8008478 <rt_data_queue_push+0x14c>)
 8008440:	490f      	ldr	r1, [pc, #60]	; (8008480 <rt_data_queue_push+0x154>)
 8008442:	4a0c      	ldr	r2, [pc, #48]	; (8008474 <rt_data_queue_push+0x148>)
 8008444:	234b      	movs	r3, #75	; 0x4b
 8008446:	f88d 900e 	strb.w	r9, [sp, #14]
 800844a:	f7fe f9db 	bl	8006804 <rt_kprintf>
 800844e:	f89d 300e 	ldrb.w	r3, [sp, #14]
 8008452:	2b00      	cmp	r3, #0
 8008454:	d0fb      	beq.n	800844e <rt_data_queue_push+0x122>
 8008456:	e772      	b.n	800833e <rt_data_queue_push+0x12>
 8008458:	4628      	mov	r0, r5
 800845a:	f7f7 fe5b 	bl	8000114 <rt_hw_interrupt_enable>
 800845e:	f8d9 6020 	ldr.w	r6, [r9, #32]
 8008462:	2e00      	cmp	r6, #0
 8008464:	d0ca      	beq.n	80083fc <rt_data_queue_push+0xd0>
 8008466:	4648      	mov	r0, r9
 8008468:	2102      	movs	r1, #2
 800846a:	47b0      	blx	r6
 800846c:	2600      	movs	r6, #0
 800846e:	e7c5      	b.n	80083fc <rt_data_queue_push+0xd0>
 8008470:	08008ec4 	.word	0x08008ec4
 8008474:	0800987c 	.word	0x0800987c
 8008478:	08008674 	.word	0x08008674
 800847c:	080092a0 	.word	0x080092a0
 8008480:	08009890 	.word	0x08009890

08008484 <atoi>:
 8008484:	b410      	push	{r4}
 8008486:	7801      	ldrb	r1, [r0, #0]
 8008488:	4602      	mov	r2, r0
 800848a:	3001      	adds	r0, #1
 800848c:	2920      	cmp	r1, #32
 800848e:	460b      	mov	r3, r1
 8008490:	f1a1 0409 	sub.w	r4, r1, #9
 8008494:	d0f7      	beq.n	8008486 <atoi+0x2>
 8008496:	2c04      	cmp	r4, #4
 8008498:	d9f5      	bls.n	8008486 <atoi+0x2>
 800849a:	292b      	cmp	r1, #43	; 0x2b
 800849c:	4610      	mov	r0, r2
 800849e:	d017      	beq.n	80084d0 <atoi+0x4c>
 80084a0:	292d      	cmp	r1, #45	; 0x2d
 80084a2:	d019      	beq.n	80084d8 <atoi+0x54>
 80084a4:	2401      	movs	r4, #1
 80084a6:	f1a3 0130 	sub.w	r1, r3, #48	; 0x30
 80084aa:	2000      	movs	r0, #0
 80084ac:	2909      	cmp	r1, #9
 80084ae:	d80a      	bhi.n	80084c6 <atoi+0x42>
 80084b0:	eb00 0080 	add.w	r0, r0, r0, lsl #2
 80084b4:	eb03 0040 	add.w	r0, r3, r0, lsl #1
 80084b8:	f812 3f01 	ldrb.w	r3, [r2, #1]!
 80084bc:	3830      	subs	r0, #48	; 0x30
 80084be:	f1a3 0130 	sub.w	r1, r3, #48	; 0x30
 80084c2:	2909      	cmp	r1, #9
 80084c4:	d9f4      	bls.n	80084b0 <atoi+0x2c>
 80084c6:	1c63      	adds	r3, r4, #1
 80084c8:	bf08      	it	eq
 80084ca:	4240      	negeq	r0, r0
 80084cc:	bc10      	pop	{r4}
 80084ce:	4770      	bx	lr
 80084d0:	2401      	movs	r4, #1
 80084d2:	3201      	adds	r2, #1
 80084d4:	7843      	ldrb	r3, [r0, #1]
 80084d6:	e7e6      	b.n	80084a6 <atoi+0x22>
 80084d8:	f04f 34ff 	mov.w	r4, #4294967295
 80084dc:	e7f9      	b.n	80084d2 <atoi+0x4e>
 80084de:	bf00      	nop

080084e0 <strncpy>:
 80084e0:	f7fd be8e 	b.w	8006200 <rt_strncpy>

080084e4 <strcmp>:
 80084e4:	7803      	ldrb	r3, [r0, #0]
 80084e6:	780a      	ldrb	r2, [r1, #0]
 80084e8:	b92b      	cbnz	r3, 80084f6 <strcmp+0x12>
 80084ea:	e006      	b.n	80084fa <strcmp+0x16>
 80084ec:	f810 3f01 	ldrb.w	r3, [r0, #1]!
 80084f0:	b133      	cbz	r3, 8008500 <strcmp+0x1c>
 80084f2:	f811 2f01 	ldrb.w	r2, [r1, #1]!
 80084f6:	4293      	cmp	r3, r2
 80084f8:	d0f8      	beq.n	80084ec <strcmp+0x8>
 80084fa:	4618      	mov	r0, r3
 80084fc:	1a80      	subs	r0, r0, r2
 80084fe:	4770      	bx	lr
 8008500:	784a      	ldrb	r2, [r1, #1]
 8008502:	4618      	mov	r0, r3
 8008504:	1a80      	subs	r0, r0, r2
 8008506:	4770      	bx	lr

08008508 <strncmp>:
 8008508:	b430      	push	{r4, r5}
 800850a:	2a00      	cmp	r2, #0
 800850c:	d027      	beq.n	800855e <strncmp+0x56>
 800850e:	7803      	ldrb	r3, [r0, #0]
 8008510:	780c      	ldrb	r4, [r1, #0]
 8008512:	1b1c      	subs	r4, r3, r4
 8008514:	f014 04ff 	ands.w	r4, r4, #255	; 0xff
 8008518:	bf18      	it	ne
 800851a:	b260      	sxtbne	r0, r4
 800851c:	d11d      	bne.n	800855a <strncmp+0x52>
 800851e:	b1f3      	cbz	r3, 800855e <strncmp+0x56>
 8008520:	1e43      	subs	r3, r0, #1
 8008522:	189a      	adds	r2, r3, r2
 8008524:	1a13      	subs	r3, r2, r0
 8008526:	07db      	lsls	r3, r3, #31
 8008528:	d501      	bpl.n	800852e <strncmp+0x26>
 800852a:	e00d      	b.n	8008548 <strncmp+0x40>
 800852c:	b1bc      	cbz	r4, 800855e <strncmp+0x56>
 800852e:	4290      	cmp	r0, r2
 8008530:	4603      	mov	r3, r0
 8008532:	d014      	beq.n	800855e <strncmp+0x56>
 8008534:	f813 4f01 	ldrb.w	r4, [r3, #1]!
 8008538:	f811 5f01 	ldrb.w	r5, [r1, #1]!
 800853c:	4618      	mov	r0, r3
 800853e:	1b63      	subs	r3, r4, r5
 8008540:	f013 03ff 	ands.w	r3, r3, #255	; 0xff
 8008544:	d108      	bne.n	8008558 <strncmp+0x50>
 8008546:	b154      	cbz	r4, 800855e <strncmp+0x56>
 8008548:	f810 4f01 	ldrb.w	r4, [r0, #1]!
 800854c:	f811 3f01 	ldrb.w	r3, [r1, #1]!
 8008550:	1ae3      	subs	r3, r4, r3
 8008552:	f013 03ff 	ands.w	r3, r3, #255	; 0xff
 8008556:	d0e9      	beq.n	800852c <strncmp+0x24>
 8008558:	b258      	sxtb	r0, r3
 800855a:	bc30      	pop	{r4, r5}
 800855c:	4770      	bx	lr
 800855e:	2000      	movs	r0, #0
 8008560:	e7fb      	b.n	800855a <strncmp+0x52>
 8008562:	bf00      	nop

08008564 <strchr>:
 8008564:	7803      	ldrb	r3, [r0, #0]
 8008566:	b2c9      	uxtb	r1, r1
 8008568:	b153      	cbz	r3, 8008580 <strchr+0x1c>
 800856a:	4299      	cmp	r1, r3
 800856c:	d00b      	beq.n	8008586 <strchr+0x22>
 800856e:	1c43      	adds	r3, r0, #1
 8008570:	e001      	b.n	8008576 <strchr+0x12>
 8008572:	4291      	cmp	r1, r2
 8008574:	d008      	beq.n	8008588 <strchr+0x24>
 8008576:	4618      	mov	r0, r3
 8008578:	f813 2b01 	ldrb.w	r2, [r3], #1
 800857c:	2a00      	cmp	r2, #0
 800857e:	d1f8      	bne.n	8008572 <strchr+0xe>
 8008580:	2900      	cmp	r1, #0
 8008582:	bf18      	it	ne
 8008584:	2000      	movne	r0, #0
 8008586:	4770      	bx	lr
 8008588:	4770      	bx	lr
 800858a:	bf00      	nop
 800858c:	0001c200 	.word	0x0001c200
 8008590:	00000008 	.word	0x00000008
 8008594:	3a706572 	.word	0x3a706572
 8008598:	7a5f6f74 	.word	0x7a5f6f74
 800859c:	206f7265 	.word	0x206f7265
 80085a0:	2e2e2e2e 	.word	0x2e2e2e2e
 80085a4:	00002e2e 	.word	0x00002e2e
 80085a8:	3a706572 	.word	0x3a706572
 80085ac:	7a5f7266 	.word	0x7a5f7266
 80085b0:	206f7265 	.word	0x206f7265
 80085b4:	2e2e2e2e 	.word	0x2e2e2e2e
 80085b8:	00002e2e 	.word	0x00002e2e
 80085bc:	0064656c 	.word	0x0064656c
 80085c0:	5f747665 	.word	0x5f747665
 80085c4:	00000064 	.word	0x00000064
 80085c8:	5f646d63 	.word	0x5f646d63
 80085cc:	00000064 	.word	0x00000064
 80085d0:	5f736461 	.word	0x5f736461
 80085d4:	00000064 	.word	0x00000064
 80085d8:	74696e69 	.word	0x74696e69
 80085dc:	00000000 	.word	0x00000000
 80085e0:	57200d0a 	.word	0x57200d0a
 80085e4:	676e6f72 	.word	0x676e6f72
 80085e8:	72617020 	.word	0x72617020
 80085ec:	74656d61 	.word	0x74656d61
 80085f0:	76207265 	.word	0x76207265
 80085f4:	65756c61 	.word	0x65756c61
 80085f8:	74656420 	.word	0x74656420
 80085fc:	65746365 	.word	0x65746365
 8008600:	6e6f2064 	.word	0x6e6f2064
 8008604:	00000a0d 	.word	0x00000a0d
 8008608:	20202020 	.word	0x20202020
 800860c:	66202020 	.word	0x66202020
 8008610:	20656c69 	.word	0x20656c69
 8008614:	0d732520 	.word	0x0d732520
 8008618:	0000000a 	.word	0x0000000a
 800861c:	20202020 	.word	0x20202020
 8008620:	6c202020 	.word	0x6c202020
 8008624:	20656e69 	.word	0x20656e69
 8008628:	0d642520 	.word	0x0d642520
 800862c:	0000000a 	.word	0x0000000a
 8008630:	74726175 	.word	0x74726175
 8008634:	00000031 	.word	0x00000031

08008638 <__FUNCTION__.7400>:
 8008638:	336d7473 6f635f32 6f72746e 0000006c     stm32_control...

08008648 <__FUNCTION__.7413>:
 8008648:	336d7473 75705f32 00006374              stm32_putc..

08008654 <__FUNCTION__.7426>:
 8008654:	336d7473 65675f32 00006374              stm32_getc..

08008660 <stm32_uart_ops>:
 8008660:	080005f1 08000575 0800052d 080004e5     ....u...-.......
 8008670:	00000000 29732528 73736120 20747265     ....(%s) assert 
 8008680:	6c696166 61206465 73252074 2064253a     failed at %s:%d 
 8008690:	0000000a 69726573 21206c61 5452203d     ....serial != RT
 80086a0:	4c554e5f 0000004c 20676663 52203d21     _NULL...cfg != R
 80086b0:	554e5f54 00004c4c 74726175 00000032     T_NULL..uart2...
 80086c0:	74726175 00000033                       uart3...

080086c8 <__FUNCTION__.7385>:
 80086c8:	336d7473 6f635f32 6769666e 00657275     stm32_configure.
 80086d8:	7262694c 65697261 54535c73 4632334d     Libraries\STM32F
 80086e8:	5f783031 50647453 70697265 72445f68     10x_StdPeriph_Dr
 80086f8:	72657669 6372735c 6d74735c 31663233     iver\src\stm32f1
 8008708:	725f7830 632e6363 00000000 7262694c     0x_rcc.c....Libr
 8008718:	65697261 54535c73 4632334d 5f783031     aries\STM32F10x_
 8008728:	50647453 70697265 72445f68 72657669     StdPeriph_Driver
 8008738:	6372735c 6d74735c 31663233 655f7830     \src\stm32f10x_e
 8008748:	2e697478 00000063 7262694c 65697261     xti.c...Librarie
 8008758:	54535c73 4632334d 5f783031 50647453     s\STM32F10x_StdP
 8008768:	70697265 72445f68 72657669 6372735c     eriph_Driver\src
 8008778:	6d74735c 31663233 615f7830 632e6364     \stm32f10x_adc.c
 8008788:	00000000 7262694c 65697261 54535c73     ....Libraries\ST
 8008798:	4632334d 5f783031 50647453 70697265     M32F10x_StdPerip
 80087a8:	72445f68 72657669 6372735c 6d74735c     h_Driver\src\stm
 80087b8:	31663233 745f7830 632e6d69 00000000     32f10x_tim.c....
 80087c8:	7262694c 65697261 54535c73 4632334d     Libraries\STM32F
 80087d8:	5f783031 50647453 70697265 72445f68     10x_StdPeriph_Dr
 80087e8:	72657669 6372735c 6d74735c 31663233     iver\src\stm32f1
 80087f8:	665f7830 6873616c 0000632e 7262694c     0x_flash.c..Libr
 8008808:	65697261 54535c73 4632334d 5f783031     aries\STM32F10x_
 8008818:	50647453 70697265 72445f68 72657669     StdPeriph_Driver
 8008828:	6372735c 6d74735c 31663233 675f7830     \src\stm32f10x_g
 8008838:	2e6f6970 00000063 7262694c 65697261     pio.c...Librarie
 8008848:	54535c73 4632334d 5f783031 50647453     s\STM32F10x_StdP
 8008858:	70697265 72445f68 72657669 6372735c     eriph_Driver\src
 8008868:	6d74735c 31663233 755f7830 74726173     \stm32f10x_usart
 8008878:	0000632e 7262694c 65697261 54535c73     .c..Libraries\ST
 8008888:	4632334d 5f783031 50647453 70697265     M32F10x_StdPerip
 8008898:	72445f68 72657669 6372735c 6d74735c     h_Driver\src\stm
 80088a8:	31663233 645f7830 632e616d 00000000     32f10x_dma.c....
 80088b8:	7262694c 65697261 54535c73 4632334d     Libraries\STM32F
 80088c8:	5f783031 50647453 70697265 72445f68     10x_StdPeriph_Dr
 80088d8:	72657669 6372735c 73696d5c 00632e63     iver\src\misc.c.
 80088e8:	78343025 78343025 00000000 74697773     %04x%04x....swit
 80088f8:	525f6863 62205441 70206461 6d617261     ch_RAT bad param
 8008908:	72657465 2e2e2e20 68732021 646c756f     eter ...! should
 8008918:	20656220 7c417c52 0a0d2054 00000000      be R|A|T ......
 8008928:	706d6173 0000656c 006e7572 706f7473     sample..run.stop
 8008938:	00000000 00676663 00747773 00616770     ....cfg.swt.pga.
 8008948:	706d6574 00000000 756e616d 00006c61     temp....manual..
 8008958:	65746e69 6c617672 00000000 6e616863     interval....chan
 8008968:	006c656e 5f636461 756c6176 65722065     nel.adc_value re
 8008978:	253a6461 000d0a78 64616572 0a73253a     ad:%x...read:%s.
 8008988:	0000000d 5f636461 756c6176 72772065     ....adc_value wr
 8008998:	3a657469 0d0a7825 00000000 3a746573     ite:%x......set:
 80089a8:	00627375 63200a0d 6f736e6f 7320656c     usb... console s
 80089b8:	74207465 7375206f 6f6e2062 2e2e2e77     et to usb now...
 80089c8:	000a0d2e 3a746573 00726573 63200a0d     ....set:ser... c
 80089d8:	6f736e6f 7320656c 74207465 6573206f     onsole set to se
 80089e8:	6c616972 6f6e2031 2e2e2e77 000a0d2e     rial1 now.......
 80089f8:	72650a0d 75203a72 6f6e6b6e 6f632077     ..err: unknow co
 8008a08:	6c6f736e 000a0d65 3e3e0d0a 6e755f5f     nsole.....>>__un
 8008a18:	776f6e6b 6f63206e 6e616d6d 000d0a64     known command...
 8008a28:	3e3e0d0a 6e6b6e75 206e776f 6d6d6f63     ..>>unknown comm
 8008a38:	5f646e61 000d0a5f 736e6f63 00656c6f     and__...console.
 8008a48:	73616c66 00000068 696c6163 00000062     flash...calib...
 8008a58:	6f746f6d 00000072 00636461 74756f76     motor...adc.vout
 8008a68:	00000000 00746573 00746567 20434441     ....set.get.ADC 
 8008a78:	74737953 69206d65 6974696e 7a696c61     System initializ
 8008a88:	0d216465 0000000a 3a706572 5f727265     ed!.....rep:err_
 8008a98:	6f6b6e75 61206e77 206f7475 6d6d6f63     unkown auto comm
 8008aa8:	21646e61 0d2e2e2e 0000000a 3a706572     and!........rep:
 8008ab8:	65636361 6172616c 2e2e6574 2e2e2e2e     accelarate......
 8008ac8:	00000a0d 3a706572 65636364 6172616c     ....rep:dccelara
 8008ad8:	2e2e6574 2e2e2e2e 00000a0d 3a706572     te..........rep:
 8008ae8:	706f7473 2e2e2e2e 0a0d2e2e 00000000     stop............
 8008af8:	3a706572 705f6f74 616c6c6f 2e2e2072     rep:to_pollar ..
 8008b08:	2e2e2e2e 00000a0d 6f746f6d 6f6d3a72     ........motor:mo
 8008b18:	783a6576 00003a3c 3a706572 705f7266     ve:x<:..rep:fr_p
 8008b28:	616c6c6f 2e2e2072 2e2e2e2e 00000a0d     ollar ..........
 8008b38:	3a706572 5f727265 6f6b6e75 64206e77     rep:err_unkown d
 8008b48:	63657269 6e6f6974 0d2e2e2e 0000000a     irection........
 8008b58:	3a706572 65766f6d 66207820 6177726f     rep:move x forwa
 8008b68:	2e2e6472 2e2e2e2e 00000a0d 3a706572     rd..........rep:
 8008b78:	65766f6d 62207820 776b6361 2e647261     move x backward.
 8008b88:	2e2e2e2e 000a0d2e 3a706572 206e7572     ........rep:run 
 8008b98:	6f662078 72617772 2e2e2e64 0d2e2e2e     x forward.......
 8008ba8:	0000000a 3a706572 206e7572 61622078     ....rep:run x ba
 8008bb8:	61776b63 2e2e6472 2e2e2e2e 00000a0d     ckward..........
 8008bc8:	3a706572 5f727265 6f6b6e75 64206e77     rep:err_unkown d
 8008bd8:	63657269 6e6f6974 000a0d2e 65766f6d     irection....move
 8008be8:	00000000 6c636361 00000000 75746573     ....accl....setu
 8008bf8:	00000070 6f747561 00000000 62617473     p...auto....stab
 8008c08:	7420656c 20656d69 74746573 2e2e6465     le time setted..
 8008c18:	0a0d212e 00000000 74756f76 69727720     .!......vout wri
 8008c28:	2e646574 0a0d212e 00000000 74756f76     ted..!......vout
 8008c38:	63656420 73616572 2e2e6465 0a0d212e      decreased...!..
 8008c48:	00000000 74756f76 636e6920 73616572     ....vout increas
 8008c58:	2e2e6465 0a0d212e 00000000 00636e69     ed...!......inc.
 8008c68:	00636564 20616770 74697277 2e2e6465     dec.pga writed..
 8008c78:	000a0d21 5f616770 65732052 64657474     !...pga_R setted
 8008c88:	212e2e2e 00000a0d 5f616770 65732041     ...!....pga_A se
 8008c98:	64657474 212e2e2e 00000a0d 5f616770     tted...!....pga_
 8008ca8:	65732042 64657474 212e2e2e 00000a0d     B setted...!....
 8008cb8:	20616770 20646162 61726170 6574656d     pga bad paramete
 8008cc8:	2e2e2072 7320212e 6c756f68 65622064     r ...! should be
 8008cd8:	417c5220 0d20427c 0000000a 006d6573      R|A|B .....sem.

08008ce8 <GPIO_PIN>:
 8008ce8:	00800100 02000100                       ........

08008cf0 <CustomHID_DeviceDescriptor>:
 8008cf0:	02000112 40000000 57500483 02010200     .......@..PW....
 8008d00:	00000103                                ....

08008d04 <CustomHID_StringProduct>:
 8008d04:	00530320 004d0054 00320033 00430020      .S.T.M.3.2. .C.
 8008d14:	00730075 006d0074 00480020 00440049     u.s.t.m. .H.I.D.

08008d24 <CustomHID_StringVendor>:
 8008d24:	00530326 004d0054 00630069 006f0072     &.S.T.M.i.c.r.o.
 8008d34:	006c0065 00630065 00720074 006e006f     e.l.e.c.t.r.o.n.
 8008d44:	00630069 00000073                       i.c.s...

08008d4c <CustomHID_ReportDescriptor>:
 8008d4c:	0900ff06 8501a101 15010901 75012500     .............%.u
 8008d5c:	b1019508 09018582 85829101 15020902     ................
 8008d6c:	75012500 b1019508 09028582 85829102     .%.u............
 8008d7c:	15030903 75012500 b1019508 09038582     .....%.u........
 8008d8c:	85829103 15040904 75012500 b1019508     .........%.u....
 8008d9c:	09048582 05829104 a1ff09ff 19010501     ................
 8008dac:	15ff2900 75ff2500 81409508 19020502     .)...%.u..@.....
 8008dbc:	15ff2900 95ff2500 91407508 0000c002     .)...%...u@.....
	...

08008df0 <CustomHID_ConfigDescriptor>:
 8008df0:	00290209 c0000101 00040932 00030200     ..).....2.......
 8008e00:	21090000 01000110 0700a322 40038205     ...!...."......@
 8008e10:	05070100 00400301 00000005              ......@.....

08008e1c <CustomHID_StringLangID>:
 8008e1c:	04090304                                ....

08008e20 <__FUNCTION__.4689>:
 8008e20:	645f7472 63697665 6c635f65 0065736f     rt_device_close.
 8008e30:	20766564 52203d21 554e5f54 00004c4c     dev != RT_NULL..
 8008e40:	69206f54 6974696e 7a696c61 65642065     To initialize de
 8008e50:	65636976 2073253a 6c696166 202e6465     vice:%s failed. 
 8008e60:	20656854 6f727265 6f632072 69206564     The error code i
 8008e70:	64252073 0000000a 2d766564 6665723e     s %d....dev->ref
 8008e80:	756f635f 2120746e 0030203d              _count != 0.

08008e8c <__FUNCTION__.4711>:
 8008e8c:	645f7472 63697665 72775f65 00657469     rt_device_write.

08008e9c <__FUNCTION__.4676>:
 8008e9c:	645f7472 63697665 706f5f65 00006e65     rt_device_open..

08008eac <__FUNCTION__.4698>:
 8008eac:	745f7472 61657268 64695f64 655f656c     rt_thread_idle_e
 8008ebc:	74756378 00000065 636e7546 6e6f6974     xcute...Function
 8008ecc:	5d73255b 61687320 6e206c6c 7520746f     [%s] shall not u
 8008edc:	20646573 49206e69 000a5253 6c646974     sed in ISR..tidl
 8008eec:	00000065                                e...

08008ef0 <__FUNCTION__.4744>:
 8008ef0:	735f7472 635f6d65 74616572 00000065     rt_sem_create...
 8008f00:	206d6573 52203d21 554e5f54 00004c4c     sem != RT_NULL..
 8008f10:	636e7546 6e6f6974 5d73255b 61687320     Function[%s] sha
 8008f20:	6e206c6c 6220746f 73752065 62206465     ll not be used b
 8008f30:	726f6665 63732065 75646568 2072656c     efore scheduler 
 8008f40:	72617473 00000a74                       start...

08008f48 <__FUNCTION__.4769>:
 8008f48:	735f7472 745f6d65 00656b61              rt_sem_take.

08008f54 <__FUNCTION__.4725>:
 8008f54:	735f7472 695f6d65 0074696e              rt_sem_init.

08008f60 <small_digits.4848>:
 8008f60:	33323130 37363534 62613938 66656463     0123456789abcdef
 8008f70:	00000000                                ....

08008f74 <large_digits.4849>:
 8008f74:	33323130 37363534 42413938 46454443     0123456789ABCDEF
 8008f84:	00000000 4c554e28 0000294c 205c200a     ....(NULL)... \ 
 8008f94:	0a2f207c 00000000 5452202d 20202d20     | /.....- RT -  
 8008fa4:	54202020 61657268 704f2064 74617265        Thread Operat
 8008fb4:	20676e69 74737953 000a6d65 7c202f20     ing System.. / |
 8008fc4:	20205c20 25202020 64252e64 2064252e      \     %d.%d.%d 
 8008fd4:	6c697562 73252064 0000000a 2074634f     build %s....Oct 
 8008fe4:	32203632 00343130 30303220 202d2036     26 2014. 2006 - 
 8008ff4:	33313032 706f4320 67697279 62207468     2013 Copyright b
 8009004:	74722079 7268742d 20646165 6d616574     y rt-thread team
 8009014:	0000000a                                ....

08009018 <__lowest_bit_bitmap>:
 8009018:	00010000 00010002 00010003 00010002     ................
 8009028:	00010004 00010002 00010003 00010002     ................
 8009038:	00010005 00010002 00010003 00010002     ................
 8009048:	00010004 00010002 00010003 00010002     ................
 8009058:	00010006 00010002 00010003 00010002     ................
 8009068:	00010004 00010002 00010003 00010002     ................
 8009078:	00010005 00010002 00010003 00010002     ................
 8009088:	00010004 00010002 00010003 00010002     ................
 8009098:	00010007 00010002 00010003 00010002     ................
 80090a8:	00010004 00010002 00010003 00010002     ................
 80090b8:	00010005 00010002 00010003 00010002     ................
 80090c8:	00010004 00010002 00010003 00010002     ................
 80090d8:	00010006 00010002 00010003 00010002     ................
 80090e8:	00010004 00010002 00010003 00010002     ................
 80090f8:	00010005 00010002 00010003 00010002     ................
 8009108:	00010004 00010002 00010003 00010002     ................

08009118 <__FUNCTION__.4736>:
 8009118:	735f7472 65747379 65685f6d 695f7061     rt_system_heap_i
 8009128:	0074696e                                nit.

0800912c <__FUNCTION__.4749>:
 800912c:	6d5f7472 6f6c6c61 00000063              rt_malloc...

08009138 <__FUNCTION__.4808>:
 8009138:	665f7472 00656572 5f747228 746e6975     rt_free.(rt_uint
 8009148:	20745f38 656d292a 3d3e206d 61656820     8_t *)mem >= hea
 8009158:	74705f70 00000072 5f747228 746e6975     p_ptr...(rt_uint
 8009168:	20745f38 656d292a 203c206d 5f747228     8_t *)mem < (rt_
 8009178:	746e6975 20745f38 6568292a 655f7061     uint8_t *)heap_e
 8009188:	0000646e 2d6d656d 6573753e 3d3d2064     nd..mem->used ==
 8009198:	00003020 70616568 00000000 206d656d      0..heap....mem 
 80091a8:	74696e69 7265202c 20726f72 69676562     init, error begi
 80091b8:	6461206e 73657264 78302073 202c7825     n address 0x%x, 
 80091c8:	20646e61 20646e65 72646461 20737365     and end address 
 80091d8:	78257830 0000000a 5f747228 746e6975     0x%x....(rt_uint
 80091e8:	745f3233 6d656d29 53202b20 4f455a49     32_t)mem + SIZEO
 80091f8:	54535f46 54435552 4d454d5f 73202b20     F_STRUCT_MEM + s
 8009208:	20657a69 28203d3c 755f7472 33746e69     ize <= (rt_uint3
 8009218:	29745f32 70616568 646e655f 00000000     2_t)heap_end....
 8009228:	5f747228 746e6975 745f3233 72282829     (rt_uint32_t)((r
 8009238:	69755f74 5f38746e 292a2074 206d656d     t_uint8_t *)mem 
 8009248:	4953202b 464f455a 5254535f 5f544355     + SIZEOF_STRUCT_
 8009258:	294d454d 52202520 4c415f54 5f4e4749     MEM) % RT_ALIGN_
 8009268:	455a4953 203d3d20 00000030 72282828     SIZE == 0...(((r
 8009278:	69755f74 3233746e 6d29745f 20296d65     t_uint32_t)mem) 
 8009288:	52282026 4c415f54 5f4e4749 455a4953     & (RT_ALIGN_SIZE
 8009298:	2929312d 203d3d20 00000030 72282828     -1)) == 0...(((r
 80092a8:	69755f74 3233746e 7229745f 296d656d     t_uint32_t)rmem)
 80092b8:	28202620 415f5452 4e47494c 5a49535f      & (RT_ALIGN_SIZ
 80092c8:	29312d45 3d3d2029 00003020 5f747228     E-1)) == 0..(rt_
 80092d8:	746e6975 20745f38 6d72292a 3e206d65     uint8_t *)rmem >
 80092e8:	7228203d 69755f74 5f38746e 292a2074     = (rt_uint8_t *)
 80092f8:	70616568 7274705f 20262620 5f747228     heap_ptr && (rt_
 8009308:	746e6975 20745f38 6d72292a 3c206d65     uint8_t *)rmem <
 8009318:	74722820 6e69755f 745f3874 68292a20      (rt_uint8_t *)h
 8009328:	5f706165 00646e65 2d6d656d 6573753e     eap_end.mem->use
 8009338:	00000064 2d6d656d 67616d3e 3d206369     d...mem->magic =
 8009348:	4548203d 4d5f5041 43494741 00000000     = HEAP_MAGIC....

08009358 <__FUNCTION__.4716>:
 8009358:	67756c70 6c6f685f 00007365              plug_holes..

08009364 <__FUNCTION__.4745>:
 8009364:	6f5f7472 63656a62 6c615f74 61636f6c     rt_object_alloca
 8009374:	00006574                                te..

08009378 <__FUNCTION__.4755>:
 8009378:	6f5f7472 63656a62 65645f74 6574656c     rt_object_delete
 8009388:	00000000 656a626f 21207463 5452203d     ....object != RT
 8009398:	4c554e5f 0000004c 626f2821 7463656a     _NULL...!(object
 80093a8:	79743e2d 26206570 5f545220 656a624f     ->type & RT_Obje
 80093b8:	435f7463 7373616c 6174535f 29636974     ct_Class_Static)
 80093c8:	00000000                                ....

080093cc <__FUNCTION__.4767>:
 80093cc:	6f5f7472 63656a62 73695f74 7379735f     rt_object_is_sys
 80093dc:	6f6d6574 63656a62 00000074              temobject...

080093e8 <__FUNCTION__.4733>:
 80093e8:	6f5f7472 63656a62 65645f74 68636174     rt_object_detach
 80093f8:	00000000                                ....

080093fc <__FUNCTION__.4737>:
 80093fc:	735f7472 64656863 5f656c75 65736e69     rt_schedule_inse
 800940c:	745f7472 61657268 00000064              rt_thread...

08009418 <__FUNCTION__.4746>:
 8009418:	735f7472 64656863 5f656c75 6f6d6572     rt_schedule_remo
 8009428:	745f6576 61657268 00000064              ve_thread...

08009434 <__FUNCTION__.4705>:
 8009434:	5f74725f 65686373 656c7564 74735f72     _rt_scheduler_st
 8009444:	5f6b6361 63656863 0000006b 65726874     ack_check...thre
 8009454:	21206461 5452203d 4c554e5f 0000004c     ad != RT_NULL...
 8009464:	65726874 253a6461 74732073 206b6361     thread:%s stack 
 8009474:	7265766f 776f6c66 0000000a 6e726177     overflow....warn
 8009484:	3a676e69 20732520 63617473 7369206b     ing: %s stack is
 8009494:	6f6c6320 74206573 6e65206f 666f2064      close to end of
 80094a4:	61747320 61206b63 65726464 0a2e7373      stack address..
 80094b4:	00000000                                ....

080094b8 <__FUNCTION__.4735>:
 80094b8:	745f7472 61657268 74735f64 75747261     rt_thread_startu
 80094c8:	00000070                                p...

080094cc <__FUNCTION__.4811>:
 80094cc:	745f7472 61657268 75735f64 6e657073     rt_thread_suspen
 80094dc:	00000064                                d...

080094e0 <__FUNCTION__.4704>:
 80094e0:	5f74725f 65726874 695f6461 0074696e     _rt_thread_init.
 80094f0:	65726874 3e2d6461 74617473 203d3d20     thread->stat == 
 8009500:	545f5452 41455248 55535f44 4e455053     RT_THREAD_SUSPEN
 8009510:	00000044 6f697270 79746972 52203c20     D...priority < R
 8009520:	48545f54 44414552 4952505f 5449524f     T_THREAD_PRIORIT
 8009530:	414d5f59 00000058 63617473 74735f6b     Y_MAX...stack_st
 8009540:	20747261 52203d21 554e5f54 00004c4c     art != RT_NULL..
 8009550:	65726874 3e2d6461 74617473 203d3d20     thread->stat == 
 8009560:	545f5452 41455248 4e495f44 00005449     RT_THREAD_INIT..

08009570 <__FUNCTION__.4720>:
 8009570:	745f7472 61657268 6e695f64 00007469     rt_thread_init..

08009580 <__FUNCTION__.4783>:
 8009580:	745f7472 61657268 6c735f64 00706565     rt_thread_sleep.

08009590 <__FUNCTION__.4829>:
 8009590:	745f7472 61657268 69745f64 756f656d     rt_thread_timeou
 80095a0:	00000074                                t...

080095a4 <__FUNCTION__.4820>:
 80095a4:	745f7472 61657268 65725f64 656d7573     rt_thread_resume
 80095b4:	00000000                                ....

080095b8 <__FUNCTION__.4744>:
 80095b8:	745f7472 72656d69 696e695f 00000074     rt_timer_init...

080095c8 <__FUNCTION__.4753>:
 80095c8:	745f7472 72656d69 7465645f 00686361     rt_timer_detach.

080095d8 <__FUNCTION__.4810>:
 80095d8:	745f7472 72656d69 6f74735f 00000070     rt_timer_stop...

080095e8 <__FUNCTION__.4820>:
 80095e8:	745f7472 72656d69 6e6f635f 6c6f7274     rt_timer_control
 80095f8:	00000000 00006425 656d6974 3d212072     ....%d..timer !=
 8009608:	5f545220 4c4c554e 00000000 656d6974      RT_NULL....time
 8009618:	693e2d72 5f74696e 6b636974 52203c20     r->init_tick < R
 8009628:	49545f54 4d5f4b43 2f205841 00003220     T_TICK_MAX / 2..

08009638 <__FUNCTION__.4785>:
 8009638:	745f7472 72656d69 6174735f 00007472     rt_timer_start..
 8009648:	3a727370 25783020 0a783830 00000000     psr: 0x%08x.....
 8009658:	3a303072 25783020 0a783830 00000000     r00: 0x%08x.....
 8009668:	3a313072 25783020 0a783830 00000000     r01: 0x%08x.....
 8009678:	3a323072 25783020 0a783830 00000000     r02: 0x%08x.....
 8009688:	3a333072 25783020 0a783830 00000000     r03: 0x%08x.....
 8009698:	3a343072 25783020 0a783830 00000000     r04: 0x%08x.....
 80096a8:	3a353072 25783020 0a783830 00000000     r05: 0x%08x.....
 80096b8:	3a363072 25783020 0a783830 00000000     r06: 0x%08x.....
 80096c8:	3a373072 25783020 0a783830 00000000     r07: 0x%08x.....
 80096d8:	3a383072 25783020 0a783830 00000000     r08: 0x%08x.....
 80096e8:	3a393072 25783020 0a783830 00000000     r09: 0x%08x.....
 80096f8:	3a303172 25783020 0a783830 00000000     r10: 0x%08x.....
 8009708:	3a313172 25783020 0a783830 00000000     r11: 0x%08x.....
 8009718:	3a323172 25783020 0a783830 00000000     r12: 0x%08x.....
 8009728:	3a726c20 25783020 0a783830 00000000      lr: 0x%08x.....
 8009738:	3a637020 25783020 0a783830 00000000      pc: 0x%08x.....
 8009748:	64726168 75616620 6f20746c 6874206e     hard fault on th
 8009758:	64616572 7325203a 0a0d0a0d 00000000     read: %s........
 8009768:	64726168 75616620 6f20746c 6168206e     hard fault on ha
 8009778:	656c646e 0d0a0d72 0000000a 74756873     ndler.......shut
 8009788:	6e776f64 0a2e2e2e 00000000              down........

08009794 <__FUNCTION__.4963>:
 8009794:	735f7472 61697265 72775f6c 00657469     rt_serial_write.

080097a4 <__FUNCTION__.4907>:
 80097a4:	735f7472 61697265 6e695f6c 00007469     rt_serial_init..

080097b4 <__FUNCTION__.4918>:
 80097b4:	735f7472 61697265 706f5f6c 00006e65     rt_serial_open..

080097c4 <__FUNCTION__.4986>:
 80097c4:	735f7472 61697265 6f635f6c 6f72746e     rt_serial_contro
 80097d4:	0000006c 3d3d2030 65642820 663e2d76     l...0 == (dev->f
 80097e4:	2067616c 54522026 5645445f 5f454349     lag & RT_DEVICE_
 80097f4:	47414c46 5254535f 294d4145 00000000     FLAG_STREAM)....
 8009804:	69726573 3e2d6c61 65726170 662e746e     serial->parent.f
 8009814:	2067616c 54522026 5645445f 5f454349     lag & RT_DEVICE_
 8009824:	47414c46 544e495f 0058525f              FLAG_INT_RX.

08009830 <__FUNCTION__.4942>:
 8009830:	735f7472 61697265 65725f6c 00006461     rt_serial_read..

08009840 <__FUNCTION__.5002>:
 8009840:	685f7472 65735f77 6c616972 6765725f     rt_hw_serial_reg
 8009850:	65747369 00000072                       ister...

08009858 <__FUNCTION__.5011>:
 8009858:	685f7472 65735f77 6c616972 7273695f     rt_hw_serial_isr
 8009868:	00000000                                ....

0800986c <__FUNCTION__.4928>:
 800986c:	735f7472 61697265 6c635f6c 0065736f     rt_serial_close.

0800987c <__FUNCTION__.4903>:
 800987c:	645f7472 5f617461 75657571 75705f65     rt_data_queue_pu
 800988c:	00006873 75657571 3d212065 5f545220     sh..queue != RT_
 800989c:	4c4c554e 00000000 61746164 7274705f     NULL....data_ptr
 80098ac:	203d2120 4e5f5452 004c4c55 657a6973      != RT_NULL.size
 80098bc:	203d2120 4e5f5452 004c4c55               != RT_NULL.

080098c8 <__FUNCTION__.4888>:
 80098c8:	645f7472 5f617461 75657571 6e695f65     rt_data_queue_in
 80098d8:	00007469                                it..
